(lp0
(lp1
(lp2
S'N'
p3
aF-0.6669599965953135
aF0.9004549748836701
aF-0.09065870696644929
aa(lp4
S'H'
p5
aF-1.2716340362758674
aF1.0608703326649616
aF0.7016292575542167
aa(lp6
S'CA'
p7
aF0.7347297382090054
aF0.5713113826395996
aF0.14067521408462885
aa(lp8
S'C'
p9
aF0.9882509180140686
aF-0.9200498941968077
aF-0.044965711745666714
aa(lp10
S'O'
p11
aF0.21561337664810903
aF-1.6125867959914213
aF-0.706680052926727
aa(lp12
S'CB'
p13
aF1.172515681563372
aF0.9944184635740956
aF1.5540084606561584
aa(lp14
S'CG1'
p15
aF0.47901332754209713
aF0.12938820655270133
aF2.6100099471155525
aa(lp16
S'CG2'
p17
aF0.869115352116904
aF2.467351967820756
aF1.7854477230111676
aa(lp18
S'CD1'
p19
aF-0.30916011315605396
aF0.9217062115816093
aF3.6273446050747946
aa(lp20
S'HA'
p21
aF1.3405866690080401
aF1.1121334708854933
aF-0.5852075920680759
aa(lp22
S'HB'
p23
aF2.243519016090864
aF0.8319599581984398
aF1.6669380469570971
aa(lp24
S'1HG1'
p25
aF-0.20042336977189334
aF-0.5670837561399453
aF2.120272691511988
aa(lp26
S'2HG1'
p27
aF1.2241467555607932
aF-0.4615612537397661
aF3.1424908480210667
aa(lp28
S'1HG2'
p29
aF1.184350382680745
aF2.749528731069169
aF2.7901467574429044
aa(lp30
S'2HG2'
p31
aF1.40718410425975
aF3.0684614701959076
aF1.0546465297159338
aa(lp32
S'3HG2'
p33
aF-0.20218400627085076
aF2.639157206454691
aF1.6793409621713355
aa(lp34
S'1HD1'
p35
aF-0.7697894158653289
aF0.2394736159755403
aF4.342046872440845
aa(lp36
S'2HD1'
p37
aF0.35937164807565924
aF1.6026078199592246
aF4.155820038688506
aa(lp38
S'3HD1'
p39
aF-1.0844989789568347
aF1.4945150518365575
aF3.1214822960375024
aaa(lp40
(lp41
S'N'
p42
aF-0.6966135009385829
aF0.9567132011693659
aF-0.07525477405697573
aa(lp43
S'H'
p44
aF-1.2293186493674801
aF1.0926101310962193
aF0.771652097608265
aa(lp45
S'CA'
p46
aF0.7033414106824326
aF0.5650716993297471
aF0.022096032128673504
aa(lp47
S'C'
p48
aF0.8496254144807585
aF-0.9494444722269415
aF0.08192709701973389
aa(lp49
S'O'
p50
aF0.3729653251428389
aF-1.664950559368378
aF-0.8004204526997171
aa(lp51
S'CB'
p52
aF1.365187160822537
aF1.1944857001734444
aF1.2622751395818765
aa(lp53
S'CG1'
p54
aF0.7482790355767471
aF0.6255132339626146
aF2.542309005422812
aa(lp55
S'CG2'
p56
aF1.227888029285519
aF2.7083898634471453
aF1.2276610831634622
aa(lp57
S'CD1'
p58
aF1.7595553593551245
aF0.029149104278717308
aF3.4949133418561806
aa(lp59
S'HA'
p60
aF1.2254299776871045
aF0.9222919084390261
aF-0.8646577388849768
aa(lp61
S'HB'
p62
aF2.423306483710907
aF0.9357467335960983
aF1.2797864417819356
aa(lp63
S'1HG1'
p64
aF0.20916862150507498
aF1.4140831301608876
aF3.066536513523366
aa(lp65
S'2HG1'
p66
aF0.0251799293503272
aF-0.1479365287907396
aF2.2853631997140518
aa(lp67
S'1HG2'
p68
aF1.699566259450292
aF3.1364943518792963
aF2.110717250217893
aa(lp69
S'2HG2'
p70
aF1.7118489537758148
aF3.097363316690778
aF0.33242118445573443
aa(lp71
S'3HG2'
p72
aF0.17091018501443878
aF2.9776329589092074
aF1.2138049557799382
aa(lp73
S'1HD1'
p74
aF1.2460421731430666
aF-0.3518235533054074
aF4.3777576326343635
aa(lp75
S'2HD1'
p76
aF2.2873235332697437
aF-0.7861969712019257
aF3.000289715448038
aa(lp77
S'3HD1'
p78
aF2.4728996501424696
aF0.795476619889799
aF3.793429776275537
aaa(lp79
(lp80
S'N'
p81
aF-0.6684361613515347
aF0.9318631921919591
aF-0.09016545477862993
aa(lp82
S'H'
p83
aF-1.256547072962878
aF1.0385644232394968
aF0.7243321836075197
aa(lp84
S'CA'
p85
aF0.7349209005912346
aF0.579807446999043
aF0.08738371861290747
aa(lp86
S'C'
p87
aF0.9363711931384988
aF-0.9286519511405962
aF0.016200688354146633
aa(lp88
S'O'
p89
aF0.2536911405846781
aF-1.621583111289903
aF-0.7377511357959433
aa(lp90
S'CB'
p91
aF1.2674295051460562
aF1.1062332173031937
aF1.4323266521363929
aa(lp92
S'CG1'
p93
aF1.0649255504993542
aF2.6202077157959898
aF1.531176873511615
aa(lp94
S'CG2'
p95
aF2.7366393284864565
aF0.7512894500464654
aF1.5988271538944014
aa(lp96
S'CD1'
p97
aF1.2149293486518788
aF3.167213842857027
aF2.9321958446527994
aa(lp98
S'HA'
p99
aF1.3111490257951717
aF1.0386974297400529
aF-0.7145290768105802
aa(lp100
S'HB'
p101
aF0.700845539971075
aF0.6591984617784203
aF2.248255287348751
aa(lp102
S'1HG1'
p103
aF1.7841790717468404
aF3.1260667579076378
aF0.8882849683774959
aa(lp104
S'2HG1'
p105
aF0.06853425153613646
aF2.878075658796804
aF1.1706044073929154
aa(lp106
S'1HG2'
p107
aF3.097333722290478
aF1.1309164666199116
aF2.5544488795609404
aa(lp108
S'2HG2'
p109
aF2.85459039196825
aF-0.3317491987770411
aF1.5711534881078104
aa(lp110
S'3HG2'
p111
aF3.313556893927397
aF1.198688868290784
aF0.7888216704312687
aa(lp112
S'1HD1'
p113
aF1.0572204155910203
aF4.245402163273671
aF2.9214795883128786
aa(lp114
S'2HD1'
p115
aF0.47886698157208185
aF2.69887417952771
aF3.5867393126680778
aa(lp116
S'3HD1'
p117
aF2.217658586979822
aF2.951942495702455
aF3.3010363544893924
aaa(lp118
(lp119
S'N'
p120
aF-0.6740151372836026
aF0.8939628574297804
aF-0.08777154577961882
aa(lp121
S'H'
p122
aF-1.2682825543585752
aF1.078531866228489
aF0.7080019885843398
aa(lp123
S'CA'
p124
aF0.7294237736894622
aF0.5684696337429678
aF0.13366328549293005
aa(lp125
S'C'
p126
aF0.9823971943488231
aF-0.923896269315572
aF-0.03444816512293414
aa(lp127
S'O'
p128
aF0.23047672360390664
aF-1.6170680880856643
aF-0.7194455631747148
aa(lp129
S'CB'
p130
aF1.1815718837662617
aF1.011807009848619
aF1.5371600106411343
aa(lp131
S'CG1'
p132
aF0.20959620825014416
aF0.4926824257848519
aF2.600185858128207
aa(lp133
S'CG2'
p134
aF1.2910534394888322
aF2.527480205896121
aF1.6061495152031628
aa(lp135
S'CD1'
p136
aF0.2577141760509164
aF-1.0062380574805512
aF2.7909187761631773
aa(lp137
S'HA'
p138
aF1.327795746936265
aF1.1006366677781951
aF-0.6049998512066589
aa(lp139
S'HB'
p140
aF2.1544684487874433
aF0.5761145851780521
aF1.7601519047867875
aa(lp141
S'1HG1'
p142
aF0.4295735926912161
aF0.9658611546992917
aF3.55550823347455
aa(lp143
S'2HG1'
p144
aF-0.8098455201870802
aF0.7681961219286026
aF2.326308576196798
aa(lp145
S'1HG2'
p146
aF1.611089641962038
aF2.8234044084675665
aF2.605947342485752
aa(lp147
S'2HG2'
p148
aF2.0205704539123093
aF2.8729411623773666
aF0.8749575751397322
aa(lp149
S'3HG2'
p150
aF0.320912759965362
aF2.9727909590405233
aF1.389231569731392
aa(lp151
S'1HD1'
p152
aF-0.4592052735735635
aF-1.2982619983333192
aF3.5590401993242233
aa(lp153
S'2HD1'
p154
aF0.005842768207266903
aF-1.5014577403299065
aF1.8525365194951189
aa(lp155
S'3HD1'
p156
aF1.259739087283745
aF-1.3006120142993756
aF3.099436281040417
aaa(lp157
(lp158
S'N'
p159
aF-0.6798198190853884
aF0.9506383088169503
aF-0.08425235538773679
aa(lp160
S'H'
p161
aF-1.2424191773814324
aF1.05307259455186
aF0.7478733437412077
aa(lp162
S'CA'
p163
aF0.7228424301152859
aF0.5753802013340229
aF0.04928777878783634
aa(lp164
S'C'
p165
aF0.890982573629848
aF-0.9379212161322655
aF0.056548084113372254
aa(lp166
S'O'
p167
aF0.3084139927216633
aF-1.6411698885705397
aF-0.7694568512547274
aa(lp168
S'CB'
p169
aF1.3293171444420375
aF1.1666167611960974
aF1.335373993302555
aa(lp170
S'CG1'
p171
aF2.799476680044674
aF1.5313468907405146
aF1.1134531234431713
aa(lp172
S'CG2'
p173
aF1.1907206179202876
aF0.18420750720223544
aF2.4886758013750665
aa(lp174
S'CD1'
p175
aF3.761315518979612
aF0.7465786587289592
aF1.9755934078179056
aa(lp176
S'HA'
p177
aF1.270221287128837
aF0.9743364151792889
aF-0.8043065782277181
aa(lp178
S'HB'
p179
aF0.810922044195634
aF2.0894897341758996
aF1.5916999494286157
aa(lp180
S'1HG1'
p181
aF3.0621985677885806
aF1.3641434256215421
aF0.06937352353114173
aa(lp182
S'2HG1'
p183
aF2.9457034518116396
aF2.592466607670495
aF1.3198330584200697
aa(lp184
S'1HG2'
p185
aF1.6249235159821622
aF0.6175855223760613
aF3.3887243218886245
aa(lp186
S'2HG2'
p187
aF0.13576466750458255
aF-0.02743243370841808
aF2.660214362911024
aa(lp188
S'3HG2'
p189
aF1.7110928275103399
aF-0.741448552255532
aF2.242806683599994
aa(lp190
S'1HD1'
p191
aF4.78291129446558
aF1.0618769838591762
aF1.7611591808873368
aa(lp192
S'2HD1'
p193
aF3.5378069883036853
aF0.9283361609917481
aF3.027703738099981
aa(lp194
S'3HD1'
p195
aF3.6582690691472566
aF-0.31560031594050353
aF1.760767303847572
aaa(lp196
(lp197
S'N'
p198
aF-0.6683948511518867
aF0.8879548641217759
aF-0.08860068981744329
aa(lp199
S'H'
p200
aF-1.2765554618100594
aF1.077282003057695
aF0.6945780293177345
aa(lp201
S'CA'
p202
aF0.7311624734536544
aF0.5649293615030525
aF0.1610206630370407
aa(lp203
S'C'
p204
aF1.005071064378346
aF-0.9160857312675996
aF-0.06943405877005804
aa(lp205
S'O'
p206
aF0.20871677512994358
aF-1.6140804974149223
aF-0.6975639437672735
aa(lp207
S'CB'
p208
aF1.1353710184858845
aF0.945583690145575
aF1.5973001393955377
aa(lp209
S'CG1'
p210
aF2.6311649619169732
aF1.2651394473778639
aF1.6640503964330182
aa(lp211
S'CG2'
p212
aF0.7836789584963251
aF-0.1752330396073115
aF2.5628738306518524
aa(lp213
S'CD1'
p214
aF2.9796714318936077
aF2.3467510346634457
aF2.660809451889245
aa(lp215
S'HA'
p216
aF1.346496007319987
aF1.1359810972068987
aF-0.533059704967411
aa(lp217
S'HB'
p218
aF0.6059304387932036
aF1.8496864320053579
aF1.8963518150910625
aa(lp219
S'1HG1'
p220
aF3.1845058202180594
aF0.3649616644968938
aF1.9291293539949468
aa(lp221
S'2HG1'
p222
aF2.979413751802243
aF1.5844459032381153
aF0.6813178959073607
aa(lp223
S'1HG2'
p224
aF1.0767403689488917
aF0.1099556144893079
aF3.573099766409845
aa(lp225
S'2HG2'
p226
aF-0.28954115201328345
aF-0.3573083141891549
aF2.5342348924087776
aa(lp227
S'3HG2'
p228
aF1.313636651036806
aF-1.0838908675782153
aF2.27473012382422
aa(lp229
S'1HD1'
p230
aF4.0563764094595145
aF2.518307015576246
aF2.650420193116517
aa(lp231
S'2HD1'
p232
aF2.4636633575533637
aF3.2693536812455846
aF2.392507339084842
aa(lp233
S'3HD1'
p234
aF2.6726000516282546
aF2.0346271087428134
aF3.6576072359406657
aaa(lp235
(lp236
S'N'
p237
aF-0.7048257180479858
aF0.896594570929854
aF-0.0740581025766416
aa(lp238
S'H'
p239
aF-1.243842243562529
aF1.1345428194581548
aF0.7463898337633462
aa(lp240
S'CA'
p241
aF0.7057912923946835
aF0.5607523428653187
aF0.07644986298809495
aa(lp242
S'C'
p243
aF0.9208861930409219
aF-0.9461474574800223
aF0.034590868313606846
aa(lp244
S'O'
p245
aF0.3219904761749088
aF-1.6457422757733067
aF-0.7833724624884116
aa(lp246
S'CB'
p247
aF1.2667835883439504
aF1.1232703320388582
aF1.3951708932828755
aa(lp248
S'CG1'
p249
aF0.47885458379533086
aF2.3629336259649727
aF1.8251171707214373
aa(lp250
S'CG2'
p251
aF2.7446488769348543
aF1.4536501114998952
aF1.2469366526317947
aa(lp252
S'CD1'
p253
aF-0.34214257191602354
aF2.1600307391053963
aF3.0791849873956063
aa(lp254
S'HA'
p255
aF1.2580003639114183
aF1.0069736517846
aF-0.7502409406386243
aa(lp256
S'HB'
p257
aF1.1478592957511722
aF0.3836479778501702
aF2.1866320646713975
aa(lp258
S'1HG1'
p259
aF1.1662286676237383
aF3.1898767171857085
aF1.9985155350832495
aa(lp260
S'2HG1'
p261
aF-0.19595736892406324
aF2.6617516856103562
aF1.023199097788295
aa(lp262
S'1HG2'
p263
aF3.125218520382051
aF1.8501673675226462
aF2.187805300298759
aa(lp264
S'2HG2'
p265
aF3.2946216051029498
aF0.5505054135727484
aF0.985747730819586
aa(lp266
S'3HG2'
p267
aF2.8741492164179396
aF2.197278956915357
aF0.460384173556283
aa(lp268
S'1HD1'
p269
aF-0.8722073069374076
aF3.0815762779631712
aF3.3195393018941113
aa(lp270
S'2HD1'
p271
aF-1.0635415849714622
aF1.3579676428337442
aF2.9155993720079154
aa(lp272
S'3HD1'
p273
aF0.31588427139097064
aF1.894292521590177
aF3.9049354783063093
aaa(lp274
(lp275
S'N'
p276
aF-0.7057864797847992
aF0.8923953977905063
aF-0.07271436553620152
aa(lp277
S'H'
p278
aF-1.2447465891695284
aF1.1389512017541745
aF0.7442661948346311
aa(lp279
S'CA'
p280
aF0.7052493779657343
aF0.5600395459061829
aF0.08019539824771285
aa(lp281
S'C'
p282
aF0.9253775383045166
aF-0.9461317567672964
aF0.030691862730137492
aa(lp283
S'O'
p284
aF0.3199061526839561
aF-1.64525438868357
aF-0.782439090276293
aa(lp285
S'CB'
p286
aF1.2598236766178113
aF1.1166607382156948
aF1.4046372412693409
aa(lp287
S'CG1'
p288
aF1.412890034951681
aF2.638093666659639
aF1.321261380297044
aa(lp289
S'CG2'
p290
aF2.5919878810945027
aF0.4622594850417334
aF1.740092949456451
aa(lp291
S'CD1'
p292
aF0.5330534656875335
aF3.283513792756444
aF0.2754557232963487
aa(lp293
S'HA'
p294
aF1.2593220123360374
aF1.01146947726146
aF-0.7421260309504528
aa(lp295
S'HB'
p296
aF0.5530665552214705
aF0.9139883663250172
aF2.208381156349132
aa(lp297
S'1HG1'
p298
aF1.1751466375044728
aF3.0806861326409254
aF2.288018840070108
aa(lp299
S'2HG1'
p300
aF2.4501008680793754
aF2.8872665337085954
aF1.0945157740128666
aa(lp301
S'1HG2'
p302
aF2.969693876773596
aF0.868262480883879
aF2.6784029985315367
aa(lp303
S'2HG2'
p304
aF2.4530338146064694
aF-0.6139562596708694
aF1.8398548572124205
aa(lp305
S'3HG2'
p306
aF3.3072100813044134
aF0.6636323177166576
aF0.9432521958630006
aa(lp307
S'1HD1'
p308
aF0.6982739400248226
aF4.361402061986694
aF0.27649202227262504
aa(lp309
S'2HD1'
p310
aF0.7795628742665298
aF2.8798798869278577
aF-0.7070302977480221
aa(lp311
S'3HD1'
p312
aF-0.5117662457837027
aF3.076707351528005
aF0.5011100305621354
aaa(lp313
(lp314
S'N'
p315
aF-0.729697623380435
aF0.8079434909071022
aF-0.04310468575209969
aa(lp316
S'H'
p317
aF-1.2556243121250128
aF1.235979197678232
aF0.7056426359760667
aa(lp318
S'CA'
p319
aF0.6898632780657199
aF0.5379186287677313
aF0.15098915987932288
aa(lp320
S'C'
p321
aF0.9999569469811046
aF-0.9401192681309257
aF-0.04391566774171429
aa(lp322
S'O'
p323
aF0.2955017104586293
aF-1.64172204922214
aF-0.7696114423615878
aa(lp324
S'CB'
p325
aF1.1458586279368164
aF0.9785714785367359
aF1.5537387123249444
aa(lp326
S'CG1'
p327
aF-0.0039028872430631745
aF1.6599621853774733
aF2.299774343405891
aa(lp328
S'CG2'
p329
aF2.3455175482846773
aF1.908135079975745
aF1.4551183000892358
aa(lp330
S'CD1'
p331
aF0.06657027080197142
aF3.1703810706686615
aF2.281544561430078
aa(lp332
S'HA'
p333
aF1.2540966692361766
aF1.1054082804554297
aF-0.5884384400354106
aa(lp334
S'HB'
p335
aF1.4248388352615724
aF0.10145195213237801
aF2.1374384470526793
aa(lp336
S'1HG1'
p337
aF-0.9530308534276213
aF1.357442444116083
aF1.8595290595543705
aa(lp338
S'2HG1'
p339
aF-0.0073505954633611426
aF1.3330665621375317
aF3.340143683983839
aa(lp340
S'1HG2'
p341
aF2.6556088312215014
aF2.20995917511924
aF2.455565006234747
aa(lp342
S'2HG2'
p343
aF3.167370093388633
aF1.390078401918196
aF0.9626249778744789
aa(lp344
S'3HG2'
p345
aF2.075667240949322
aF2.7913956848123527
aF0.8770694132512058
aa(lp346
S'1HD1'
p347
aF-0.7819138165258084
aF3.5802426616539145
aF2.830060951145631
aa(lp348
S'2HD1'
p349
aF0.9944298512496075
aF3.4973655756365933
aF2.750270208778731
aa(lp350
S'3HD1'
p351
aF0.03584661858093008
aF3.5227636600234673
aF1.251698180694681
aaa(lp352
(lp353
S'N'
p354
aF-0.7013530377962933
aF0.8778858134885942
aF-0.07427930296779908
aa(lp355
S'H'
p356
aF-1.2534591720723636
aF1.1382810808282102
aF0.7297027374049143
aa(lp357
S'CA'
p358
aF0.7104239639044846
aF0.5599208458012435
aF0.10603979416931092
aa(lp359
S'C'
p360
aF0.9544751534222828
aF-0.9399707800923156
aF0.0029178883038351866
aa(lp361
S'O'
p362
aF0.2899130925419067
aF-1.6361169600257153
aF-0.7643811169102712
aa(lp363
S'CB'
p364
aF1.2194973118842483
aF1.0717190448888654
aF1.4656842071638765
aa(lp365
S'CG1'
p366
aF0.7558676110250776
aF2.5117136558561537
aF1.7013641190494677
aa(lp367
S'CG2'
p368
aF2.73581161105772
aF0.9793757778581971
aF1.534536710068035
aa(lp369
S'CD1'
p370
aF1.7052579028412893
aF3.32829741662113
aF2.5475343356489737
aa(lp371
S'HA'
p372
aF1.2785524067249612
aF1.0525499072651794
aF-0.6824617468942096
aa(lp373
S'HB'
p374
aF0.7904214666712956
aF0.4682388215043697
aF2.264500543400551
aa(lp375
S'1HG1'
p376
aF0.6319778426038771
aF3.016174252973907
aF0.7432488695955523
aa(lp377
S'2HG1'
p378
aF-0.2173463310704773
aF2.5048303365709326
aF2.193366398339359
aa(lp379
S'1HG2'
p380
aF3.077980860805814
aF1.3464893552263895
aF2.502218902649235
aa(lp381
S'2HG2'
p382
aF3.0425060910302335
aF-0.057626629634016976
aF1.4101924186439836
aa(lp383
S'3HG2'
p384
aF3.1741618484728376
aF1.5860402681027645
aF0.7411835316951174
aa(lp385
S'1HD1'
p386
aF1.308160919606614
aF4.336404407361225
aF2.6706776713471374
aa(lp387
S'2HD1'
p388
aF1.8161346784760735
aF2.859887140212268
aF3.525398924219091
aa(lp389
S'3HD1'
p390
aF2.6765105102744506
aF3.3793706357028377
aF2.0567177723109795
aaa.