(lp0
(lp1
(lp2
S'N'
p3
aF0.19879999999999715
aF-0.7394000000000005
aF0.8477999999999994
aa(lp4
S'H'
p5
aF0.23580000000000328
aF-0.45639999999999936
aF1.8168000000000006
aa(lp6
S'CA'
p7
aF-0.8502000000000024
aF-0.19840000000000024
aF-0.009199999999999875
aa(lp8
S'C'
p9
aF-0.2761999999999972
aF0.3166000000000003
aF-1.3232
aa(lp10
S'O'
p11
aF0.6917999999999992
aF1.0775999999999997
aF-1.3322000000000003
aa(lp12
S'CB'
p13
aF-1.6092000000000026
aF0.9375999999999991
aF0.700800000000001
aa(lp14
S'CG1'
p15
aF-2.2622000000000013
aF0.4215999999999972
aF1.9848
aa(lp16
S'CG2'
p17
aF-2.6531999999999996
aF1.5395999999999994
aF-0.22719999999999985
aa(lp18
S'CD1'
p19
aF-3.2211999999999974
aF1.402599999999999
aF2.6188000000000002
aa(lp20
S'HA'
p21
aF-1.5561999999999983
aF-0.996400000000002
aF-0.2362000000000002
aa(lp22
S'HB'
p23
aF-0.9061999999999998
aF1.7155999999999978
aF0.9958000000000027
aa(lp24
S'1HG1'
p25
aF-2.8061999999999983
aF-0.49840000000000095
aF1.7718000000000025
aa(lp26
S'2HG1'
p27
aF-1.489199999999998
aF0.18059999999999754
aF2.7158000000000015
aa(lp28
S'1HG2'
p29
aF-3.1811999999999983
aF2.3405999999999976
aF0.29080000000000084
aa(lp30
S'2HG2'
p31
aF-2.1642000000000023
aF1.9416000000000004
aF-1.113199999999999
aa(lp32
S'3HG2'
p33
aF-3.364199999999998
aF0.7685999999999986
aF-0.5231999999999992
aa(lp34
S'1HD1'
p35
aF-3.6432000000000015
aF0.9655999999999978
aF3.5248000000000026
aa(lp36
S'2HD1'
p37
aF-2.688199999999996
aF2.3196000000000003
aF2.8728000000000016
aa(lp38
S'3HD1'
p39
aF-4.024200000000002
aF1.6306000000000005
aF1.918800000000001
aaa(lp40
(lp41
S'N'
p42
aF0.19997730393759727
aF-0.7363549902489394
aF0.854977406862517
aa(lp43
S'H'
p44
aF0.223134263130216
aF-0.48351214139701204
aF1.8329749779358733
aa(lp45
S'CA'
p46
aF-0.8381176936893662
aF-0.17396272716977185
aF0.0006790290514870345
aa(lp47
S'C'
p48
aF-0.2615828357403205
aF0.29844946045026755
aF-1.328309790524402
aa(lp49
S'O'
p50
aF0.6765889623619072
aF1.095380398365446
aF-1.3603216233254503
aa(lp51
S'CB'
p52
aF-1.5493582702222009
aF0.9994853119459838
aF0.6988957158963626
aa(lp53
S'CG1'
p54
aF-2.148179225215554
aF0.5441124149312739
aF2.0317565445372554
aa(lp55
S'CG2'
p56
aF-2.62730633652727
aF1.5809248641164053
aF-0.20259306025175994
aa(lp57
S'CD1'
p58
aF-1.1170922021045024
aF0.25653796765658016
aF3.098636804007201
aa(lp59
S'HA'
p60
aF-1.5752055547115176
aF-0.949788781509115
aF-0.20548939370536512
aa(lp61
S'HB'
p62
aF-0.8228933844569959
aF1.7789316210717077
aF0.9305208892701351
aa(lp63
S'1HG1'
p64
aF-2.823639862190454
aF1.3110927537752155
aF2.4079999334815563
aa(lp65
S'2HG1'
p66
aF-2.7372008943489803
aF-0.35991255136935796
aF1.8757522702483704
aa(lp67
S'1HG2'
p68
aF-3.1197156909815766
aF2.4087364380907723
aF0.3069086822771241
aa(lp69
S'2HG2'
p70
aF-2.1745365120851043
aF1.9407540875458023
aF-1.125566741372091
aa(lp71
S'3HG2'
p72
aF-3.3618272827756606
aF0.8100408754287676
aF-0.4351051147938926
aa(lp73
S'1HD1'
p74
aF-1.6185583398652397
aF-0.061696962199125994
aF4.0130908717979565
aa(lp75
S'2HD1'
p76
aF-0.44976756959826847
aF-0.5358196807365766
aF2.756507892800788
aa(lp77
S'3HD1'
p78
aF-0.5384612655463472
aF1.157222162935412
aF3.297604689940463
aaa(lp79
(lp80
S'N'
p81
aF0.20986101742083152
aF-0.7250955207996889
aF0.8644154320020708
aa(lp82
S'H'
p83
aF0.2006541845100412
aF-0.5224603496106022
aF1.8542311833542768
aa(lp84
S'CA'
p85
aF-0.821444939794584
aF-0.1454048887775808
aF0.01200954643006475
aa(lp86
S'C'
p87
aF-0.24769855145808278
aF0.2813915253370952
aF-1.3332242261052825
aa(lp88
S'O'
p89
aF0.6586282893217734
aF1.1115692338507914
aF-1.3974319356811014
aa(lp90
S'CB'
p91
aF-1.4837426535433842
aF1.0643057008407646
aF0.6954098886368408
aa(lp92
S'CG1'
p93
aF-0.7257481202761953
aF2.3506725011840612
aF0.356912115362662
aa(lp94
S'CG2'
p95
aF-1.541760802827889
aF0.8586833680308951
aF2.2015610598688062
aa(lp96
S'CD1'
p97
aF-1.2121664393967375
aF3.0314998169974157
aF-0.9024898795803065
aa(lp98
S'HA'
p99
aF-1.5848130029286076
aF-0.9008491250212676
aF-0.16764068628117326
aa(lp100
S'HB'
p101
aF-2.4980065315897177
aF1.1869307597835435
aF0.3161410122315871
aa(lp102
S'1HG1'
p103
aF-0.8160960317739387
aF3.0544705530060425
aF1.1827586853377385
aa(lp104
S'2HG1'
p105
aF0.3347279049656864
aF2.126472165562657
aF0.23373009802879952
aa(lp106
S'1HG2'
p107
aF-2.011807046199305
aF1.7226936381954912
aF2.6689899658454386
aa(lp108
S'2HG2'
p109
aF-2.122613142549649
aF-0.03606043009856996
aF2.4242224511081147
aa(lp110
S'3HG2'
p111
aF-0.5302154696147692
aF0.7399213052965774
aF2.5919513918570045
aa(lp112
S'1HD1'
p113
aF-0.6267361529163363
aF3.9349761836723567
aF-1.0765325023235537
aa(lp114
S'2HD1'
p115
aF-1.0972513332044729
aF2.3557507953274452
aF-1.7501471087011846
aa(lp116
S'3HD1'
p117
aF-2.262067914843951
aF3.297515243237302
aF-0.7890893290694061
aaa(lp118
(lp119
S'N'
p120
aF0.23029144252423256
aF-0.7038108027800882
aF0.829981954858149
aa(lp121
S'H'
p122
aF0.2287041699820682
aF-0.4315339863984453
aF1.8025902088982624
aa(lp123
S'CA'
p124
aF-0.8599469916931957
aF-0.2641159651354541
aF-0.03263998220569768
aa(lp125
S'C'
p126
aF-0.32867975430601726
aF0.38520571818055704
aF-1.304120015102266
aa(lp127
S'O'
p128
aF0.7296311334929142
aF1.01425503613344
aF-1.2958121664484417
aa(lp129
S'CB'
p130
aF-1.7783920572383025
aF0.7268034022304786
aF0.7052478608673146
aa(lp131
S'CG1'
p132
aF-2.7403406771026777
aF-0.024275689617409335
aF1.6297336912238258
aa(lp133
S'CG2'
p134
aF-2.5488918277615236
aF1.579672316198522
aF-0.2895117679931675
aa(lp135
S'CD1'
p136
aF-2.855097862272093
aF-1.5007553712780806
aF1.323194072095741
aa(lp137
S'HA'
p138
aF-1.4490355764165528
aF-1.135531671726146
aF-0.3158277391015025
aa(lp139
S'HB'
p140
aF-1.1768636392043783
aF1.3776012517141885
aF1.3386227272813398
aa(lp141
S'1HG1'
p142
aF-2.4113072540612275
aF0.08445438144294026
aF2.663066057003997
aa(lp143
S'2HG1'
p144
aF-3.7348217277285283
aF0.4169075944076266
aF1.557161314640247
aa(lp145
S'1HG2'
p146
aF-3.1939826314627324
aF2.274240397640327
aF0.24817776623860238
aa(lp147
S'2HG2'
p148
aF-1.848860011502819
aF2.1402161811219633
aF-0.9074850940536279
aa(lp149
S'3HG2'
p150
aF-3.1584193535047462
aF0.9367742844907216
aF-0.9250330628272443
aa(lp151
S'1HD1'
p152
aF-3.5543516353698816
aF-1.9634645977499732
aF2.0197407916675787
aa(lp153
S'2HD1'
p154
aF-3.2180393669925103
aF-1.6327612109290137
aF0.3026084938861858
aa(lp155
S'3HD1'
p156
aF-1.8783452827124822
aF-1.9703816783230583
aF1.4251721582463501
aaa(lp157
(lp158
S'N'
p159
aF0.18081074449638873
aF-0.7584016405654884
aF0.8642130213449837
aa(lp160
S'H'
p161
aF0.2284810896884607
aF-0.48692447870865974
aF1.8358681498650928
aa(lp162
S'CA'
p163
aF-0.8310964972539079
aF-0.15138024919001042
aF0.006822932467202225
aa(lp164
S'C'
p165
aF-0.23702997218332772
aF0.27636579581143317
aF-1.3282172484922323
aa(lp166
S'O'
p167
aF0.6588346352523935
aF1.120340572652734
aF-1.3786868551850282
aa(lp168
S'CB'
p169
aF-1.4772020154857946
aF1.0642237081876131
aF0.6958517258555339
aa(lp170
S'CG1'
p171
aF-1.9989424532685374
aF0.6781758763058425
aF2.0817268959490267
aa(lp172
S'CG2'
p173
aF-2.6003711953357493
aF1.6265488244669974
aF-0.16138304772551582
aa(lp174
S'CD1'
p175
aF-1.88776656017537
aF1.7843652371457648
aF3.1066698303407505
aa(lp176
S'HA'
p177
aF-1.6073650795810344
aF-0.8904126854778274
aF-0.18725990089608247
aa(lp178
S'HB'
p179
aF-0.7257002667674901
aF1.8393650826185415
aF0.8469840232597647
aa(lp180
S'1HG1'
p181
aF-3.0462593040084283
aF0.38566986136121484
aF2.008122239999276
aa(lp182
S'2HG1'
p183
aF-1.444797827916823
aF-0.18457165376618462
aF2.4526115593531834
aa(lp184
S'1HG2'
p185
aF-3.0459897039514336
aF2.4853280266534514
aF0.339871804292027
aa(lp186
S'2HG2'
p187
aF-2.2003922631223687
aF1.9379095375230413
aF-1.126546950982712
aa(lp188
S'3HG2'
p189
aF-3.359868099866904
aF0.8600951089616488
aF-0.31412843716705274
aa(lp190
S'1HD1'
p191
aF-2.277517276952355
aF1.4343133680532212
aF4.063209462408671
aa(lp192
S'2HD1'
p193
aF-0.8414281051680828
aF2.068780204114094
aF3.2221382855021794
aa(lp194
S'3HD1'
p195
aF-2.4642043757625056
aF2.646272505963194
aF2.774801927824077
aaa(lp196
(lp197
S'N'
p198
aF0.2257117238055975
aF-0.7072932553930528
aF0.8372344167628345
aa(lp199
S'H'
p200
aF0.22414533883378746
aF-0.45383435877295963
aF1.8150560437287413
aa(lp201
S'CA'
p202
aF-0.8539859858475777
aF-0.23425879892993764
aF-0.020898590857971217
aa(lp203
S'C'
p204
aF-0.31011930931504483
aF0.3565509814615171
aF-1.3155652821539465
aa(lp205
S'O'
p206
aF0.7142482325232311
aF1.038835431634417
aF-1.3158265874796613
aa(lp207
S'CB'
p208
aF-1.7106394215452743
aF0.8191634421670215
aF0.7048441135969764
aa(lp209
S'CG1'
p210
aF-0.8549984818620568
aF1.6143045941994854
aF1.6931508122905046
aa(lp211
S'CG2'
p212
aF-2.8767726999059695
aF0.153961371442631
aF1.4200653256731635
aa(lp213
S'CD1'
p214
aF-0.5053283539588124
aF3.0059714943328384
aF1.216371994886295
aa(lp215
S'HA'
p216
aF-1.4899950204699015
aF-1.0817630769262219
aF-0.27348324331486795
aa(lp217
S'HB'
p218
aF-2.1012575117184698
aF1.532590353593653
aF-0.019996937725108244
aa(lp219
S'1HG1'
p220
aF-1.3828919147960113
aF1.7020087060282139
aF2.643202133132459
aa(lp221
S'2HG1'
p222
aF0.07412792399913577
aF1.0777106862261145
aF1.8854659179305253
aa(lp223
S'1HG2'
p224
aF-3.4723483587689867
aF0.9125427438117693
aF1.9286692344906604
aa(lp225
S'2HG2'
p226
aF-3.4983431485115446
aF-0.36796473269201724
aF0.6942572799454401
aa(lp227
S'3HG2'
p228
aF-2.4968962559799506
aF-0.558302989330411
aF2.151781368768219
aa(lp229
S'1HD1'
p230
aF0.10248632470717922
aF3.506784908003781
aF1.9696397036628017
aa(lp231
S'2HD1'
p232
aF0.05521716530441578
aF2.9397372944235167
aF0.2828701193679364
aa(lp233
S'3HD1'
p234
aF-1.4192365236293947
aF3.5743337105225805
aF1.0511895242144484
aaa(lp235
(lp236
S'N'
p237
aF0.2580802779375697
aF-0.6631179958872893
aF0.8303982741251877
aa(lp238
S'H'
p239
aF0.2036062898098211
aF-0.4610797461131819
aF1.8176911031509397
aa(lp240
S'CA'
p241
aF-0.8498573323308656
aF-0.2778059094618212
aF-0.037107834099487313
aa(lp242
S'C'
p243
aF-0.34846107437061385
aF0.4103443476454385
aF-1.298870892738735
aa(lp244
S'O'
p245
aF0.7366318389540882
aF0.9916593038168564
aF-1.312110650437908
aa(lp246
S'CB'
p247
aF-1.8263545968472912
aF0.6543304527740024
aF0.7034304124413004
aa(lp248
S'CG1'
p249
aF-2.881374483911884
aF1.1983123013011316
aF-0.26318987824745843
aa(lp250
S'CG2'
p251
aF-1.072770477461178
aF1.7943365207667235
aF1.370766264879059
aa(lp252
S'CD1'
p253
aF-2.6204516698531335
aF2.617876043402693
aF-0.7159073035960719
aa(lp254
S'HA'
p255
aF-1.3882767600172758
aF-1.1780812744627662
aF-0.3299862851030646
aa(lp256
S'HB'
p257
aF-2.361210934481146
aF0.0889935286631311
aF1.4671429632938835
aa(lp258
S'1HG1'
p259
aF-2.927714736880872
aF0.5618206925007956
aF-1.1468595070576435
aa(lp260
S'2HG1'
p261
aF-3.861883647539509
aF1.1676942525639935
aF0.2118736071245355
aa(lp262
S'1HG2'
p263
aF-1.778015011774847
aF2.4433556017562976
aF1.887743420401569
aa(lp264
S'2HG2'
p265
aF-0.35984457954226956
aF1.387751809228259
aF2.0869474824627816
aa(lp266
S'3HG2'
p267
aF-0.5384568899816564
aF2.368761217325201
aF0.6135435379232014
aa(lp268
S'1HD1'
p269
aF-3.409825432597388
aF2.9330244570950854
aF-1.3984265634255257
aa(lp270
S'2HD1'
p271
aF-2.6051870052762522
aF3.2782243985901562
aF0.15132567537588026
aa(lp272
S'3HD1'
p273
aF-1.6596960703812589
aF2.6651611519803033
aF-1.2265938969096648
aaa(lp274
(lp275
S'N'
p276
aF0.1743688565581193
aF-0.7639237064991494
aF0.8542270146226992
aa(lp277
S'H'
p278
aF0.25118823236156385
aF-0.446657953064979
aF1.8100885240470599
aa(lp279
S'CA'
p280
aF-0.850781781002052
aF-0.18538542205371167
aF-0.006010524514546756
aa(lp281
S'C'
p282
aF-0.2551986248348505
aF0.2980392453092086
aF-1.3228314292221577
aa(lp283
S'O'
p284
aF0.6804233169172355
aF1.0979278363086198
aF-1.3354735849330814
aa(lp285
S'CB'
p286
aF-1.5625330863576166
aF0.984475963867079
aF0.6973218414804594
aa(lp287
S'CG1'
p288
aF-3.0209228476109584
aF0.6248078261856114
aF0.9873910315165433
aa(lp289
S'CG2'
p290
aF-1.4798146180887908
aF2.2439774478388173
aF-0.15141938344044595
aa(lp291
S'CD1'
p292
aF-3.8099588105461497
aF1.7445871414239205
aF1.6282104556598418
aa(lp293
S'HA'
p294
aF-1.5894810014004288
aF-0.9544930494468216
aF-0.22912242305107344
aa(lp295
S'HB'
p296
aF-1.086672222637832
aF1.1734425814955323
aF1.6590333656923368
aa(lp297
S'1HG1'
p298
aF-3.518161438599495
aF0.3442294500373283
aF0.059165003832697294
aa(lp299
S'2HG1'
p300
aF-3.05796216458703
aF-0.23964684767952538
aF1.6517374816693762
aa(lp301
S'1HG2'
p302
aF-1.9884090671655335
aF3.0612121013780644
aF0.3601665892199818
aa(lp303
S'2HG2'
p304
aF-0.4349964168408722
aF2.508585003536727
aF-0.30832307303573925
aa(lp305
S'3HG2'
p306
aF-1.9575507583174159
aF2.065566556498014
aF-1.1145661708879457
aa(lp307
S'1HD1'
p308
aF-4.8335871985817205
aF1.4136974958960902
aF1.80365265608542
aa(lp309
S'2HD1'
p310
aF-3.3494622295348586
aF2.0176294498128664
aF2.5775843528713356
aa(lp311
S'3HD1'
p312
aF-3.817905155802884
aF2.609023941770043
aF0.9653772384743836
aaa(lp313
(lp314
S'N'
p315
aF0.20439273076832148
aF-0.732668636339874
aF0.8482378917101687
aa(lp316
S'H'
p317
aF0.23007796876210457
aF-0.46409687476801464
aF1.8214611330250332
aa(lp318
S'CA'
p319
aF-0.8480319737546471
aF-0.1976200829932377
aF-0.00808172553060875
aa(lp320
S'C'
p321
aF-0.2780768288571126
aF0.31836767686081746
aF-1.3243266740434667
aa(lp322
S'O'
p323
aF0.6916381030813143
aF1.0760179172402888
aF-1.3372906251611645
aa(lp324
S'CB'
p325
aF-1.6102179684466225
aF0.9364463242941763
aF0.7015434525441349
aa(lp326
S'CG1'
p327
aF-0.7555184460201998
aF1.5344799975833523
aF1.8218998476150654
aa(lp328
S'CG2'
p329
aF-2.932732481774577
aF0.4254439599947971
aF1.2507482829283747
aa(lp330
S'CD1'
p331
aF-1.3334207758307464
aF1.333776792537999
aF3.203936070253267
aa(lp332
S'HA'
p333
aF-1.5512248284006875
aF-0.9985124773717109
aF-0.23223609600211312
aa(lp334
S'HB'
p335
aF-1.8081708852160623
aF1.7401478370893213
aF-0.007210751022416473
aa(lp336
S'1HG1'
p337
aF0.23805819213563012
aF1.087811726129069
aF1.8001301579755737
aa(lp338
S'2HG1'
p339
aF-0.6350627351010966
aF2.605421761917382
aF1.6561314576485773
aa(lp340
S'1HG2'
p341
aF-3.458587386095303
aF1.2395017697845376
aF1.7503446219083483
aa(lp342
S'2HG2'
p343
aF-3.544654029819986
aF0.04648417694522866
aF0.4337571557619157
aa(lp344
S'3HG2'
p345
aF-2.7445709329504195
aF-0.3760343839307052
aF1.9651758130267791
aa(lp346
S'1HD1'
p347
aF-0.6726178594733861
aF1.785654527583256
aF3.943813099430402
aa(lp348
S'2HD1'
p349
aF-2.3152314109561676
aF1.804950353253834
aF3.259500019329763
aa(lp350
S'3HD1'
p351
aF-1.4301697080970874
aF0.26833598509504036
aF3.4067007859723333
aaa(lp352
(lp353
S'N'
p354
aF0.1802938348868503
aF-0.7585623475024647
aF0.8645109935988913
aa(lp355
S'H'
p356
aF0.2286123622031722
aF-0.4876974697497056
aF1.8365025254128053
aa(lp357
S'CA'
p358
aF-0.8309516976257827
aF-0.15047094718199433
aF0.0070377742914108955
aa(lp359
S'C'
p360
aF-0.23592009336114195
aF0.2756644508987047
aF-1.328481230601015
aa(lp361
S'O'
p362
aF0.6579655938969241
aF1.1210663135354715
aF-1.3795700627020955
aa(lp363
S'CB'
p364
aF-1.4747521536393153
aF1.0664172341479927
aF0.6953001711838808
aa(lp365
S'CG1'
p366
aF-2.026850621890065
aF2.0397788139016733
aF-0.3490812325257991
aa(lp367
S'CG2'
p368
aF-0.467068333790964
aF1.7631050205179284
aF1.596814146415986
aa(lp369
S'CD1'
p370
aF-2.27982792358472
aF3.4305673841886146
aF0.18630894069976878
aa(lp371
S'HA'
p372
aF-1.6077483656212657
aF-0.8889900013132139
aF-0.18711047647650048
aa(lp373
S'HB'
p374
aF-2.3204329644334845
aF0.7377107927295474
aF1.2984063323400539
aa(lp375
S'1HG1'
p376
aF-1.3278209136333703
aF2.11646495188944
aF-1.1809410183160995
aa(lp377
S'2HG1'
p378
aF-2.9664775597543587
aF1.6531461204881452
aF-0.7464492961941954
aa(lp379
S'1HG2'
p380
aF-0.9390462475096403
aF2.6214812057959147
aF2.0749523832360244
aa(lp381
S'2HG2'
p382
aF-0.12014902442536339
aF1.0678820832657456
aF2.3596313331047374
aa(lp383
S'3HG2'
p384
aF0.3811654567899027
aF2.100756308387394
aF1.0010885012428858
aa(lp385
S'1HD1'
p386
aF-2.6705039690183514
aF4.062059970004766
aF-0.6119030246224556
aa(lp387
S'2HD1'
p388
aF-3.0057538484015236
aF3.381940861684068
aF0.9994270212932237
aa(lp389
S'3HD1'
p390
aF-1.3475583464414147
aF3.8528315214135165
aF0.557942407904688
aaa.