(lp0
(lp1
(lp2
S'N'
p3
aF0.23239999999999927
aF-0.024599999999997735
aF1.3796
aa(lp4
S'H'
p5
aF-0.6576000000000004
aF0.22740000000000116
aF1.7845999999999993
aa(lp6
S'CA'
p7
aF0.2613999999999992
aF-0.6605999999999987
aF0.06760000000000055
aa(lp8
S'C'
p9
aF0.2663999999999991
aF0.37640000000000207
aF-1.0473999999999997
aa(lp10
S'O'
p11
aF-0.10260000000000069
aF0.08140000000000214
aF-2.1844
aa(lp12
S'CB'
p13
aF-0.9426000000000005
aF-1.602599999999999
aF-0.11240000000000006
aa(lp14
S'CG1'
p15
aF-2.2526
aF-0.8435999999999986
aF0.11560000000000059
aa(lp16
S'CG2'
p17
aF-0.8386000000000005
aF-2.786599999999998
aF0.8366000000000007
aa(lp18
S'CD1'
p19
aF-3.4906000000000006
aF-1.666599999999999
aF-0.16139999999999954
aa(lp20
S'HA'
p21
aF1.1743999999999986
aF-1.2495999999999992
aF-0.010399999999999743
aa(lp22
S'HB'
p23
aF-0.9666000000000006
aF-1.9715999999999987
aF-1.1373999999999995
aa(lp24
S'1HG1'
p25
aF-2.297600000000001
aF-0.49659999999999904
aF1.1476000000000006
aa(lp26
S'2HG1'
p27
aF-2.2796000000000003
aF0.037400000000001654
aF-0.5253999999999994
aa(lp28
S'1HG2'
p29
aF-1.6976000000000004
aF-3.4425999999999988
aF0.6966000000000001
aa(lp30
S'2HG2'
p31
aF0.07739999999999903
aF-3.339599999999999
aF0.6286000000000005
aa(lp32
S'3HG2'
p33
aF-0.8196000000000003
aF-2.4285999999999976
aF1.8656000000000006
aa(lp34
S'1HD1'
p35
aF-4.3786000000000005
aF-1.060599999999999
aF0.021600000000000286
aa(lp36
S'2HD1'
p37
aF-3.4846000000000004
aF-1.9945999999999984
aF-1.2013999999999996
aa(lp38
S'3HD1'
p39
aF-3.5046000000000004
aF-2.5355999999999987
aF0.49460000000000015
aaa.