(lp0
(lp1
(lp2
S'N'
p3
aF0.4624736213960609
aF-1.0374163067491442
aF-0.17657575146022444
aa(lp4
S'H'
p5
aF0.7068404523572025
aF-1.560075582282551
aF-1.0052168882769468
aa(lp6
S'CA'
p7
aF0.661542338879925
aF0.40706202030456134
aF-0.16428720429425514
aa(lp8
S'C'
p9
aF-0.6432728344635821
aF1.140231610584005
aF0.12307792111602939
aa(lp10
S'O'
p11
aF-1.1875835781697295
aF1.0501982581431457
aF1.223001922915384
aa(lp12
S'CB'
p13
aF1.2398039877058908
aF0.8944865696976122
aF-1.505129392676644
aa(lp14
S'CG1'
p15
aF0.38827745742029884
aF0.38348067277553477
aF-2.670015885658155
aa(lp16
S'CG2'
p17
aF2.6833210318169822
aF0.44047357122363817
aF-1.6569903177936895
aa(lp18
S'CD1'
p19
aF0.8637277264969714
aF0.8542567387058396
aF-4.026815774139167
aa(lp20
S'HA'
p21
aF1.370032748798241
aF0.652115203421525
aF0.626262779260226
aa(lp22
S'HB'
p23
aF1.2045951539609687
aF1.9824345908235717
aF-1.5425919253515685
aa(lp24
S'1HG1'
p25
aF0.38520811464558313
aF-0.7061446853194122
aF-2.6689397205269243
aa(lp26
S'2HG1'
p27
aF-0.6428340643816279
aF0.7119894553534145
aF-2.5393062480008677
aa(lp28
S'1HG2'
p29
aF3.0761144755941645
aF0.7922502666538886
aF-2.611838717843576
aa(lp30
S'2HG2'
p31
aF3.280627426182618
aF0.851061997042523
aF-0.8449415410360759
aa(lp32
S'3HG2'
p33
aF2.7273823645537276
aF-0.6482052679395385
aF-1.626168505455857
aa(lp34
S'1HD1'
p35
aF0.21038645824643654
aF0.45183136064165813
aF-4.8010696099647685
aa(lp36
S'2HD1'
p37
aF0.8401611625570903
aF1.944153696233234
aF-4.061170381349862
aa(lp38
S'3HD1'
p39
aF1.882005986657315
aF0.507232144055401
aF-4.195333771968916
aaa(lp40
(lp41
S'N'
p42
aF0.6237254524819941
aF-1.0450621861154943
aF-0.14544011509083962
aa(lp43
S'H'
p44
aF0.551507015736364
aF-1.4985216260846113
aF-1.0453690198921648
aa(lp45
S'CA'
p46
aF0.7032383936039992
aF0.4098063356415524
aF-0.08707679960419157
aa(lp47
S'C'
p48
aF-0.676235663393032
aF1.0309779332683915
aF0.08383596286213557
aa(lp49
S'O'
p50
aF-1.202235198429326
aF1.1027995432901583
aF1.1940499717250583
aa(lp51
S'CB'
p52
aF1.3678357710696927
aF0.9745334831402962
aF-1.3560904223615102
aa(lp53
S'CG1'
p54
aF2.798784259230903
aF0.44801316561255133
aF-1.4884867193627027
aa(lp55
S'CG2'
p56
aF1.3562678446947531
aF2.4949184302384966
aF-1.330618953684081
aa(lp57
S'CD1'
p58
aF3.427854039856412
aF0.7202474373849994
aF-2.837009508334509
aa(lp59
S'HA'
p60
aF1.3115263842596998
aF0.6884669646789833
aF0.7724812113808226
aa(lp61
S'HB'
p62
aF0.8237179158727442
aF0.6297697758126172
aF-2.235182423101789
aa(lp63
S'1HG1'
p64
aF3.426514701010327
aF0.9019731221620672
aF-0.7219563218487031
aa(lp65
S'2HG1'
p66
aF2.8082381059879546
aF-0.6290301519508829
aF-1.3213660537541547
aa(lp67
S'1HG2'
p68
aF1.8297222672747606
aF2.8772119307424733
aF-2.235254564972874
aa(lp69
S'2HG2'
p70
aF0.32770060440164445
aF2.849977427766624
aF-1.2829477834641325
aa(lp71
S'3HG2'
p72
aF1.9034054600039094
aF2.8485858887716864
aF-0.45765918445729536
aa(lp73
S'1HD1'
p74
aF4.440971151442917
aF0.31716547501380604
aF-2.8532468055727365
aa(lp75
S'2HD1'
p76
aF2.834245538080813
aF0.24294413051638244
aF-3.6175320896042695
aa(lp77
S'3HD1'
p78
aF3.46199853863267
aF1.7945081994239067
aF-3.0111616497135483
aaa(lp79
(lp80
S'N'
p81
aF0.61943050484074
aF-1.030423146236786
aF-0.13431600564426094
aa(lp82
S'H'
p83
aF0.5263354162460714
aF-1.5017512976534777
aF-1.0222332755301857
aa(lp84
S'CA'
p85
aF0.716327852408965
aF0.42506405428902283
aF-0.10955892302564219
aa(lp86
S'C'
p87
aF-0.6528909058130948
aF1.0637852851900982
aF0.08368232859796021
aa(lp88
S'O'
p89
aF-1.2092028676826807
aF1.04332510441114
aF1.1824258756021309
aa(lp90
S'CB'
p91
aF1.3521416531493162
aF0.954765668751562
aF-1.4071104674445483
aa(lp92
S'CG1'
p93
aF0.7342155388557509
aF0.26459930233999307
aF-2.625318866671999
aa(lp94
S'CG2'
p95
aF2.8591228494895695
aF0.7515540044213329
aF-1.3831377046284645
aa(lp96
S'CD1'
p97
aF1.4413921152513804
aF-1.0087790574395252
aF-3.0301173877199172
aa(lp98
S'HA'
p99
aF1.3495282700898796
aF0.7145261771416532
aF0.728348536352996
aa(lp100
S'HB'
p101
aF1.1410410847305439
aF2.0196046478997984
aF-1.5074623408690746
aa(lp102
S'1HG1'
p103
aF-0.30849593269110986
aF0.025309560069195713
aF-2.418746345874685
aa(lp104
S'2HG1'
p105
aF0.7495950090666104
aF0.9457056085209656
aF-3.476903079522698
aa(lp106
S'1HG2'
p107
aF3.2926492463190375
aF1.131000569545312
aF-2.3075267825970847
aa(lp108
S'2HG2'
p109
aF3.285097919285993
aF1.2877723574558284
aF-0.5355339541761052
aa(lp110
S'3HG2'
p111
aF3.0812668996449917
aF-0.3121210624187435
aF-1.2883253997134183
aa(lp112
S'1HD1'
p113
aF0.9466568936079462
aF-1.4396224303826328
aF-3.900593721951025
aa(lp114
S'2HD1'
p115
aF2.480442531762203
aF-0.7860294779933685
aF-3.276527324218521
aa(lp116
S'3HD1'
p117
aF1.4082409168022223
aF-1.719666090814792
aF-2.2057778801016683
aaa(lp118
(lp119
S'N'
p120
aF0.49924217793288306
aF-1.059307758117276
aF-0.17989341668162293
aa(lp121
S'H'
p122
aF0.7056818389546595
aF-1.5407097786629573
aF-1.0436588715197692
aa(lp123
S'CA'
p124
aF0.6566014033948937
aF0.3889646469871234
aF-0.1198424818419831
aa(lp125
S'C'
p126
aF-0.6818149069863528
aF1.0790351597500956
aF0.10969720431383626
aa(lp127
S'O'
p128
aF-1.179710513296061
aF1.132017730043011
aF1.2336975657295453
aa(lp129
S'CB'
p130
aF1.2971333608029674
aF0.9264868069997789
aF-1.411914360273797
aa(lp131
S'CG1'
p132
aF1.3858481572904666
aF2.454650407593703
aF-1.3687554132987725
aa(lp133
S'CG2'
p134
aF0.5050550891461363
aF0.46991261205388296
aF-2.6279049096115132
aa(lp135
S'CD1'
p136
aF1.90547007177951
aF2.9989525131995842
aF-0.05796851840862671
aa(lp137
S'HA'
p138
aF1.3121214846875704
aF0.6307009692292983
aF0.716577851202874
aa(lp139
S'HB'
p140
aF2.317755712846333
aF0.5534156052198378
aF-1.4943879494520038
aa(lp141
S'1HG1'
p142
aF2.0408530898925465
aF2.803448686938504
aF-2.166561341199192
aa(lp143
S'2HG1'
p144
aF0.3989336826602978
aF2.881119823828827
aF-1.5479331373091187
aa(lp145
S'1HG2'
p146
aF0.9720492905368154
aF0.8598611483965233
aF-3.5328958238596684
aa(lp147
S'2HG2'
p148
aF0.4926002730334593
aF-0.6177467138160236
aF-2.665641740477678
aa(lp149
S'3HG2'
p150
aF-0.5165811526819823
aF0.842696836584298
aF-2.5574683330013217
aa(lp151
S'1HD1'
p152
aF1.9392829443666895
aF4.088108949336095
aF-0.10456194358666893
aa(lp153
S'2HD1'
p154
aF1.2432163629516497
aF2.6906982278172786
aF0.7521921574373325
aa(lp155
S'3HD1'
p156
aF2.907125453481158
aF2.612918548147391
aF0.12432046681597764
aaa(lp157
(lp158
S'N'
p159
aF0.6129977878069114
aF-1.051551272355976
aF-0.15043002941684064
aa(lp160
S'H'
p161
aF0.5742839865872826
aF-1.5012176630805363
aF-1.0538122179992166
aa(lp162
S'CA'
p163
aF0.69526805204053
aF0.40300325509871254
aF-0.0836413306422557
aa(lp164
S'C'
p165
aF-0.6846953582456431
aF1.0252518214734285
aF0.08630486059476239
aa(lp166
S'O'
p167
aF-1.1978544681890992
aF1.1245138588643593
aF1.20157871746357
aa(lp168
S'CB'
p169
aF1.3633750485553828
aF0.9727799067948284
aF-1.3477855504169778
aa(lp170
S'CG1'
p171
aF2.572238571135603
aF1.8336465832971571
aF-0.9707463627152382
aa(lp172
S'CG2'
p173
aF0.3632515696072862
aF1.7821787366307151
aF-2.1589603534755195
aa(lp174
S'CD1'
p175
aF2.979217222545538
aF2.818411846171201
aF-2.0425745925791334
aa(lp176
S'HA'
p177
aF1.3005245879826233
aF0.6755446041097284
aF0.7797402413052985
aa(lp178
S'HB'
p179
aF1.7381752589112447
aF0.1553037146374981
aF-1.961680067067152
aa(lp180
S'1HG1'
p181
aF2.3526247099377526
aF2.390521584520933
aF-0.05993903677753423
aa(lp182
S'2HG1'
p183
aF3.4264136926329143
aF1.1880519774177927
aF-0.7596575977974172
aa(lp184
S'1HG2'
p185
aF0.8522585687881916
aF2.1791496522638334
aF-3.0489998171474912
aa(lp186
S'2HG2'
p187
aF-0.46644206604409255
aF1.1421391489453923
aF-2.456202337648667
aa(lp188
S'3HG2'
p189
aF-0.014075000055993936
aF2.607115263768721
aF-1.5542832611199136
aa(lp190
S'1HD1'
p191
aF3.843041863901393
aF3.3906900210464745
aF-1.702560358247881
aa(lp192
S'2HD1'
p193
aF3.2388726615243324
aF2.2781991264725874
aF-2.9535829737066366
aa(lp194
S'3HD1'
p195
aF2.15211064735381
aF3.4974251978321997
aF-2.245208700124496
aaa(lp196
(lp197
S'N'
p198
aF0.5215941383154125
aF-0.9829899842747869
aF-0.11403528265611224
aa(lp199
S'H'
p200
aF0.5565977507617478
aF-1.5526152493275185
aF-0.9476315905469973
aa(lp201
S'CA'
p202
aF0.7060582731009702
aF0.45826104867640194
aF-0.23076335552181038
aa(lp203
S'C'
p204
aF-0.5628309827438525
aF1.2080295923972428
aF0.15489476671641172
aa(lp205
S'O'
p206
aF-1.2214191794342661
aF0.8693145925286492
aF1.1375354620084837
aa(lp207
S'CB'
p208
aF1.1178727958888433
aF0.845287529411246
aF-1.6624984225055675
aa(lp209
S'CG1'
p210
aF1.8106187304180623
aF2.2101791818542424
aF-1.6679616893554263
aa(lp211
S'CG2'
p212
aF-0.09592320344285421
aF0.8574536297107364
aF-2.5796850218461134
aa(lp213
S'CD1'
p214
aF3.288394009453994
aF2.145686776112216
aF-1.3550224711805603
aa(lp215
S'HA'
p216
aF1.5009170467647275
aF0.7605614965278418
aF0.4506131697258444
aa(lp217
S'HB'
p218
aF1.8399025921925602
aF0.12373163721129399
aF-2.0411012060150555
aa(lp219
S'1HG1'
p220
aF1.6887378343529773
aF2.677179549827279
aF-2.6449579552067446
aa(lp221
S'2HG1'
p222
aF1.336430747545901
aF2.862642930123053
aF-0.9346044680132961
aa(lp223
S'1HG2'
p224
aF0.21300705504262762
aF1.1334945203641293
aF-3.587490817661646
aa(lp225
S'2HG2'
p226
aF-0.5473027062851287
aF-0.13290330134971517
aF-2.597480906606119
aa(lp227
S'3HG2'
p228
aF-0.8229601115548101
aF1.5812689392410437
aF-2.211844387967022
aa(lp229
S'1HD1'
p230
aF3.7092430468883744
aF3.1510653885963693
aF-1.377292029999548
aa(lp231
S'2HD1'
p232
aF3.4326019883641536
aF1.7136347702554167
aF-0.36416570905307777
aa(lp233
S'3HD1'
p234
aF3.790535533582589
aF1.5267333279081265
aF-2.097416247219977
aaa(lp235
(lp236
S'N'
p237
aF0.4880586051482647
aF-1.0204938369484593
aF-0.15171594079375914
aa(lp238
S'H'
p239
aF0.6515703513431391
aF-1.5559124956979036
aF-0.9922132749473196
aa(lp240
S'CA'
p241
aF0.6797311378733752
aF0.42468051194710144
aF-0.18013673411528455
aa(lp242
S'C'
p243
aF-0.6200118368407632
aF1.1575780016331305
aF0.1249787674462898
aa(lp244
S'O'
p245
aF-1.1993482575240213
aF0.9941478190661347
aF1.1990871824100924
aa(lp246
S'CB'
p247
aF1.2176675197361413
aF0.8797501748324394
aF-1.548478815244795
aa(lp248
S'CG1'
p249
aF1.706744776713057
aF-0.32396460966142765
aF-2.3580991919021623
aa(lp250
S'CG2'
p251
aF2.336096003761617
aF1.894496389865663
aF-1.3701509004467303
aa(lp252
S'CD1'
p253
aF0.9334745301818899
aF-0.5560136338396598
aF-3.636668852189611
aa(lp254
S'HA'
p255
aF1.408516496224729
aF0.6919439508236116
aF0.5829806590114834
aa(lp256
S'HB'
p257
aF0.4122599386839566
aF1.3386871278761017
aF-2.1216014038021265
aa(lp258
S'1HG1'
p259
aF2.75656288675507
aF-0.18775451096910797
aF-2.614403200536447
aa(lp260
S'2HG1'
p261
aF1.6341918092719858
aF-1.2258406733690925
aF-1.7486005187069924
aa(lp262
S'1HG2'
p263
aF2.705821657760594
aF2.2053855642751357
aF-2.346959920680473
aa(lp264
S'2HG2'
p265
aF1.957136161534414
aF2.7631203906766237
aF-0.83216690143347
aa(lp266
S'3HG2'
p267
aF3.1491150620140456
aF1.4430292201601231
aF-0.8015302838697383
aa(lp268
S'1HD1'
p269
aF1.33805167040675
aF-1.4255703756778284
aF-4.153324840571878
aa(lp270
S'2HD1'
p271
aF-0.11679467712024905
aF-0.7299382423728173
aF-3.399945759231765
aa(lp272
S'3HD1'
p273
aF1.020961417397867
aF0.320231015414782
aF-4.277885164535315
aaa(lp274
(lp275
S'N'
p276
aF0.5247856542200278
aF-1.006563093935683
aF-0.12840621110944778
aa(lp277
S'H'
p278
aF0.5880236617288972
aF-1.545166812848145
aF-0.9806778745947293
aa(lp279
S'CA'
p280
aF0.6995987094953349
aF0.43988715218778746
aF-0.1888055587438557
aa(lp281
S'C'
p282
aF-0.6022802355846933
aF1.1659299605308142
aF0.12482966378492988
aa(lp283
S'O'
p284
aF-1.210127789859563
aF0.9459127940652337
aF1.1730599806631028
aa(lp285
S'CB'
p286
aF1.2085416548208157
aF0.8747037046509484
aF-1.5746585971672946
aa(lp287
S'CG1'
p288
aF0.8389697223131124
aF-0.1704093304544055
aF-2.63159063403409
aa(lp289
S'CG2'
p290
aF2.7135426782455085
aF1.0961206296668808
aF-1.5441550759424625
aa(lp291
S'CD1'
p292
aF1.8815281767101202
aF-0.3406260313582229
aF-3.713061920707362
aa(lp293
S'HA'
p294
aF1.4390551651845902
aF0.7302967151788092
aF0.5562128543593727
aa(lp295
S'HB'
p296
aF0.7200399321877623
aF1.804267556238817
aF-1.8668077248498458
aa(lp297
S'1HG1'
p298
aF0.6857298791645839
aF-1.1349193006533633
aF-2.1495822649588012
aa(lp299
S'2HG1'
p300
aF-0.10139177112763298
aF0.10970437803167923
aF-3.106975290887953
aa(lp301
S'1HG2'
p302
aF3.056470231237363
aF1.4017209527343164
aF-2.5326115170364045
aa(lp303
S'2HG2'
p304
aF2.9515134593106214
aF1.873652311540121
aF-0.8204007039054877
aa(lp305
S'3HG2'
p306
aF3.2117248108698173
aF0.1693515654487804
aF-1.2577049679965835
aa(lp307
S'1HD1'
p308
aF1.548436319301475
aF-1.09648004145544
aF-4.424046822057601
aa(lp309
S'2HD1'
p310
aF2.0261704763888653
aF0.6076937513532001
aF-4.232177702457259
aa(lp311
S'3HD1'
p312
aF2.8224894563440133
aF-0.6550635420929979
aF-3.2636679709565195
aaa(lp313
(lp314
S'N'
p315
aF0.532555638230833
aF-0.9981705421425487
aF-0.12092915689526126
aa(lp316
S'H'
p317
aF0.5662330400153563
aF-1.5442921257574223
aF-0.9704631753542254
aa(lp318
S'CA'
p319
aF0.706279560520582
aF0.44769070003971223
aF-0.19866761056801668
aa(lp320
S'C'
p321
aF-0.5906437311462439
aF1.1762367358096264
aF0.13061441034417648
aa(lp322
S'O'
p323
aF-1.2144245076205242
aF0.9185352320506311
aF1.159445532473313
aa(lp324
S'CB'
p325
aF1.1905081524794083
aF0.8682254453435365
aF-1.597795266903146
aa(lp326
S'CG1'
p327
aF1.5771713138561767
aF-0.3633759815261024
aF-2.4212632535102667
aa(lp328
S'CG2'
p329
aF2.3653711128510544
aF1.8282025608640362
aF-1.487495847032851
aa(lp330
S'CD1'
p331
aF1.8152436986565332
aF-0.06891171536065333
aF-3.8851547575320367
aa(lp332
S'HA'
p333
aF1.4581323421015715
aF0.7451037658721236
aF0.5305318567254604
aa(lp334
S'HB'
p335
aF0.3792504690924223
aF1.3615856393788268
aF-2.1305622798525596
aa(lp336
S'1HG1'
p337
aF2.483670633492607
aF-0.8060849434420324
aF-2.010399822991063
aa(lp338
S'2HG1'
p339
aF0.7870525059184144
aF-1.1114823202592907
aF-2.349220382313801
aa(lp340
S'1HG2'
p341
aF2.6960874399313375
aF2.1147782791775946
aF-2.4858555360605994
aa(lp342
S'2HG2'
p343
aF2.058362447199939
aF2.716810499843872
aF-0.9381019901349728
aa(lp344
S'3HG2'
p345
aF3.1856307132564683
aF1.3409039187897462
aF-0.960041373760223
aa(lp346
S'1HD1'
p347
aF2.083767686206801
aF-0.989539588119596
aF-4.402647934307772
aa(lp348
S'2HD1'
p349
aF0.9065411296414517
aF0.34367070368021607
aF-4.325843296711099
aa(lp350
S'3HD1'
p351
aF2.6257902698732876
aF0.6514877782947841
aF-3.983561187351253
aaa(lp352
(lp353
S'N'
p354
aF0.6601105469117451
aF-1.0184639822315105
aF-0.1293787569617209
aa(lp355
S'H'
p356
aF0.4615501672527227
aF-1.485700499298288
aF-1.002301326694525
aa(lp357
S'CA'
p358
aF0.7376265062799549
aF0.4374442781679152
aF-0.10606752910944067
aa(lp359
S'C'
p360
aF-0.6409187029556367
aF1.0598722974804229
aF0.07625489646750805
aa(lp361
S'O'
p362
aF-1.2183685174888201
aF1.0068479058815538
aF1.1614927162983189
aa(lp363
S'CB'
p364
aF1.3774289190308515
aF0.9746128755184569
aF-1.3995685034649286
aa(lp365
S'CG1'
p366
aF2.9005915279196897
aF0.826545198114204
aF-1.3430916959146226
aa(lp367
S'CG2'
p368
aF0.9891442626895646
aF2.4280470656524566
aF-1.6209461911380088
aa(lp369
S'CD1'
p370
aF3.5176749522121145
aF1.3502194853687024
aF-0.06630499159315129
aa(lp371
S'HA'
p372
aF1.3605422101299014
aF0.7373261273374241
aF0.7367722554497624
aa(lp373
S'HB'
p374
aF1.034863731456925
aF0.38341298257875445
aF-2.2471396089484617
aa(lp375
S'1HG1'
p376
aF3.1678762202504096
aF-0.22478833616413507
aF-1.445001915949041
aa(lp377
S'2HG1'
p378
aF3.3490403988577437
aF1.359955849924012
aF-2.1811821962128937
aa(lp379
S'1HG2'
p380
aF1.4497241664958467
aF2.7922629048397707
aF-2.538836148973306
aa(lp381
S'2HG2'
p382
aF-0.09438534630886641
aF2.506504306187287
aF-1.7042411359507539
aa(lp383
S'3HG2'
p384
aF1.3325159836004883
aF3.0295830529823555
aF-0.7790772481155961
aa(lp385
S'1HD1'
p386
aF4.5988423846306015
aF1.2111581346969196
aF-0.10161680019829822
aa(lp387
S'2HD1'
p388
aF3.292331390444947
aF2.4119012595342224
aF0.03889999676214195
aa(lp389
S'3HD1'
p390
aF3.1094579637217032
aF0.8069240934700498
aF0.7848119260212901
aaa.