(lp0
(lp1
(lp2
S'N'
p3
aF-0.663999999999999
aF-0.12559999999999719
aF-1.2457999999999942
aa(lp4
S'H'
p5
aF0.004999999999999726
aF0.43340000000000034
aF-1.7568000000000041
aa(lp6
S'CA'
p7
aF-0.2580000000000001
aF-0.7466000000000065
aF0.009200000000001473
aa(lp8
S'C'
p9
aF0.5149999999999995
aF0.23140000000000213
aF0.8842000000000015
aa(lp10
S'O'
p11
aF0.402
aF0.20740000000000122
aF2.1091999999999955
aa(lp12
S'CB'
p13
aF0.6039999999999999
aF-1.9966000000000066
aF-0.24979999999999888
aa(lp14
S'CG1'
p15
aF-0.06800000000000068
aF-2.9025999999999983
aF-1.2847999999999957
aa(lp16
S'CG2'
p17
aF0.8470000000000002
aF-2.752600000000007
aF1.047199999999998
aa(lp18
S'CD1'
p19
aF0.7400000000000009
aF-4.131599999999997
aF-1.6348000000000042
aa(lp20
S'HA'
p21
aF-1.1539999999999992
aF-1.0515999999999992
aF0.5491999999999936
aa(lp22
S'HB'
p23
aF1.5630000000000004
aF-1.6956000000000047
aF-0.6687999999999957
aa(lp24
S'1HG1'
p25
aF-1.0379999999999996
aF-3.2265999999999964
aF-0.9097999999999954
aa(lp26
S'2HG1'
p27
aF-0.24399999999999905
aF-2.339599999999996
aF-2.2017999999999973
aa(lp28
S'1HG2'
p29
aF1.4570000000000005
aF-3.633600000000007
aF0.8462000000000048
aa(lp30
S'2HG2'
p31
aF1.365
aF-2.1056000000000012
aF1.7542000000000058
aa(lp32
S'3HG2'
p33
aF-0.10799999999999983
aF-3.062599999999995
aF1.472199999999995
aa(lp34
S'1HD1'
p35
aF0.19900000000000057
aF-4.723599999999996
aF-2.3737999999999944
aa(lp36
S'2HD1'
p37
aF1.703
aF-3.8286000000000002
aF-2.046799999999996
aa(lp38
S'3HD1'
p39
aF0.8989999999999998
aF-4.729599999999996
aF-0.7388000000000031
aaa(lp40
(lp41
S'N'
p42
aF-0.6721386753375157
aF-0.07401890434995084
aF-1.2332886129833298
aa(lp43
S'H'
p44
aF0.008075885444961517
aF0.34547172749975935
aF-1.8500379632787518
aa(lp45
S'CA'
p46
aF-0.21686954942118514
aF-0.7059718447649677
aF0.0005940816388937398
aa(lp47
S'C'
p48
aF0.42859706124571667
aF0.3109196004525332
aF0.933096437216429
aa(lp49
S'O'
p50
aF0.4523352780680525
aF0.12359942116265116
aF2.1496360574067825
aa(lp51
S'CB'
p52
aF0.7837453510531136
aF-1.8371004200342989
aF-0.29906900777650436
aa(lp53
S'CG1'
p54
aF1.8892685542156222
aF-1.3392307343859922
aF-1.2331167706782562
aa(lp55
S'CG2'
p56
aF0.0670564451438509
aF-3.033801601455332
aF-0.9062932616828271
aa(lp57
S'CD1'
p58
aF2.988547596898778
aF-2.3492429397975987
aF-1.4698337562056762
aa(lp59
S'HA'
p60
aF-1.0801822290242145
aF-1.1337801901495503
aF0.5077994018554144
aa(lp61
S'HB'
p62
aF1.2682212731211602
aF-2.147161429102887
aF0.6262791707982893
aa(lp63
S'1HG1'
p64
aF1.458001110592683
aF-1.071984665146466
aF-2.1965797593534626
aa(lp65
S'2HG1'
p66
aF2.3399002090239662
aF-0.4379975953755695
aF-0.816161208496734
aa(lp67
S'1HG2'
p68
aF0.7887633234946807
aF-3.8232489442860738
aF-1.1119071586805225
aa(lp69
S'2HG2'
p70
aF-0.6837915815649533
aF-3.400121016186216
aF-0.20852085811651289
aa(lp71
S'3HG2'
p72
aF-0.41699966320150517
aF-2.733283208216638
aF-1.835972980348771
aa(lp73
S'1HD1'
p74
aF3.7356731955694227
aF-1.9240985998474327
aF-2.1405733703774965
aa(lp75
S'2HD1'
p76
aF3.459146888361045
aF-2.6053773853761846
aF-0.51988141389404
aa(lp77
S'3HD1'
p78
aF2.5675937754637603
aF-3.2468945170262815
aF-1.9192762176154898
aaa(lp79
(lp80
S'N'
p81
aF-0.6664084657413024
aF-0.11763272873825587
aF-1.2442424433838903
aa(lp82
S'H'
p83
aF0.007307933045653756
aF0.4165709924505653
aF-1.7754953005748428
aa(lp84
S'CA'
p85
aF-0.25139039641281186
aF-0.7378251763162523
aF0.008487507602380678
aa(lp86
S'C'
p87
aF0.4971194061432871
aF0.25080083791681845
aF0.8926032689476147
aa(lp88
S'O'
p89
aF0.4133715229651741
aF0.18808607468712557
aF2.1186469674087367
aa(lp90
S'CB'
p91
aF0.6389864229147104
aF-1.9659044257604097
aF-0.25578408884506343
aa(lp92
S'CG1'
p93
aF-0.22258832047410892
aF-3.200117519197226
aF-0.537693651548449
aa(lp94
S'CG2'
p95
aF1.5639537897467704
aF-2.216858192905172
aF0.9248104973917264
aa(lp96
S'CD1'
p97
aF-0.9771464992571698
aF-3.7056461774799043
aF0.6710179478359964
aa(lp98
S'HA'
p99
aF-1.1418192550797779
aF-1.0667890435565928
aF0.5427919355302482
aa(lp100
S'HB'
p101
aF1.2419897657666172
aF-1.7931253321108613
aF-1.1470687534203428
aa(lp102
S'1HG1'
p103
aF-0.945999606168589
aF-2.9679723091050008
aF-1.3191561990586256
aa(lp104
S'2HG1'
p105
aF0.4087016611434543
aF-4.008328169217912
aF-0.9075226719111535
aa(lp106
S'1HG2'
p107
aF2.185743099392911
aF-3.0886908562254205
aF0.7220622259374512
aa(lp108
S'2HG2'
p109
aF2.1992265282529373
aF-1.3465755536639183
aF1.080086624166434
aa(lp110
S'3HG2'
p111
aF0.9686240340059089
aF-2.396805790203345
aF1.8207565583552996
aa(lp112
S'1HD1'
p113
aF-1.5642300751235985
aF-4.582016417829165
aF0.39272659551245515
aa(lp114
S'2HD1'
p115
aF-0.2691700309247729
aF-3.9784358413811676
aF1.4544285167947135
aa(lp116
S'3HD1'
p117
aF-1.642421756585874
aF-2.9256716961611704
aF1.036637477508306
aaa(lp118
(lp119
S'N'
p120
aF-0.6688866663638315
aF-0.08491647186460871
aF-1.239107041528998
aa(lp121
S'H'
p122
aF0.013894126175509225
aF0.3531158543775884
aF-1.840881144084269
aa(lp123
S'CA'
p124
aF-0.2264606348018919
aF-0.705994750672859
aF0.003167476518010859
aa(lp125
S'C'
p126
aF0.41724665472640143
aF0.3154530749150619
aF0.9310873356706453
aa(lp127
S'O'
p128
aF0.46420652026381887
aF0.12234229324480272
aF2.1457333734246093
aa(lp129
S'CB'
p130
aF0.7701067613687462
aF-1.8460204272622691
aF-0.27732651915128803
aa(lp131
S'CG1'
p132
aF0.9503548677588489
aF-2.716059373093061
aF0.9697772667785071
aa(lp133
S'CG2'
p134
aF2.106539075593795
aF-1.2828932944157598
aF-0.7360797226792253
aa(lp135
S'CD1'
p136
aF-0.23472278625875043
aF-3.6044016625447526
aF1.2715850379174731
aa(lp137
S'HA'
p138
aF-1.095599701285673
aF-1.125466956048887
aF0.5090087085549759
aa(lp139
S'HB'
p140
aF0.37180735399804066
aF-2.493741302235747
aF-1.0578450969005557
aa(lp141
S'1HG1'
p142
aF1.8291374739487036
aF-3.347959009183106
aF0.8478634407888193
aa(lp143
S'2HG1'
p144
aF1.1263854225921757
aF-2.078091480823833
aF1.836831597370667
aa(lp145
S'1HG2'
p146
aF2.798844620446295
aF-2.1017401050443487
aF-0.9285347389554295
aa(lp147
S'2HG2'
p148
aF1.9634326865767144
aF-0.7056490360012644
aF-1.6482719324409545
aa(lp149
S'3HG2'
p150
aF2.5153974531222656
aF-0.6372741465880482
aF0.04197088176949032
aa(lp151
S'1HD1'
p152
aF-0.03168602018275704
aF-4.189795457478576
aF2.1683521071580705
aa(lp153
S'2HD1'
p154
aF-1.1202935138196246
aF-2.988475066572162
aF1.4323547952131788
aa(lp155
S'3HD1'
p156
aF-0.4073130218648977
aF-4.276289234978744
aF0.4319281433574551
aaa(lp157
(lp158
S'N'
p159
aF-0.670532651687399
aF-0.08689976922953191
aF-1.2381083931259487
aa(lp160
S'H'
p161
aF0.011746685720403105
aF0.35996596944987613
aF-1.834317179828123
aa(lp162
S'CA'
p163
aF-0.22735441901369735
aF-0.7105218181793637
aF0.0027774171514624024
aa(lp164
S'C'
p165
aF0.4333656116720638
aF0.3058933652960078
aF0.9254990522350525
aa(lp166
S'O'
p167
aF0.4527747733086269
aF0.13156225266302135
aF2.144149103567556
aa(lp168
S'CB'
p169
aF0.7546648640473291
aF-1.8619913800136039
aF-0.2805156746555294
aa(lp170
S'CG1'
p171
aF-0.009566465245704148
aF-3.1464554758182137
aF-0.6092868137718644
aa(lp172
S'CG2'
p173
aF1.6782927635197478
aF-2.0776230195629086
aF0.908322623575751
aa(lp174
S'CD1'
p175
aF-0.7281687992849004
aF-3.1067881943119176
aF-1.9385603718822026
aa(lp176
S'HA'
p177
aF-1.0989010731140398
aF-1.1185123648128314
aF0.5147033332606393
aa(lp178
S'HB'
p179
aF1.3554674288999442
aF-1.6192729194650497
aF-1.1561925711050476
aa(lp180
S'1HG1'
p181
aF0.6816014759516018
aF-3.988416525993591
aF-0.6203080228094663
aa(lp182
S'2HG1'
p183
aF-0.7474385400238193
aF-3.3408410045839156
aF0.16998532577190073
aa(lp184
S'1HG2'
p185
aF2.3653972290759775
aF-2.895364594302995
aF0.6922967678216556
aa(lp186
S'2HG2'
p187
aF2.245987110396249
aF-1.1677292405911874
aF1.0981394813967085
aa(lp188
S'3HG2'
p189
aF1.08553100347021
aF-2.325902334829546
aF1.7890415784266758
aa(lp190
S'1HD1'
p191
aF-1.246313031880314
aF-4.05149282520974
aF-2.1008092997317185
aa(lp192
S'2HD1'
p193
aF-1.4519841090843757
aF-2.291046009682548
aF-1.9371162403129354
aa(lp194
S'3HD1'
p195
aF-0.005540231894554104
aF-2.9484662207533257
aF-2.737858880751006
aaa(lp196
(lp197
S'N'
p198
aF-0.6698381665495389
aF-0.1016870783039947
aF-1.238548670315203
aa(lp199
S'H'
p200
aF0.0071509032780020035
aF0.3929450016256713
aF-1.8010128068061393
aa(lp201
S'CA'
p202
aF-0.23851457659193312
aF-0.7285772531975904
aF0.005387288393268019
aa(lp203
S'C'
p204
aF0.4788672456662372
aF0.2694485542429693
aF0.9043410184462463
aa(lp205
S'O'
p206
aF0.4223345941972507
aF0.16787077563291608
aF2.129833170281801
aa(lp207
S'CB'
p208
aF0.6868717045899122
aF-1.925814181569808
aF-0.27562155122266513
aa(lp209
S'CG1'
p210
aF0.14373216061385374
aF-2.759407932124086
aF-1.4390534980104168
aa(lp211
S'CG2'
p212
aF0.8409723525224244
aF-2.783570619280305
aF0.971948841129197
aa(lp213
S'CD1'
p214
aF-0.2986741037442925
aF-4.148927365802275
aF-1.0396308638404173
aa(lp215
S'HA'
p216
aF-1.1201183574490678
aF-1.0904384298990548
aF0.5333013556188263
aa(lp217
S'HB'
p218
aF1.668452977826677
aF-1.5637462750335576
aF-0.5788014237197482
aa(lp219
S'1HG1'
p220
aF-0.7052655570705539
aF-2.2469730418673333
aF-1.8888394010956742
aa(lp221
S'2HG1'
p222
aF0.911413998827353
aF-2.8560359555705945
aF-2.207022651272423
aa(lp223
S'1HG2'
p224
aF1.4984766556277802
aF-3.6255726017331016
aF0.7555262153630944
aa(lp225
S'2HG2'
p226
aF1.2710190191068287
aF-2.184104743127137
aF1.7732425000879828
aa(lp227
S'3HG2'
p228
aF-0.13653969680890088
aF-3.154571499625356
aF1.2802904377315256
aa(lp229
S'1HD1'
p230
aF-0.6702733519317449
aF-4.678932793919045
aF-1.9171291515386266
aa(lp231
S'2HD1'
p232
aF0.5472068449316101
aF-4.694447964072526
aF-0.6182988124486146
aa(lp233
S'3HD1'
p234
aF-1.0913849375181575
aF-4.078164367288506
aF-0.29669268871486865
aaa(lp235
(lp236
S'N'
p237
aF-0.6606164631208244
aF-0.13401859381077016
aF-1.2455333416519663
aa(lp238
S'H'
p239
aF-0.0008807809974962777
aF0.4588105011691966
aF-1.728086441194913
aa(lp240
S'CA'
p241
aF-0.2648790476129691
aF-0.7617718544247
aF0.009865695210712982
aa(lp242
S'C'
p243
aF0.5470545049941714
aF0.1957935336107446
aF0.8725669376969338
aa(lp244
S'O'
p245
aF0.3793217867371182
aF0.24118641345554914
aF2.091187149939242
aa(lp246
S'CB'
p247
aF0.5535296531275286
aF-2.040718445090545
aF-0.2495178369891471
aa(lp248
S'CG1'
p249
aF1.0194994245804452
aF-2.653580349691395
aF1.0731542531303706
aa(lp250
S'CG2'
p251
aF1.7429625626243581
aF-1.7369969775881686
aF-1.1473438914028635
aa(lp252
S'CD1'
p253
aF1.6013585590464685
aF-4.041675165135402
aF0.9313631004588365
aa(lp254
S'HA'
p255
aF-1.1648771562633302
aF-1.035301159764992
aF0.5581121029014848
aa(lp256
S'HB'
p257
aF-0.07720640838693438
aF-2.783958366693057
aF-0.7364597633433194
aa(lp258
S'1HG1'
p259
aF1.7745251717159884
aF-2.0115324460278936
aF1.5252788051773898
aa(lp260
S'2HG1'
p261
aF0.17906496456462379
aF-2.7060882903137706
aF1.7660855878162174
aa(lp262
S'1HG2'
p263
aF2.3109423795157156
aF-2.650814264443185
aF-1.3198138709616487
aa(lp264
S'2HG2'
p265
aF1.389469992254651
aF-1.3449190552931083
aF-2.099760242345142
aa(lp266
S'3HG2'
p267
aF2.3837893608809133
aF-0.997583787728495
aF-0.6661057494213808
aa(lp268
S'1HD1'
p269
aF1.9076718268002688
aF-4.409078536032569
aF1.9110426118560002
aa(lp270
S'2HD1'
p271
aF0.8484767305892946
aF-4.71071277291686
aF0.513061018521578
aa(lp272
S'3HD1'
p273
aF2.4654834043721925
aF-4.008019518008661
aF0.2703747880755678
aaa(lp274
(lp275
S'N'
p276
aF-0.6646891332747733
aF-0.12248927818003763
aF-1.2458835310081693
aa(lp277
S'H'
p278
aF0.006541233774720379
aF0.42578457599506386
aF-1.764536184697107
aa(lp279
S'CA'
p280
aF-0.2557523029417621
aF-0.7426020062673777
aF0.009222788496783069
aa(lp281
S'C'
p282
aF0.5053124222089851
aF0.24142103846635063
aF0.8873458616273139
aa(lp283
S'O'
p284
aF0.4085877802328176
aF0.1978856699859879
aF2.113851065581156
aa(lp285
S'CB'
p286
aF0.6169211793665853
aF-1.9832023710686664
aF-0.2498384554798747
aa(lp287
S'CG1'
p288
aF-0.19718699880021406
aF-3.07299450977675
aF-0.9524101376960072
aa(lp289
S'CG2'
p290
aF1.1984046397010029
aF-2.5062276037721944
aF1.0541215098997814
aa(lp291
S'CD1'
p292
aF0.44459236127110835
aF-3.595309809162953
aF-2.2176500283940355
aa(lp293
S'HA'
p294
aF-1.150555211097377
aF-1.0559897151564268
aF0.5459535398736062
aa(lp295
S'HB'
p296
aF1.4348785055975994
aF-1.7195464573972017
aF-0.9206680699506957
aa(lp297
S'1HG1'
p298
aF-0.34461671622302825
aF-3.9115420891316814
aF-0.273136676136815
aa(lp299
S'2HG1'
p300
aF-1.1827271679445515
aF-2.6820739557397975
aF-1.2071682493124865
aa(lp301
S'1HG2'
p302
aF1.8122935878556086
aF-3.383284579615489
aF0.8539480339888963
aa(lp303
S'2HG2'
p304
aF1.8114533451820796
aF-1.7331821502717952
aF1.5157956498842093
aa(lp305
S'3HG2'
p306
aF0.3877872943581733
aF-2.7787494205718217
aF1.7305654312987224
aa(lp307
S'1HD1'
p308
aF-0.19194425514034685
aF-4.362515110125521
aF-2.6579183126735098
aa(lp309
S'2HD1'
p310
aF0.5692062419624302
aF-2.776346008438765
aF-2.9265193208890894
aa(lp311
S'3HD1'
p312
aF1.417990692915554
aF-4.022570156988749
aF-1.9812493449610111
aaa(lp313
(lp314
S'N'
p315
aF-0.6717100343290584
aF-0.07650133485673755
aF-1.2339407342116486
aa(lp316
S'H'
p317
aF0.008465493215790144
aF0.34819915488207054
aF-1.8475201877013494
aa(lp318
S'CA'
p319
aF-0.21873645844086376
aF-0.706467118829901
aF0.0011540194692707811
aa(lp320
S'C'
p321
aF0.43005802167675006
aF0.30977840596777406
aF0.9318616835064812
aa(lp322
S'O'
p323
aF0.45192297787739844
aF0.1249908928367548
aF2.1484452189372445
aa(lp324
S'CB'
p325
aF0.7784306186595137
aF-1.842449719485037
aF-0.2958600397196597
aa(lp326
S'CG1'
p327
aF2.139892933123246
aF-1.2663172222438512
aF-0.6931580537062534
aa(lp328
S'CG2'
p329
aF0.24004931068443858
aF-2.74943398432114
aF-1.3909724132059458
aa(lp330
S'CD1'
p331
aF3.1018293504236683
aF-1.1203034947804476
aF0.4635490485730917
aa(lp332
S'HA'
p333
aF-1.0832955817238272
aF-1.1316499393404973
aF0.5099124017008009
aa(lp334
S'HB'
p335
aF0.9362502400638852
aF-2.4320694168843566
aF0.6060105604988566
aa(lp336
S'1HG1'
p337
aF2.6017060339603217
aF-1.909011134788134
aF-1.4414595936443668
aa(lp338
S'2HG1'
p339
aF2.001574526051942
aF-0.285045892323711
aF-1.1468326015288215
aa(lp340
S'1HG2'
p341
aF0.9569388612288392
aF-3.545866683548071
aF-1.588571319888999
aa(lp342
S'2HG2'
p343
aF-0.705833025361646
aF-3.184557828134655
aF-1.0712555902188674
aa(lp344
S'3HG2'
p345
aF0.0833511501189994
aF-2.169096441856145
aF-2.300497027101073
aa(lp346
S'1HD1'
p347
aF4.043645019943748
aF-0.7066067056160985
aF0.10376548685638495
aa(lp348
S'2HD1'
p349
aF2.6735633859797883
aF-0.45178601813884955
aF1.2105340866586645
aa(lp350
S'3HD1'
p351
aF3.283516180696898
aF-2.0963691929967605
aF0.9113856800256539
aaa(lp352
(lp353
S'N'
p354
aF-0.6846464624987804
aF-0.07381001268580867
aF-1.1924486334493452
aa(lp355
S'H'
p356
aF-0.022942677716383753
aF0.4403428376093071
aF-1.7569554515995458
aa(lp357
S'CA'
p358
aF-0.20896961653456045
aF-0.7849892989565939
aF-0.012014153695016572
aa(lp359
S'C'
p360
aF0.6101100183521417
aF0.1313590899030905
aF0.8897858141183089
aa(lp361
S'O'
p362
aF0.3064487383975659
aF0.28709738413008445
aF2.0716324246256286
aa(lp363
S'CB'
p364
aF0.6398689019635617
aF-2.0063878352452686
aF-0.40993473002370184
aa(lp365
S'CG1'
p366
aF-0.030862414277673
aF-2.7716930214655635
aF-1.5542810383402312
aa(lp367
S'CG2'
p368
aF0.8572447154001717
aF-2.915779266422544
aF0.7887349411677098
aa(lp369
S'CD1'
p370
aF-0.03982938154054638
aF-2.0227001985970636
aF-2.8667269780991225
aa(lp371
S'HA'
p372
aF-1.0725352698307875
aF-1.1342766599313272
aF0.5528882289432302
aa(lp373
S'HB'
p374
aF1.607878025405749
aF-1.6714012704800916
aF-0.78052795494763
aa(lp375
S'1HG1'
p376
aF0.4821860787841481
aF-3.720383439148936
aF-1.7053629206514542
aa(lp377
S'2HG1'
p378
aF-1.062511942318975
aF-2.9980122173757446
aF-1.2849858975472166
aa(lp379
S'1HG2'
p380
aF1.4580871081890532
aF-3.7743733350087143
aF0.4896669816395096
aa(lp381
S'2HG2'
p382
aF1.374769949517161
aF-2.3666875125581477
aF1.5732595602143626
aa(lp383
S'3HG2'
p384
aF-0.10643891500030889
aF-3.261394445574901
aF1.1629781888524564
aa(lp385
S'1HD1'
p386
aF-0.5314722107240857
aF-2.6290168678699883
aF-3.6282861846446117
aa(lp387
S'2HD1'
p388
aF-0.5796018584673868
aF-1.0829760647532563
aF-2.746796892533676
aa(lp389
S'3HD1'
p390
aF0.9841235640857673
aF-1.8162125002797693
aF-3.174238271528841
aaa(lp391
(lp392
S'N'
p393
aF-0.662370934618136
aF-0.13038193081113525
aF-1.233605292259683
aa(lp394
S'H'
p395
aF-0.01043824223267939
aF0.4857161832601895
aF-1.6976137818768615
aa(lp396
S'CA'
p397
aF-0.2601784987403578
aF-0.7863713971861421
aF0.004784817733017949
aa(lp398
S'C'
p399
aF0.5921100090697979
aF0.13688912270775747
aF0.8657600275154929
aa(lp400
S'O'
p401
aF0.3408776665212575
aF0.29414802202934087
aF2.0606742288880193
aa(lp402
S'CB'
p403
aF0.5187456460237388
aF-2.0815308354638695
aF-0.2881045916754432
aa(lp404
S'CG1'
p405
aF-0.44073757634906474
aF-3.2706927443487124
aF-0.3897210295308967
aa(lp406
S'CG2'
p407
aF1.5641616672134493
aF-2.3281529370874403
aF0.7886353405415472
aa(lp408
S'CD1'
p409
aF0.2539224978491387
aF-4.606307562485928
aF-0.5239947756141627
aa(lp410
S'HA'
p411
aF-1.1577094122553677
aF-1.043085818731797
aF0.5668283792613025
aa(lp412
S'HB'
p413
aF1.0170696331752458
aF-1.9967486818055822
aF-1.2526455136950772
aa(lp414
S'1HG1'
p415
aF-1.0739749653602961
aF-3.3032431417438914
aF0.4963200986271885
aa(lp416
S'2HG1'
p417
aF-1.0935257875570525
aF-3.138283454741767
aF-1.2520691792556224
aa(lp418
S'1HG2'
p419
aF2.10518190391098
aF-3.2477223123776526
aF0.5672640065524632
aa(lp420
S'2HG2'
p421
aF2.2632263572003755
aF-1.4935035721126122
aF0.8146737114699805
aa(lp422
S'3HG2'
p423
aF1.073360754503123
aF-2.420457890308913
aF1.7577381522666435
aa(lp424
S'1HD1'
p425
aF-0.4912957791555159
aF-5.3988724447383
aF-0.591066580707676
aa(lp426
S'2HD1'
p427
aF0.8680499923827255
aF-4.607919940826591
aF-1.4260894606079209
aa(lp428
S'3HD1'
p429
aF0.8867159028918156
aF-4.777036741847093
aF0.3462776264813905
aaa(lp430
(lp431
S'N'
p432
aF-0.6748830318602386
aF-0.1014129155132607
aF-1.221483177892448
aa(lp433
S'H'
p434
aF-0.008707400720251418
aF0.4360818914601987
aF-1.7579515935068264
aa(lp435
S'CA'
p436
aF-0.23429319692508974
aF-0.7634768596054484
aF-0.00015073695553718958
aa(lp437
S'C'
p438
aF0.5631892497074031
aF0.18516853574500608
aF0.8840436201817524
aa(lp439
S'O'
p440
aF0.354694379798198
aF0.2436393479134673
aF2.0955418881730457
aa(lp441
S'CB'
p442
aF0.6188909407922365
aF-2.0031416942599565
aF-0.3253813088096721
aa(lp443
S'CG1'
p444
aF0.19758061834439916
aF-3.18615995437837
aF0.5503723143203156
aa(lp445
S'CG2'
p446
aF2.096275221547077
aF-1.6967125003639176
aF-0.13620986247929667
aa(lp447
S'CD1'
p448
aF0.21191309028766692
aF-2.884565614398376
aF2.031759311137833
aa(lp449
S'HA'
p450
aF-1.1142038651628843
aF-1.087110202324613
aF0.554800319806894
aa(lp451
S'HB'
p452
aF0.44901369988202844
aF-2.3011171601793965
aF-1.3599330691053233
aa(lp453
S'1HG1'
p454
aF-0.8072425851328374
aF-3.502380406531228
aF0.2759766959260248
aa(lp455
S'2HG1'
p456
aF0.8654849453596337
aF-4.029423057616394
aF0.370097111722411
aa(lp457
S'1HG2'
p458
aF2.685885159067392
aF-2.583495103584415
aF-0.3697301746638396
aa(lp459
S'2HG2'
p460
aF2.387190993693069
aF-0.8839249007485126
aF-0.8003494046149314
aa(lp461
S'3HG2'
p462
aF2.2775028957835834
aF-1.4028524923984262
aF0.8978616175496961
aa(lp463
S'1HD1'
p464
aF-0.09794883318289271
aF-3.7708340587204243
aF2.5862968057963105
aa(lp465
S'2HD1'
p466
aF1.2188380426794314
aF-2.598624753127847
aF2.33628347127412
aa(lp467
S'3HD1'
p468
aF-0.4769207192373531
aF-2.0672805995764536
aF2.2419192202612854
aaa(lp469
(lp470
S'N'
p471
aF-0.6564761722484278
aF-0.1406372608279308
aF-1.2518379751936237
aa(lp472
S'H'
p473
aF0.002426716688249897
aF0.4574363837918166
aF-1.7283648879300906
aa(lp474
S'CA'
p475
aF-0.2718126283510882
aF-0.7565001826551618
aF0.012012023625369156
aa(lp476
S'C'
p477
aF0.5327047083868964
aF0.209220951759826
aF0.8729815616650427
aa(lp478
S'O'
p479
aF0.3931573755243787
aF0.23048010793146728
aF2.095209277833282
aa(lp480
S'CB'
p481
aF0.5480457943730369
aF-2.037326564029408
aF-0.22630907796671074
aa(lp482
S'CG1'
p483
aF1.5036812983909984
aF-2.285982971382796
aF0.9434006187283474
aa(lp484
S'CG2'
p485
aF1.3174880186950428
aF-1.9393305798807614
aF-1.5345404988250917
aa(lp486
S'CD1'
p487
aF1.4503563551814518
aF-3.6962609011365446
aF1.4860981507673077
aa(lp488
S'HA'
p489
aF-1.177117350795808
aF-1.024249082660935
aF0.5564042407491842
aa(lp490
S'HB'
p491
aF-0.12258374056767385
aF-2.895168991049357
aF-0.2734725942661529
aa(lp492
S'1HG1'
p493
aF2.526814523309321
aF-2.080131680369209
aF0.6275562740642835
aa(lp494
S'2HG1'
p495
aF1.2690469112173988
aF-1.5992897999720206
aF1.7567456824580538
aa(lp496
S'1HG2'
p497
aF1.8922571556628816
aF-2.852168674309386
aF-1.6887256231048504
aa(lp498
S'2HG2'
p499
aF0.6181904528940423
aF-1.8089654157691237
aF-2.3591008898522996
aa(lp500
S'3HG2'
p501
aF1.9956649172530514
aF-1.0866112292044934
aF-1.4953639338342
aa(lp502
S'1HD1'
p503
aF2.1543065961974706
aF-3.794348543428783
aF2.3130067748625183
aa(lp504
S'2HD1'
p505
aF0.44202318769896914
aF-3.911348538951677
aF1.8403826853067775
aa(lp506
S'3HD1'
p507
aF1.7164584669819605
aF-4.398706374381591
aF0.6983196138593416
aaa(lp508
(lp509
S'N'
p510
aF-0.6727528380094262
aF-0.07934921962655511
aF-1.2331790138885121
aa(lp511
S'H'
p512
aF0.0073680077415485545
aF0.3554584467432923
aF-1.8414938406361494
aa(lp513
S'CA'
p514
aF-0.22022928895166888
aF-0.7105014670380777
aF0.0012983160514182523
aa(lp515
S'C'
p516
aF0.44209700598074997
aF0.30089116460279275
aF0.9268029479704731
aa(lp517
S'O'
p518
aF0.44351711323856213
aF0.1335010753186684
aF2.14657159050266
aa(lp519
S'CB'
p520
aF0.7642679807145232
aF-1.8569845074300773
aF-0.297202545108626
aa(lp521
S'CG1'
p522
aF2.189095999107412
aF-1.3138220258244864
aF-0.4349183269880271
aa(lp523
S'CG2'
p524
aF0.3493355703181277
aF-2.600189452283325
aF-1.5571987771459688
aa(lp525
S'CD1'
p526
aF3.01966191758499
aF-2.036724404639772
aF-1.470150864037901
aa(lp527
S'HA'
p528
aF-1.0869514358764105
aF-1.1259079598579933
aF0.5146365727138799
aa(lp529
S'HB'
p530
aF0.7728025974815453
aF-2.555015590725861
aF0.5396228650394872
aa(lp531
S'1HG1'
p532
aF2.151816979344308
aF-0.25853526695943085
aF-0.7042993420013266
aa(lp533
S'2HG1'
p534
aF2.7011415415893456
aF-1.386956001996399
aF0.5238839383168287
aa(lp535
S'1HG2'
p536
aF1.0566218703761612
aF-3.4055015697056192
aF-1.7535160797024765
aa(lp537
S'2HG2'
p538
aF-0.6471889193737312
aF-3.0168716510343745
aF-1.422095532594399
aa(lp539
S'3HG2'
p540
aF0.34315456246914683
aF-1.9095919181772096
aF-2.400967016076843
aa(lp541
S'1HD1'
p542
aF4.016480178008434
aF-1.5961979654663505
aF-1.509695927896043
aa(lp543
S'2HD1'
p544
aF3.100591439402857
aF-3.0908161027551833
aF-1.201223170293814
aa(lp545
S'3HD1'
p546
aF2.5448097401883434
aF-1.9469379742923267
aF-2.445696765852419
aaa(lp547
(lp548
S'N'
p549
aF-0.6669278401056407
aF-0.1207078804467181
aF-1.2385861389867507
aa(lp550
S'H'
p551
aF-0.00022187440995052876
aF0.44023213191705757
aF-1.7504058903007638
aa(lp552
S'CA'
p553
aF-0.25280912444326953
aF-0.7552936740587217
aF0.006338179951530713
aa(lp554
S'C'
p555
aF0.5377454467804599
aF0.20996773023234333
aF0.8805388956360282
aa(lp556
S'O'
p557
aF0.38221339217840694
aF0.22580169235604444
aF2.1021149536998696
aa(lp558
S'CB'
p559
aF0.5964125956130889
aF-2.009485889783677
aF-0.2716354810299258
aa(lp560
S'CG1'
p561
aF0.6707920952255462
aF-2.892042728346764
aF0.9763914084010952
aa(lp562
S'CG2'
p563
aF1.991113569872328
aF-1.6158953764125634
aF-0.7329734267753698
aa(lp564
S'CD1'
p565
aF1.7880379040094978
aF-2.5183413301657827
aF1.923135865872216
aa(lp566
S'HA'
p567
aF-1.1447657909575535
aF-1.0576726848184441
aF0.5539815300551186
aa(lp568
S'HB'
p569
aF0.12032130684814235
aF-2.604733566665252
aF-1.0510116982249487
aa(lp570
S'1HG1'
p571
aF-0.27178981940896674
aF-2.832237858974387
aF1.5210479164897397
aa(lp572
S'2HG1'
p573
aF0.8098386821193477
aF-3.9321690484478857
aF0.6793370616797115
aa(lp574
S'1HG2'
p575
aF2.5776682456810045
aF-2.5132783466855697
aF-0.9251905356678334
aa(lp576
S'2HG2'
p577
aF1.9194576973666875
aF-1.0276966537558139
aF-1.64675058702857
aa(lp578
S'3HG2'
p579
aF2.477630564628733
aF-1.0237012785587616
aF0.0427999707321307
aa(lp580
S'1HD1'
p581
aF1.775992621047645
aF-3.1890500687765133
aF2.7828740231675466
aa(lp582
S'2HD1'
p583
aF2.7451094412567083
aF-2.6053258891933004
aF1.4087500582510577
aa(lp584
S'3HD1'
p585
aF1.6498308267461785
aF-1.4921204054106272
aF2.2624387061034676
aaa(lp586
(lp587
S'N'
p588
aF-0.6709755210826294
aF-0.10580568438595883
aF-1.2349496375397346
aa(lp589
S'H'
p590
aF0.0021681791394990713
aF0.4113552307758444
aF-1.7829853541497664
aa(lp591
S'CA'
p592
aF-0.24062357979468593
aF-0.7409704383423825
aF0.004231116814193241
aa(lp593
S'C'
p594
aF0.5106317348054428
aF0.24082824355863275
aF0.8939590530410437
aa(lp595
S'O'
p596
aF0.39879918693235883
aF0.1945926483938437
aF2.119744821834259
aa(lp597
S'CB'
p598
aF0.653170087215893
aF-1.9608312255137557
aF-0.28480614848808217
aa(lp599
S'CG1'
p600
aF0.3642955334408815
aF-2.5150154573199908
aF-1.6824897068798272
aa(lp601
S'CG2'
p602
aF0.4450139948347762
aF-3.0349689988398816
aF0.7706596657942285
aa(lp603
S'CD1'
p604
aF1.6021821086923291
aF-2.7190595866817526
aF-2.5264202846439234
aa(lp605
S'HA'
p606
aF-1.1239918517223637
aF-1.0815967743312187
aF0.5435966657532498
aa(lp607
S'HB'
p608
aF1.6994365663369837
aF-1.655050280193404
aF-0.27742589466105283
aa(lp609
S'1HG1'
p610
aF-0.15095766312078285
aF-3.4702252439152685
aF-1.5954873676837331
aa(lp611
S'2HG1'
p612
aF-0.30032354313316856
aF-1.833685376695791
aF-2.2137851089778273
aa(lp613
S'1HG2'
p614
aF1.0835621427643836
aF-3.8897871264503214
aF0.5512326130312388
aa(lp615
S'2HG2'
p616
aF0.6992873962206487
aF-2.635436919033998
aF1.751922196696969
aa(lp617
S'3HG2'
p618
aF-0.598394767451433
aF-3.3516965075222065
aF0.7675227838639195
aa(lp619
S'1HD1'
p620
aF1.3162615373089936
aF-3.113147157324617
aF-3.5017824807150193
aa(lp621
S'2HD1'
p622
aF2.1148517006235665
aF-1.7656231871341785
aF-2.6563199441000624
aa(lp623
S'3HD1'
p624
aF2.267175481498928
aF-3.4249109154810524
aF-2.0308259790314027
aaa(lp625
(lp626
S'N'
p627
aF-0.6842336615929255
aF-0.07317703964642423
aF-1.1989798568832244
aa(lp628
S'H'
p629
aF-0.020271545051863182
aF0.42346254056286786
aF-1.7759317051061527
aa(lp630
S'CA'
p631
aF-0.20856382635818516
aF-0.7701168809879572
aF-0.009348794158900497
aa(lp632
S'C'
p633
aF0.5891384479622753
aF0.1611364257865674
aF0.8932349195017766
aa(lp634
S'O'
p635
aF0.3239305850407363
aF0.25869495428491124
aF2.091025436646502
aa(lp636
S'CB'
p637
aF0.6588355723389008
aF-1.982832819223363
aF-0.3944596045625187
aa(lp638
S'CG1'
p639
aF-0.1843368361594957
aF-3.2595996303711137
aF-0.40873544074288765
aa(lp640
S'CG2'
p641
aF1.8295078933790823
aF-2.124179240900219
aF0.5664522050378995
aa(lp642
S'CD1'
p643
aF-1.4579901520504621
aF-3.159716699721598
aF0.39914179688967966
aa(lp644
S'HA'
p645
aF-1.0723665644030551
aF-1.1286761791744522
aF0.5490946312927691
aa(lp646
S'HB'
p647
aF1.044884708188329
aF-1.8480300697344894
aF-1.4042537833138862
aa(lp648
S'1HG1'
p649
aF-0.4501052448479088
aF-3.508010902581366
aF-1.4355854749650734
aa(lp650
S'2HG1'
p651
aF0.4046539069859997
aF-4.088916614370856
aF-0.014947116209923693
aa(lp652
S'1HG2'
p653
aF2.432418297079767
aF-2.9858719517869723
aF0.2808113166586049
aa(lp654
S'2HG2'
p655
aF2.4420048703098614
aF-1.2248153362916971
aF0.5277479373409569
aa(lp656
S'3HG2'
p657
aF1.453620507012432
aF-2.2648384963471386
aF1.579628718103402
aa(lp658
S'1HD1'
p659
aF-2.000997310112326
aF-4.103609701040634
aF0.34148567531949814
aa(lp660
S'2HD1'
p661
aF-1.212592566039993
aF-2.9460015644894106
aF1.440421233809917
aa(lp662
S'3HD1'
p663
aF-2.079955296600341
aF-2.359688290316525
aF0.0007852943573235672
aaa(lp664
(lp665
S'N'
p666
aF-0.6688909077244922
aF-0.10998925467166021
aF-1.2388863698581334
aa(lp667
S'H'
p668
aF0.004038729304984945
aF0.41259636915941283
aF-1.7799630459147404
aa(lp669
S'CA'
p670
aF-0.24496948077836417
aF-0.7397354223302612
aF0.006031453974129075
aa(lp671
S'C'
p672
aF0.5050329606115969
aF0.24603482434290866
aF0.8935253179996872
aa(lp673
S'O'
p674
aF0.40478869858628486
aF0.19109348349962402
aF2.1192926437990574
aa(lp675
S'CB'
p676
aF0.6488684126573719
aF-1.9622958897658769
aF-0.27421258917750513
aa(lp677
S'CG1'
p678
aF1.5528504711913746
aF-2.2478048617448474
aF0.928037411765788
aa(lp679
S'CG2'
p680
aF1.4790060820818063
aF-1.7385906169664427
aF-1.5275905851245797
aa(lp681
S'CD1'
p682
aF2.9601136540875324
aF-2.652656384286742
aF0.5502046726331375
aa(lp683
S'HA'
p684
aF-1.1311228553901482
aF-1.0754473174282972
aF0.5424340268182793
aa(lp685
S'HB'
p686
aF0.02425773345010071
aF-2.843682185695474
aF-0.4154418239971175
aa(lp687
S'1HG1'
p688
aF1.6096984160475318
aF-1.3621794955361934
aF1.559769967435849
aa(lp689
S'2HG1'
p690
aF1.1185445594726757
aF-3.0495079897475987
aF1.5273131993601092
aa(lp691
S'1HG2'
p692
aF2.10515441796977
aF-2.611399739259571
aF-1.7108949699784013
aa(lp693
S'2HG2'
p694
aF0.8183677913615832
aF-1.5813289460046478
aF-2.3791249741427563
aa(lp695
S'3HG2'
p696
aF2.1113762248042605
aF-0.8599385866382364
aF-1.393092956174119
aa(lp697
S'1HD1'
p698
aF3.5400554679005434
aF-2.838224578260241
aF1.4545104494457641
aa(lp699
S'2HD1'
p700
aF2.9286114259612903
aF-3.559618245250439
aF-0.05404427637740582
aa(lp701
S'3HD1'
p702
aF3.427295493502446
aF-1.851553881995598
aF-0.020438744698354938
aaa(lp703
(lp704
S'N'
p705
aF-0.6714183645902733
aF-0.10373712286198197
aF-1.2339992500124304
aa(lp706
S'H'
p707
aF0.001359298556251054
aF0.40923652025449075
aF-1.7854892838651888
aa(lp708
S'CA'
p709
aF-0.2387695691711148
aF-0.7402406948106517
aF0.004238700754279151
aa(lp710
S'C'
p711
aF0.5111249243515932
aF0.24130045177952114
aF0.895192249562953
aa(lp712
S'O'
p713
aF0.3977037108535424
aF0.19344084563862152
aF2.120057583560394
aa(lp714
S'CB'
p715
aF0.6577435200390674
aF-1.956983481900246
aF-0.2884646831350487
aa(lp716
S'CG1'
p717
aF1.9461064320133614
aF-1.5152513226797262
aF-0.9865611711361659
aa(lp718
S'CG2'
p719
aF-0.08880465477444563
aF-2.976593138814798
aF-1.1354569913700185
aa(lp720
S'CD1'
p721
aF1.7404609398889757
aF-1.0528589602979357
aF-2.411913490662782
aa(lp722
S'HA'
p723
aF-1.121595922908103
aF-1.0841791100611147
aF0.5427811741604656
aa(lp724
S'HB'
p725
aF0.9530125192467138
aF-2.4247247844517252
aF0.6501967531636619
aa(lp726
S'1HG1'
p727
aF2.4025392471131344
aF-0.7009327695729702
aF-0.4265786898332081
aa(lp728
S'2HG1'
p729
aF2.656602617124259
aF-2.343055004794923
aF-0.9972023561915613
aa(lp730
S'1HG2'
p731
aF0.5603166835494451
aF-3.8296193603607134
aF-1.332758165942551
aa(lp732
S'2HG2'
p733
aF-0.9768916742298075
aF-3.3122969006254386
aF-0.6015530391641247
aa(lp734
S'3HG2'
p735
aF-0.3836533758730501
aF-2.5194717791803467
aF-2.079866486362773
aa(lp736
S'1HD1'
p737
aF2.6981752929619507
aF-0.7561524630604611
aF-2.8396230561567997
aa(lp738
S'2HD1'
p739
aF1.3155226126406445
aF-1.865844186290101
aF-3.0009359353572616
aa(lp740
S'3HD1'
p741
aF1.0598293959243448
aF-0.20261346469036334
aF-2.423328330099081
aaa(lp742
(lp743
S'N'
p744
aF-0.6585842734529669
aF-0.13642763289827847
aF-1.2350535112869394
aa(lp745
S'H'
p746
aF-0.012399094027272961
aF0.5005153719101962
aF-1.679612081686989
aa(lp747
S'CA'
p748
aF-0.2657433417582181
aF-0.794629938245214
aF0.005445875097907116
aa(lp749
S'C'
p750
aF0.6027350850040892
aF0.11777119136326913
aF0.8620965629150774
aa(lp751
S'O'
p752
aF0.3339916242343694
aF0.31277100787002815
aF2.0471231549609454
aa(lp753
S'CB'
p754
aF0.49209646884807784
aF-2.1033497553593765
aF-0.2843631339975451
aa(lp755
S'CG1'
p756
aF0.739991983990888
aF-2.2564673446557704
aF-1.7869385289179278
aa(lp757
S'CG2'
p758
aF-0.2817045198114247
aF-3.296801075112429
aF0.2556035106475403
aa(lp759
S'CD1'
p760
aF1.693623951244148
aF-1.2302334896643048
aF-2.35597644145279
aa(lp761
S'HA'
p762
aF-1.1664671435848328
aF-1.0355655886134114
aF0.568875236424297
aa(lp763
S'HB'
p764
aF1.4701954712490322
aF-2.070834284608114
aF0.19450645750319212
aa(lp765
S'1HG1'
p766
aF1.1438667916468657
aF-3.2480268475949314
aF-1.989775635660975
aa(lp767
S'2HG1'
p768
aF-0.20668075416372017
aF-2.1739207156645457
aF-2.3220140197386554
aa(lp769
S'1HG2'
p770
aF0.267453093406425
aF-4.21253329053253
aF0.0423679003788322
aa(lp771
S'2HG2'
p772
aF-0.408679972187684
aF-3.191132447145575
aF1.3324137889962602
aa(lp773
S'3HG2'
p774
aF-1.2607158791313955
aF-3.340674907111137
aF-0.2221912624383655
aa(lp775
S'1HD1'
p776
aF1.8180409505657091
aF-1.4031925150126248
aF-3.4250113266788884
aa(lp777
S'2HD1'
p778
aF1.2903325393660665
aF-0.22964730979287673
aF-2.1949505623038554
aa(lp779
S'3HD1'
p780
aF2.658946322615034
aF-1.3179809193925964
aF-1.8600307711349944
aaa(lp781
(lp782
S'N'
p783
aF-0.6717333719093357
aF-0.08825509653252184
aF-1.236239036351518
aa(lp784
S'H'
p785
aF0.008990321442607224
aF0.36741534567986334
aF-1.8284051459890622
aa(lp786
S'CA'
p787
aF-0.2277090424403897
aF-0.7155559622719831
aF0.003049073283272974
aa(lp788
S'C'
p789
aF0.4501565487234701
aF0.29446224231024976
aF0.9200073420875508
aa(lp790
S'O'
p791
aF0.44029554418366995
aF0.14193347081440588
aF2.141587766969775
aa(lp792
S'CB'
p793
aF0.7407851453775072
aF-1.8780118234257825
aF-0.2861988809569532
aa(lp794
S'CG1'
p795
aF0.18969240748270555
aF-3.186664380210297
aF0.2863884747023977
aa(lp796
S'CG2'
p797
aF2.116701643282986
aF-1.579642655862561
aF0.28875123047807716
aa(lp798
S'CD1'
p799
aF-1.1391530525102056
aF-3.599909926946324
aF-0.30442779247299545
aa(lp800
S'HA'
p801
aF-1.099575177846089
aF-1.1133473492811015
aF0.5204516770205391
aa(lp802
S'HB'
p803
aF0.8292600524141649
aF-2.0178961475096497
aF-1.3628295356851385
aa(lp804
S'1HG1'
p805
aF0.9050686637874779
aF-3.9889814413912927
aF0.11298678712917165
aa(lp806
S'2HG1'
p807
aF0.0647077809135232
aF-3.088283524719059
aF1.3653648648028438
aa(lp808
S'1HG2'
p809
aF2.787921042822559
aF-2.4112862401853956
aF0.07642491007383745
aa(lp810
S'2HG2'
p811
aF2.510646472521717
aF-0.6703950558129522
aF-0.16452051287252523
aa(lp812
S'3HG2'
p813
aF2.0381040831594617
aF-1.4431798133940235
aF1.3677759364825564
aa(lp814
S'1HD1'
p815
aF-1.4648390817814623
aF-4.535585074969109
aF0.1506662941838781
aa(lp816
S'2HD1'
p817
aF-1.8812329797370753
aF-2.82451521727228
aF-0.11112381988974929
aa(lp818
S'3HD1'
p819
aF-1.0310852431514241
aF-3.738347535094468
aF-1.3800459297459886
aaa(lp820
(lp821
S'N'
p822
aF-0.685558855402155
aF-0.0669557283900325
aF-1.1901136022310703
aa(lp823
S'H'
p824
aF-0.024853776869077193
aF0.4288579329786939
aF-1.7705475884868507
aa(lp825
S'CA'
p826
aF-0.20318573414375113
aF-0.7788244472518283
aF-0.012752952730070155
aa(lp827
S'C'
p828
aF0.6055975153610198
aF0.14075516602531202
aF0.8936487188072082
aa(lp829
S'O'
p830
aF0.30800085105394287
aF0.27616707663786755
aF2.0797654246407977
aa(lp831
S'CB'
p832
aF0.6587428379217448
aF-1.988955924466497
aF-0.41782077978058063
aa(lp833
S'CG1'
p834
aF1.4642047803736444
aF-2.496115152071426
aF0.7818252418094258
aa(lp835
S'CG2'
p836
aF1.5841612146698991
aF-1.6219355446875903
aF-1.5669551795806234
aa(lp837
S'CD1'
p838
aF0.6542912368979046
aF-2.619562008142694
aF2.0523786353433877
aa(lp839
S'HA'
p840
aF-1.0625966427924793
aF-1.140387911194102
aF0.5491640799692756
aa(lp841
S'HB'
p842
aF0.011755239315163202
aF-2.806822065256229
aF-0.7315053713674067
aa(lp843
S'1HG1'
p844
aF1.8861616250310083
aF-3.473038469053444
aF0.5489341642996264
aa(lp845
S'2HG1'
p846
aF2.295976713633653
aF-1.817801314307982
aF0.9741265380597361
aa(lp847
S'1HG2'
p848
aF2.1859319037940788
aF-2.4886378807104452
aF-1.8410447606368032
aa(lp849
S'2HG2'
p850
aF0.9907465923249252
aF-1.3079841109124546
aF-2.42492638143863
aa(lp851
S'3HG2'
p852
aF2.2391126800440286
aF-0.8066187292403185
aF-1.2610858145680575
aa(lp853
S'1HD1'
p854
aF1.293696658328166
aF-2.984259123737928
aF2.856817396792724
aa(lp855
S'2HD1'
p856
aF0.25021145278889556
aF-1.6440098972090675
aF2.3229994160076664
aa(lp857
S'3HD1'
p858
aF-0.16423055619747562
aF-3.320583664888102
aF1.8942941294554227
aaa(lp859
(lp860
S'N'
p861
aF-0.6827381611413239
aF-0.07847693658562971
aF-1.203071641152559
aa(lp862
S'H'
p863
aF-0.01798958608267287
aF0.4260007837562905
aF-1.7719728290895438
aa(lp864
S'CA'
p865
aF-0.21361969816417126
aF-0.7694881750247609
aF-0.008134682127193128
aa(lp866
S'C'
p867
aF0.5850276989124077
aF0.1656966306417168
aF0.8916834741651501
aa(lp868
S'O'
p869
aF0.32931974647574686
aF0.25626769721238873
aF2.0914956782041396
aa(lp870
S'CB'
p871
aF0.6516717174075194
aF-1.9872183804497678
aF-0.380945509402247
aa(lp872
S'CG1'
p873
aF0.785723737892203
aF-2.099585994015717
aF-1.9023082456441562
aa(lp874
S'CG2'
p875
aF0.05684497882170514
aF-3.2603211691986598
aF0.19963647476807883
aa(lp876
S'CD1'
p877
aF0.24721014128025764
aF-3.3937862336516478
aF-2.4686127979747576
aa(lp878
S'HA'
p879
aF-1.0797572267756623
aF-1.1203911850701151
aF0.5506522710775975
aa(lp880
S'HB'
p881
aF1.6574866792746539
aF-1.8533300191932571
aF0.014620122578417438
aa(lp882
S'1HG1'
p883
aF0.2572985212716711
aF-1.2739368001332652
aF-2.376408655980201
aa(lp884
S'2HG1'
p885
aF1.8363956336909488
aF-2.0170152173794924
aF-2.181907305414322
aa(lp886
S'1HG2'
p887
aF0.6800557756196228
aF-4.110455927987171
aF-0.07482517037402014
aa(lp888
S'2HG2'
p889
aF0.011927314500756792
aF-3.178644973999986
aF1.2846735260109505
aa(lp890
S'3HG2'
p891
aF-0.9488387972139056
aF-3.4053598036961414
aF-0.19512033280065705
aa(lp892
S'1HD1'
p893
aF0.3780903978437933
aF-3.4000578776890946
aF-3.550553658152859
aa(lp894
S'2HD1'
p895
aF0.7880381843236375
aF-4.234735045936355
aF-2.0331140919206465
aa(lp896
S'3HD1'
p897
aF-0.8119653838785208
aF-3.481834323513768
aF-2.2309981082431256
aaa(lp898
(lp899
S'N'
p900
aF-0.6626275467059016
aF-0.1298830256631342
aF-1.2435630800209199
aa(lp901
S'H'
p902
aF-0.00015625533072771702
aF0.4523357819419346
aF-1.7362242700639914
aa(lp903
S'CA'
p904
aF-0.2611702071889827
aF-0.7592430650135202
aF0.00900506000854523
aa(lp905
S'C'
p906
aF0.5422561527531334
aF0.20187399856497665
aF0.8755505430897575
aa(lp907
S'O'
p908
aF0.3816978564724984
aF0.2349163101697055
aF2.0952317469866073
aa(lp909
S'CB'
p910
aF0.5671074487961277
aF-2.028972697389131
aF-0.25544301667777924
aa(lp911
S'CG1'
p912
aF-0.22404444433355453
aF-3.2771653433929115
aF0.14514130710361572
aa(lp913
S'CG2'
p914
aF1.8877112251520844
aF-1.968481352702198
aF0.49633385387116935
aa(lp915
S'CD1'
p916
aF-0.08158588401669063
aF-4.428003561459295
aF-0.8243585404622437
aa(lp917
S'HA'
p918
aF-1.1596313044246567
aF-1.041291105780334
aF0.5563317992180064
aa(lp919
S'HB'
p920
aF0.7714521140717716
aF-2.114785941482966
aF-1.3229730372914759
aa(lp921
S'1HG1'
p922
aF0.1034446853310142
aF-3.615519169216616
aF1.1268569270781559
aa(lp923
S'2HG1'
p924
aF-1.2824374557648577
aF-3.0268277891854347
aF0.22266770458736496
aa(lp925
S'1HG2'
p926
aF2.4613472651164945
aF-2.8737448722867915
aF0.2994439004371288
aa(lp927
S'2HG2'
p928
aF2.455931853546463
aF-1.1005297736467121
aF0.16459996370893104
aa(lp929
S'3HG2'
p930
aF1.6947710069751336
aF-1.8880709638921327
aF1.5660428056806062
aa(lp931
S'1HD1'
p932
aF-0.671788376666307
aF-5.274329505807623
aF-0.47264642296682535
aa(lp933
S'2HD1'
p934
aF-0.4384712085704308
aF-4.120774828224264
aF-1.8083307812256462
aa(lp935
S'3HD1'
p936
aF0.9651479555843299
aF-4.718722354376696
aF-0.8914245711988774
aaa(lp937
(lp938
S'N'
p939
aF-0.6649142273351986
aF-0.12557984336351236
aF-1.2321680133926671
aa(lp940
S'H'
p941
aF-0.009873445363705324
aF0.4768464811286847
aF-1.7090318278229475
aa(lp942
S'CA'
p943
aF-0.2558743051064853
aF-0.7822019297965737
aF0.00418581040997669
aa(lp944
S'C'
p945
aF0.5868232505922344
aF0.14654469427493
aF0.86921617860244
aa(lp946
S'O'
p947
aF0.34383872721314634
aF0.2843905977564777
aF2.067797852203199
aa(lp948
S'CB'
p949
aF0.5382061266922561
aF-2.0668692773119606
aF-0.2946570815284236
aa(lp950
S'CG1'
p951
aF2.018261086762327
aF-1.7414914117514813
aF-0.5127202828607176
aa(lp952
S'CG2'
p953
aF-0.036852392044044446
aF-2.778440516012039
aF-1.5094505093521213
aa(lp954
S'CD1'
p955
aF2.9623965336798035
aF-2.761004769087246
aF0.08321828116068278
aa(lp956
S'HA'
p957
aF-1.1495292908650678
aF-1.052806344467247
aF0.5644491566941789
aa(lp958
S'HB'
p959
aF0.4860274115065486
aF-2.734593218342554
aF0.5648783280133484
aa(lp960
S'1HG1'
p961
aF2.2218181742874865
aF-1.6704712080788258
aF-1.5806213282710915
aa(lp962
S'2HG1'
p963
aF2.246405667819413
aF-0.769554210514057
aF-0.07273604793286195
aa(lp964
S'1HG2'
p965
aF0.5361660244544568
aF-3.684094756951199
aF-1.7064030168824085
aa(lp966
S'2HG2'
p967
aF-1.0765687015735215
aF-3.0421875828775335
aF-1.3169317299609895
aa(lp968
S'3HG2'
p969
aF0.01568373727635275
aF-2.119992695855249
aF-2.3760446607556505
aa(lp970
S'1HD1'
p971
aF3.9919088568247796
aF-2.460960113819597
aF-0.11161647276672029
aa(lp972
S'2HD1'
p973
aF2.8005189967830457
aF-2.822014906911065
aF1.1593420780032941
aa(lp974
S'3HD1'
p975
aF2.77740568354243
aF-3.734467962823385
aF-0.3678757176981946
aaa(lp976
(lp977
S'N'
p978
aF-0.6649185928484461
aF-0.12063779187533608
aF-1.2459100722186538
aa(lp979
S'H'
p980
aF0.008230596305511595
aF0.41961844018112926
aF-1.7713416784868
aa(lp981
S'CA'
p982
aF-0.2544796431102293
aF-0.738840682151239
aF0.009158473715118298
aa(lp983
S'C'
p984
aF0.495859159578786
aF0.25049548613832817
aF0.8906547172087133
aa(lp985
S'O'
p986
aF0.4153084800743999
aF0.18936454770708144
aF2.117438559781597
aa(lp987
S'CB'
p988
aF0.6310479920505163
aF-1.9715764943822243
aF-0.2493356744000843
aa(lp989
S'CG1'
p990
aF0.314265912786151
aF-2.5790838925507282
aF-1.618578120217289
aa(lp991
S'CG2'
p992
aF0.4398438381601658
aF-3.003975665190061
aF0.8512109732484185
aa(lp993
S'CD1'
p994
aF-1.0854906139495182
aF-3.1406430006764037
aF-1.728209474956627
aa(lp995
S'HA'
p996
aF-1.1467033613099742
aF-1.0615210686107666
aF0.543595752426266
aa(lp997
S'HB'
p998
aF1.6769676022179056
aF-1.6692020359380348
aF-0.2739904091969577
aa(lp999
S'1HG1'
p1000
aF0.43835914895737726
aF-1.820242175394993
aF-2.3901985690395553
aa(lp1001
S'2HG1'
p1002
aF1.0199892208424701
aF-3.3810235251182865
aF-1.8339207267387392
aa(lp1003
S'1HG2'
p1004
aF1.0724186099196635
aF-3.867851673897179
aF0.6528441420652075
aa(lp1005
S'2HG2'
p1006
aF0.7146371238626018
aF-2.566479545449744
aF1.8106753005399683
aa(lp1007
S'3HG2'
p1008
aF-0.6040841506025074
aF-3.316505640639499
aF0.8798530528430588
aa(lp1009
S'1HD1'
p1010
aF-1.2348815424244575
aF-3.5540569283096444
aF-2.726342870314315
aa(lp1011
S'2HD1'
p1012
aF-1.2205149486290283
aF-3.928710887359852
aF-0.985439365822828
aa(lp1013
S'3HD1'
p1014
aF-1.8108918718915854
aF-2.348047314736209
aF-1.5521666006189854
aaa(lp1015
(lp1016
S'N'
p1017
aF-0.6690099189299274
aF-0.1069200979519968
aF-1.2404326910506702
aa(lp1018
S'H'
p1019
aF0.006909716750025718
aF0.40158635436184037
aF-1.791431633025594
aa(lp1020
S'CA'
p1021
aF-0.24276573447736643
aF-0.7325466364746894
aF0.006485642087635732
aa(lp1022
S'C'
p1023
aF0.4871553606573652
aF0.26198510201693154
aF0.8994597828163323
aa(lp1024
S'O'
p1025
aF0.4177105759999622
aF0.17589527804788196
aF2.12591889917239
aa(lp1026
S'CB'
p1027
aF0.6697221283070521
aF-1.941811947777086
aF-0.26973221966618893
aa(lp1028
S'CG1'
p1029
aF0.5364629175815022
aF-2.977184644872955
aF0.8487141853373205
aa(lp1030
S'CG2'
p1031
aF2.1166507068528215
aF-1.4935232087852754
aF-0.4149627091670114
aa(lp1032
S'CD1'
p1033
aF1.715954071657797
aF-3.9165479599275894
aF0.9557196982108564
aa(lp1034
S'HA'
p1035
aF-1.1269167135288976
aF-1.0828129689226373
aF0.5371677904548733
aa(lp1036
S'HB'
p1037
aF0.3568016539697141
aF-2.431046947468969
aF-1.191371461352953
aa(lp1038
S'1HG1'
p1039
aF0.4178447800745134
aF-2.4679553134611165
aF1.8043041735039105
aa(lp1040
S'2HG1'
p1041
aF-0.3605843390869369
aF-3.5761418405787473
aF0.6853664059955835
aa(lp1042
S'1HG2'
p1043
aF2.748143729255879
aF-2.3600750166844304
aF-0.6097228870344806
aa(lp1044
S'2HG2'
p1045
aF2.197914012760609
aF-0.7924192084767869
aF-1.2448075475942497
aa(lp1046
S'3HG2'
p1047
aF2.4403517380619455
aF-1.0068617955290793
aF0.5048999497346468
aa(lp1048
S'1HD1'
p1049
aF1.5477770962001742
aF-4.621696389363023
aF1.7706093823955777
aa(lp1050
S'2HD1'
p1051
aF1.8321635325810086
aF-4.464667166648648
aF0.019897761934821956
aa(lp1052
S'3HD1'
p1053
aF2.620952408232215
aF-3.3428317362151407
aF1.154909822079111
aaa(lp1054
(lp1055
S'N'
p1056
aF-0.6705664274580588
aF-0.10604477647414567
aF-1.236991581114716
aa(lp1057
S'H'
p1058
aF0.003561957322417153
aF0.40804318842053333
aF-1.7861568432933408
aa(lp1059
S'CA'
p1060
aF-0.24105015644092034
aF-0.7380580659128029
aF0.005051081157581794
aa(lp1061
S'C'
p1062
aF0.5032449550782017
aF0.24756142870766112
aF0.8965178493507887
aa(lp1063
S'O'
p1064
aF0.4048096714983267
aF0.18849822525876325
aF2.121579493899702
aa(lp1065
S'CB'
p1066
aF0.6583257551102103
aF-1.9545914544658607
aF-0.28114026087984434
aa(lp1067
S'CG1'
p1068
aF0.7354656029632572
aF-2.2190339516609594
aF-1.7870249209884603
aa(lp1069
S'CG2'
p1070
aF0.14134878993281552
aF-3.181742087384486
aF0.4527222205179867
aa(lp1071
S'CD1'
p1072
aF1.6583186945220276
aF-3.3574365631494807
aF-2.1602415679330247
aa(lp1073
S'HA'
p1074
aF-1.1254333757605102
aF-1.0808611950886717
aF0.5406734630771167
aa(lp1075
S'HB'
p1076
aF1.672903391305746
aF-1.7428857380718097
aF0.0538790068913777
aa(lp1077
S'1HG1'
p1078
aF-0.25947238424895835
aF-2.4481329900173567
aF-2.167052593962782
aa(lp1079
S'2HG1'
p1080
aF1.0805253235675876
aF-1.3199366818153164
aF-2.2978281008655737
aa(lp1081
S'1HG2'
p1082
aF0.7887361499763486
aF-4.032307758175779
aF0.23937591582250417
aa(lp1083
S'2HG2'
p1084
aF0.13758934692900798
aF-2.989090224275011
aF1.5253732011397119
aa(lp1085
S'3HG2'
p1086
aF-0.8723839330146292
aF-3.404541973138744
aF0.12073701402008696
aa(lp1087
S'1HD1'
p1088
aF1.6606549795157293
aF-3.4836601497971817
aF-3.243054177735028
aa(lp1089
S'2HD1'
p1090
aF2.6690557072414123
aF-3.132374648447854
aF-1.8191509265047778
aa(lp1091
S'3HD1'
p1092
aF1.3115450114537492
aF-4.275646528374193
aF-1.6885250508453993
aaa(lp1093
(lp1094
S'N'
p1095
aF-0.6700108348857052
aF-0.08947948100463116
aF-1.239448499783231
aa(lp1096
S'H'
p1097
aF0.012075138987821088
aF0.36379412598057004
aF-1.8302655285287044
aa(lp1098
S'CA'
p1099
aF-0.22957461424160322
aF-0.7122295413665493
aF0.0035576538073126274
aa(lp1100
S'C'
p1101
aF0.4354433769472968
aF0.3033367825030223
aF0.9236544493767416
aa(lp1102
S'O'
p1103
aF0.4520669331921965
aF0.134578113887586
aF2.142501925127876
aa(lp1104
S'CB'
p1105
aF0.7459755842400018
aF-1.868702033500832
aF-0.27688340092473407
aa(lp1106
S'CG1'
p1107
aF0.7710577343679631
aF-2.8447068570680365
aF0.9023648639111751
aa(lp1108
S'CG2'
p1109
aF2.1414047337754676
aF-1.331199348314458
aF-0.5564497652180291
aa(lp1110
S'CD1'
p1111
aF-0.4433812252685581
aF-2.7515852296268157
aF1.7971169948500556
aa(lp1112
S'HA'
p1113
aF-1.1033611498303602
aF-1.1150083885915065
aF0.5168171305361242
aa(lp1114
S'HB'
p1115
aF0.4036420243781128
aF-2.43223624044954
aF-1.1439168093877412
aa(lp1116
S'1HG1'
p1117
aF0.8411951983505743
aF-3.865555575175243
aF0.5286823370451694
aa(lp1118
S'2HG1'
p1119
aF1.6564316711866498
aF-2.658949865794636
aF1.5110234974614014
aa(lp1120
S'1HG2'
p1121
aF2.819082908579596
aF-2.1628172550048177
aF-0.751616229207325
aa(lp1122
S'2HG2'
p1123
aF2.111242348993282
aF-0.6762939812859673
aF-1.4263400978356162
aa(lp1124
S'3HG2'
p1125
aF2.4959685502017073
aF-0.7712895404408064
aF0.30877130891744553
aa(lp1126
S'1HD1'
p1127
aF-0.35281889342716244
aF-3.4729944232286893
aF2.6100328819122707
aa(lp1128
S'2HD1'
p1129
aF-0.5139900259062256
aF-1.7460585668590856
aF2.212054975439563
aa(lp1130
S'3HD1'
p1131
aF-1.3396241128312183
aF-2.969402942495365
aF1.2178518306514279
aaa(lp1132
(lp1133
S'N'
p1134
aF-0.6541644536581447
aF-0.1435556577326595
aF-1.2583181953318068
aa(lp1135
S'H'
p1136
aF0.008746214762129167
aF0.44587764797786805
aF-1.739917431018229
aa(lp1137
S'CA'
p1138
aF-0.27574481240172743
aF-0.7456697957523515
aF0.014608016162077853
aa(lp1139
S'C'
p1140
aF0.504706692273614
aF0.23741547927311346
aF0.8781783901780627
aa(lp1141
S'O'
p1142
aF0.41645635902410816
aF0.20593232623403146
aF2.105449220009882
aa(lp1143
S'CB'
p1144
aF0.565859115817262
aF-2.016083496651259
aF-0.2070242391048469
aa(lp1145
S'CG1'
p1146
aF2.0429566960692367
aF-1.653667377960708
aF-0.38278059127181324
aa(lp1147
S'CG2'
p1148
aF0.05652916445914247
aF-2.787472712187088
aF-1.4139047960799542
aa(lp1149
S'CD1'
p1150
aF2.268974208880725
aF-0.34471825750723284
aF-1.1046595866488658
aa(lp1151
S'HA'
p1152
aF-1.1832973552007033
aF-1.02203761139821
aF0.5497362368104106
aa(lp1153
S'HB'
p1154
aF0.5011439499801233
aF-2.6530432749539745
aF0.6743316414197148
aa(lp1155
S'1HG1'
p1156
aF2.521251384213061
aF-1.5924336816782108
aF0.5943676194582608
aa(lp1157
S'2HG1'
p1158
aF2.5469716764426042
aF-2.4420694626105552
aF-0.9431376671430891
aa(lp1159
S'1HG2'
p1160
aF0.6631101224092778
aF-3.6817825534364337
aF-1.556955309175395
aa(lp1161
S'2HG2'
p1162
aF-0.9816323774305169
aF-3.0751092158378457
aF-1.2506049041361176
aa(lp1163
S'3HG2'
p1164
aF0.1224627663729829
aF-2.1593813500321613
aF-2.3020331657006063
aa(lp1165
S'1HD1'
p1166
aF3.339366753646697
aF-0.15724022829093853
aF-1.1912493589698603
aa(lp1167
S'2HD1'
p1168
aF1.8277651633266747
aF-0.3971915598914938
aF-2.1004869465151046
aa(lp1169
S'3HD1'
p1170
aF1.8037013715198678
aF0.464434431147026
aF-0.5430947077098787
aaa(lp1171
(lp1172
S'N'
p1173
aF-0.6700415341241456
aF-0.1084796896359023
aF-1.2363720716212654
aa(lp1174
S'H'
p1175
aF0.0018832228962366582
aF0.41632278920038035
aF-1.7769324097061021
aa(lp1176
S'CA'
p1177
aF-0.24320807033407466
aF-0.7437162040887383
aF0.005103165705190496
aa(lp1178
S'C'
p1179
aF0.5148160055697835
aF0.2364037693131407
aF0.891587986832321
aa(lp1180
S'O'
p1181
aF0.3965503759921969
aF0.19946933521111632
aF2.1166133287898576
aa(lp1182
S'CB'
p1183
aF0.6428988515263957
aF-1.9691695608211224
aF-0.2811826940648904
aa(lp1184
S'CG1'
p1185
aF1.5300504641978532
aF-1.713218149376317
aF-1.503395806052258
aa(lp1186
S'CG2'
p1187
aF-0.21498330497265083
aF-3.207633154822155
aF-0.49307212724783556
aa(lp1188
S'CD1'
p1189
aF2.9717900129395503
aF-1.4177706716523855
aF-1.1585960648971168
aa(lp1190
S'HA'
p1191
aF-1.1280910827353854
aF-1.077256442189146
aF0.5449308826033744
aa(lp1192
S'HB'
p1193
aF1.3107119522584696
aF-2.141252724238893
aF0.5619211235985959
aa(lp1194
S'1HG1'
p1195
aF1.5065947041933203
aF-2.583362070724555
aF-2.1580020873109413
aa(lp1196
S'2HG1'
p1197
aF1.1354389608242648
aF-0.8685386447014544
aF-2.0683916430169775
aa(lp1198
S'1HG2'
p1199
aF0.4274497761170002
aF-4.06431755144806
aF-0.6948209336863582
aa(lp1200
S'2HG2'
p1201
aF-0.803421667394912
aF-3.3992781107003847
aF0.4028388641549041
aa(lp1202
S'3HG2'
p1203
aF-0.8823903715206787
aF-3.047782565248544
aF-1.3390393822493067
aa(lp1204
S'1HD1'
p1205
aF3.5368488653502066
aF-1.2469320241377186
aF-2.0758025028529956
aa(lp1206
S'2HD1'
p1207
aF3.0211733549046533
aF-0.5270027208937402
aF-0.5311450760242002
aa(lp1208
S'3HD1'
p1209
aF3.398877535922934
aF-2.263403003362385
aF-0.6226415824281036
aaa.