(lp0
(lp1
(lp2
S'N'
p3
aF0.35960000000000036
aF0.9282000000000039
aF0.7040000000000006
aa(lp4
S'H'
p5
aF0.2896000000000072
aF1.465200000000003
aF-0.1490000000000009
aa(lp6
S'CA'
p7
aF0.7155999999999949
aF-0.48380000000000223
aF0.6270000000000024
aa(lp8
S'C'
p9
aF-0.18240000000000123
aF-1.2248000000000019
aF-0.355000000000004
aa(lp10
S'O'
p11
aF-1.1824000000000012
aF-0.6848000000000027
aF-0.8269999999999982
aa(lp12
S'CB'
p13
aF0.6216000000000008
aF-1.149799999999999
aF2.012999999999998
aa(lp14
S'CG1'
p15
aF1.70859999999999
aF-0.602800000000002
aF2.942
aa(lp16
S'CG2'
p17
aF0.7365999999999815
aF-2.660800000000002
aF1.884999999999998
aa(lp18
S'CD1'
p19
aF1.887599999999992
aF-1.4057999999999993
aF4.210000000000001
aa(lp20
S'HA'
p21
aF1.7435999999999865
aF-0.5617999999999981
aF0.27599999999999625
aa(lp22
S'HB'
p23
aF-0.3363999999999976
aF-0.9048000000000016
aF2.469999999999999
aa(lp24
S'1HG1'
p25
aF2.661599999999993
aF-0.5818000000000012
aF2.4140000000000015
aa(lp26
S'2HG1'
p27
aF1.4676000000000045
aF0.42320000000000135
aF3.219999999999999
aa(lp28
S'1HG2'
p29
aF0.6685999999999979
aF-3.1148000000000025
aF2.8729999999999976
aa(lp30
S'2HG2'
p31
aF-0.07140000000001123
aF-3.034799999999997
aF1.2580000000000027
aa(lp32
S'3HG2'
p33
aF1.6946000000000083
aF-2.9157999999999973
aF1.4320000000000022
aa(lp34
S'1HD1'
p35
aF2.674599999999998
aF-0.9568000000000012
aF4.817
aa(lp36
S'2HD1'
p37
aF0.9535999999999945
aF-1.409799999999997
aF4.772999999999996
aa(lp38
S'3HD1'
p39
aF2.164600000000007
aF-2.4277999999999977
aF3.9579999999999984
aaa(lp40
(lp41
S'N'
p42
aF0.4507440855875866
aF0.9386133116244324
aF0.6922432957777419
aa(lp43
S'H'
p44
aF0.19276990825916362
aF1.3996927930561975
aF-0.1679869266826981
aa(lp45
S'CA'
p46
aF0.686221478599286
aF-0.50063263355884
aF0.6840270524803459
aa(lp47
S'C'
p48
aF-0.16175901989051833
aF-1.1907028786596088
aF-0.3762427862906873
aa(lp49
S'O'
p50
aF-1.1679764525555196
aF-0.6469705924621758
aF-0.8320406352846981
aa(lp51
S'CB'
p52
aF0.384359831983267
aF-1.1144369657551156
aF2.0629787514456677
aa(lp53
S'CG1'
p54
aF0.9137597897828169
aF-2.548291152677541
aF2.137166724371646
aa(lp55
S'CG2'
p56
aF-1.1100394036857952
aF-1.0812601446837755
aF2.3450004225550383
aa(lp57
S'CD1'
p58
aF0.9862647528632068
aF-3.101423019818938
aF3.542319444854862
aa(lp59
S'HA'
p60
aF1.734891204213122
aF-0.6781813050775014
aF0.4500050966237159
aa(lp61
S'HB'
p62
aF0.9029345913493878
aF-0.5466890348002527
aF2.8354394338398214
aa(lp63
S'1HG1'
p64
aF0.2761106661347602
aF-3.2034348093109037
aF1.545156264764777
aa(lp65
S'2HG1'
p66
aF1.9142275876642338
aF-2.5896505378870103
aF1.7036202024649387
aa(lp67
S'1HG2'
p68
aF-1.3059417028177494
aF-1.5185243111010824
aF3.3234422133439385
aa(lp69
S'2HG2'
p70
aF-1.4595257039864764
aF-0.049585287534311906
aF2.333197243840075
aa(lp71
S'3HG2'
p72
aF-1.6373531522968634
aF-1.6511916435475407
aF1.5799466354729508
aa(lp73
S'1HD1'
p74
aF1.371963943381222
aF-4.120409048265579
aF3.5131028696912634
aa(lp75
S'2HD1'
p76
aF1.6504639463244375
aF-2.479468024863472
aF4.144259986482847
aa(lp77
S'3HD1'
p78
aF-0.00868624825621514
aF-3.1030037659217165
aF3.9845671204996504
aaa(lp79
(lp80
S'N'
p81
aF0.42398454872594826
aF0.9444702488675952
aF0.7043010517141224
aa(lp82
S'H'
p83
aF0.2588560301868807
aF1.4255555785927196
aF-0.16793084284623755
aa(lp84
S'CA'
p85
aF0.660793014560432
aF-0.4944843218948006
aF0.6876429068261989
aa(lp86
S'C'
p87
aF-0.13454816555988897
aF-1.1703567451603092
aF-0.4220732166369199
aa(lp88
S'O'
p89
aF-1.209085427913345
aF-0.7051847604052343
aF-0.8019398990571567
aa(lp90
S'CB'
p91
aF0.29262893701606557
aF-1.1267759673275304
aF2.041730233080261
aa(lp92
S'CG1'
p93
aF0.8931264056964634
aF-2.5306734727828095
aF2.1572663066022124
aa(lp94
S'CG2'
p95
aF-1.217499005674598
aF-1.1750370635810687
aF2.214225054142454
aa(lp96
S'CD1'
p97
aF2.3907575163812047
aF-2.539007546590696
aF2.3602948748455894
aa(lp98
S'HA'
p99
aF1.7194051762529718
aF-0.6688831596069602
aF0.5021076365369578
aa(lp100
S'HB'
p101
aF0.7220440037277209
aF-0.5345307712932984
aF2.8489144303087572
aa(lp102
S'1HG1'
p103
aF0.4319314517004688
aF-3.056844417172676
aF2.9912857018733963
aa(lp104
S'2HG1'
p105
aF0.6703984094363965
aF-3.0966168879540152
aF1.251402469976465
aa(lp106
S'1HG2'
p107
aF-1.4601236267067894
aF-1.6257063295347303
aF3.176219080108197
aa(lp108
S'2HG2'
p109
aF-1.6206519220662576
aF-0.16488024413718727
aF2.175457462833097
aa(lp110
S'3HG2'
p111
aF-1.655940633601903
aF-1.7715020976586187
aF1.4134995068896363
aa(lp112
S'1HD1'
p113
aF2.742600004812615
aF-3.5687415706368606
aF2.4320772059312397
aa(lp114
S'2HD1'
p115
aF2.8759770519417316
aF-2.047873256909898
aF1.5162130590183764
aa(lp116
S'3HD1'
p117
aF2.6359577449655083
aF-2.0083298024171263
aF3.2793242431146696
aaa(lp118
(lp119
S'N'
p120
aF0.37291038002176163
aF0.9253618990336017
aF0.7041040294508704
aa(lp121
S'H'
p122
aF0.26017095252711214
aF1.4574604498220831
aF-0.14785192817662052
aa(lp123
S'CA'
p124
aF0.7310869500027433
aF-0.48487348413607967
aF0.6170023143533796
aa(lp125
S'C'
p126
aF-0.2038229320719626
aF-1.2341151063798526
aF-0.3250430687872508
aa(lp127
S'O'
p128
aF-1.1603453504796513
aF-0.6638337583397533
aF-0.8482113468403799
aa(lp129
S'CB'
p130
aF0.697676865648696
aF-1.146632348380214
aF2.0066770863262198
aa(lp131
S'CG1'
p132
aF2.0059727526230997
aF-0.8786921627003406
aF2.7571009192524505
aa(lp133
S'CG2'
p134
aF0.45111597312162144
aF-2.641846271653516
aF1.8793230525231552
aa(lp135
S'CD1'
p136
aF2.51167283174209
aF0.5387310609441927
aF2.6143429595717964
aa(lp137
S'HA'
p138
aF1.7434971728831152
aF-0.5613802416788995
aF0.2238086513098342
aa(lp139
S'HB'
p140
aF-0.1023009700696082
aF-0.7053546627313911
aF2.6007902628404884
aa(lp141
S'1HG1'
p142
aF1.8656635859543433
aF-1.0857687243474503
aF3.817220551824704
aa(lp143
S'2HG1'
p144
aF2.7792568776922604
aF-1.5538852109638714
aF2.391681968604531
aa(lp145
S'1HG2'
p146
aF0.43155747276551676
aF-3.0934815515651573
aF2.8704476859588066
aa(lp147
S'2HG2'
p148
aF-0.5049758685621449
aF-2.8111992933375065
aF1.3844180673873792
aa(lp149
S'3HG2'
p150
aF1.2490540656079463
aF-3.093541827697936
aF1.289825872539225
aa(lp151
S'1HD1'
p152
aF3.4417762864231056
aF0.6506694447039283
aF3.1731240990456477
aa(lp153
S'2HD1'
p154
aF2.6926284225747827
aF0.7558571903109625
aF1.5610698145174866
aa(lp155
S'3HD1'
p156
aF1.768251222277978
aF1.2309010411342902
aF3.006576345587611
aaa(lp157
(lp158
S'N'
p159
aF0.3528332760809684
aF0.92524703330695
aF0.7034169792140726
aa(lp160
S'H'
p161
aF0.2927630271430206
aF1.4737081258415285
aF-0.14278098531214245
aa(lp162
S'CA'
p163
aF0.7247445281355877
aF-0.48081193072687217
aF0.6138948576166995
aa(lp164
S'C'
p165
aF-0.19386216333525536
aF-1.2345284410460782
aF-0.3387111304272794
aa(lp166
S'O'
p167
aF-1.1764786680243215
aF-0.6836147873755364
aF-0.8358197210913494
aa(lp168
S'CB'
p169
aF0.6883692876074986
aF-1.1485445995155334
aF2.0007827135404916
aa(lp170
S'CG1'
p171
aF-0.4240100059273786
aF-0.5378159599002009
aF2.857287725824982
aa(lp172
S'CG2'
p173
aF2.0344412227552864
aF-1.0109657746345897
aF2.6936545720770244
aa(lp174
S'CD1'
p175
aF-1.1726671278652339
aF-1.5484341863442874
aF3.6968657830363023
aa(lp176
S'HA'
p177
aF1.741464365603788
aF-0.5451367662330077
aF0.22778983610604486
aa(lp178
S'HB'
p179
aF0.45380112206454526
aF-2.207410251729914
aF1.8890003076152897
aa(lp180
S'1HG1'
p181
aF-8.053397856788713e-05
aF0.2127660337296292
aF3.5234314593028833
aa(lp182
S'2HG1'
p183
aF-1.1443098661475686
aF-0.031467811339012386
aF2.2129891430115216
aa(lp184
S'1HG2'
p185
aF1.9902357449120356
aF-1.4876274956579723
aF3.673244526823234
aa(lp186
S'2HG2'
p187
aF2.8042585527719774
aF-1.4905427192819658
aF2.091313943720727
aa(lp188
S'3HG2'
p189
aF2.2747276260461518
aF0.045834328901531024
aF2.814819689002578
aa(lp190
S'1HD1'
p191
aF-1.945164178388611
aF-1.0394732639515702
aF4.274908243768939
aa(lp192
S'2HD1'
p193
aF-1.6361906435274083
aF-2.289884202018272
aF3.045885119202712
aa(lp194
S'3HD1'
p195
aF-0.47890439671949725
aF-2.042090138917574
aF4.374626119263034
aaa(lp196
(lp197
S'N'
p198
aF0.4264406096400353
aF0.9433807774800228
aF0.7031989442050044
aa(lp199
S'H'
p200
aF0.2519804878964753
aF1.4230744899163976
aF-0.16835518961011436
aa(lp201
S'CA'
p202
aF0.663260081718519
aF-0.4951348210978184
aF0.6870927251362614
aa(lp203
S'C'
p204
aF-0.13694856405720612
aF-1.1728186642443685
aF-0.4171521444302429
aa(lp205
S'O'
p206
aF-1.2047326151977984
aF-0.6985017820542164
aF-0.8047843353009082
aa(lp207
S'CB'
p208
aF0.3026655327539678
aF-1.1258710600006612
aF2.0451462469798414
aa(lp209
S'CG1'
p210
aF-0.05695409344748241
aF-0.037473915376985995
aF3.0600213033418404
aa(lp211
S'CG2'
p212
aF1.453201783121284
aF-1.9769874598023636
aF2.5579670837048103
aa(lp213
S'CD1'
p214
aF1.0214332923985059
aF0.2207701819886892
aF4.086331018887804
aa(lp215
S'HA'
p216
aF1.7219238409764468
aF-0.6684145687484856
aF0.4975269743056174
aa(lp217
S'HB'
p218
aF-0.5796526575554168
aF-1.7543144844818888
aF1.93062780621381
aa(lp219
S'1HG1'
p220
aF-0.26058243915437085
aF0.8959578235237419
aF2.5365419000818723
aa(lp221
S'2HG1'
p222
aF-0.9683746244831373
aF-0.3199405931165533
aF3.5885496295207315
aa(lp223
S'1HG2'
p224
aF1.181815175334468
aF-2.415428618627316
aF3.518081482806409
aa(lp225
S'2HG2'
p226
aF1.6639641034444068
aF-2.7726383659881515
aF1.8441968967274218
aa(lp227
S'3HG2'
p228
aF2.339789293953941
aF-1.355183613052892
aF2.6811277990449214
aa(lp229
S'1HD1'
p230
aF0.6929676120433024
aF1.0033539996873895
aF4.771029394163317
aa(lp231
S'2HD1'
p232
aF1.2172863857898688
aF-0.694167333559319
aF4.648456368300108
aa(lp233
S'3HD1'
p234
aF1.9336782234122971
aF0.5387507626302046
aF3.5829439549156277
aaa(lp235
(lp236
S'N'
p237
aF0.39934253648964446
aF0.9495666769234081
aF0.7114388411006665
aa(lp238
S'H'
p239
aF0.31890539806041757
aF1.4517059138166972
aF-0.16103181945677952
aa(lp240
S'CA'
p241
aF0.6411484452902207
aF-0.48739596267260127
aF0.6846568532282272
aa(lp242
S'C'
p243
aF-0.11902276647523083
aF-1.1531361352138279
aF-0.455816185237748
aa(lp244
S'O'
p245
aF-1.2403736133650438
aF-0.7607404928536662
aF-0.7792476896343667
aa(lp246
S'CB'
p247
aF0.23615037587069643
aF-1.138126772774273
aF2.02021627779566
aa(lp248
S'CG1'
p249
aF1.4290218696958608
aF-1.1750781673598414
aF2.978477825421098
aa(lp250
S'CG2'
p251
aF-0.30779131848968344
aF-2.538868323462248
aF1.7863262581013488
aa(lp252
S'CD1'
p253
aF1.0393947179870475
aF-1.162684110701508
aF4.438901760451886
aa(lp254
S'HA'
p255
aF1.7056900451347285
aF-0.6562230134982194
aF0.5274098847041175
aa(lp256
S'HB'
p257
aF-0.5350043136025403
aF-0.5348962537615518
aF2.4991770129661783
aa(lp258
S'1HG1'
p259
aF2.01839714455807
aF-2.0726451819112723
aF2.7903921008954646
aa(lp260
S'2HG1'
p261
aF2.0741083443731942
aF-0.31663122399864085
aF2.7915064756848804
aa(lp262
S'1HG2'
p263
aF-0.5878103533238757
aF-2.984457603439008
aF2.7403962417505126
aa(lp264
S'2HG2'
p265
aF-1.1820659213360458
aF-2.4867674876356944
aF1.139409399668974
aa(lp266
S'3HG2'
p267
aF0.45794510989555515
aF-3.1521804585961313
aF1.311238953344285
aa(lp268
S'1HD1'
p269
aF1.9378816316639598
aF-1.1904985915057786
aF5.0561380366127455
aa(lp270
S'2HD1'
p271
aF0.47741692602142716
aF-0.2530604119211033
aF4.657450812050147
aa(lp272
S'3HD1'
p273
aF0.42222494217079154
aF-2.0323224357896525
aF4.659030475881743
aaa(lp274
(lp275
S'N'
p276
aF0.3683876443754131
aF0.9500252375381149
aF0.7119988423531183
aa(lp277
S'H'
p278
aF0.3616769475528985
aF1.474086525167969
aF-0.1515633924371122
aa(lp279
S'CA'
p280
aF0.6416728844992209
aF-0.48166350693970694
aF0.6718551446413196
aa(lp281
S'C'
p282
aF-0.11885232685763694
aF-1.1556257312557445
aF-0.463869436005592
aa(lp283
S'O'
p284
aF-1.252885149569886
aF-0.7868225245106398
aF-0.7684211585517067
aa(lp285
S'CB'
p286
aF0.26948342127039215
aF-1.1499633413618016
aF2.0079170199947116
aa(lp287
S'CG1'
p288
aF1.4841887390886295
aF-1.8680721644733147
aF2.6019916862054897
aa(lp289
S'CG2'
p290
aF-0.8847099424500916
aF-2.1203900834316163
aF1.8135909604469376
aa(lp291
S'CD1'
p292
aF1.1849683382384546
aF-2.6170641901625498
aF3.88109492565452
aa(lp293
S'HA'
p294
aF1.7075135977265794
aF-0.6257319050254173
aF0.49956506744581564
aa(lp295
S'HB'
p296
aF-0.02773465781230189
aF-0.3856932508237682
aF2.7254841890983403
aa(lp297
S'1HG1'
p298
aF1.8785065533014147
aF-2.5771773460176464
aF1.8756795612196573
aa(lp299
S'2HG1'
p300
aF2.27012270550768
aF-1.1419535453518643
aF2.809453854790431
aa(lp301
S'1HG2'
p302
aF-1.1346588058336677
aF-2.583919284876851
aF2.76699603967654
aa(lp303
S'2HG2'
p304
aF-1.7520800564153944
aF-1.583056751108779
aF1.4333187219457992
aa(lp305
S'3HG2'
p306
aF-0.5949935467078564
aF-2.892186673087292
aF1.0994989255984988
aa(lp307
S'1HD1'
p308
aF2.094046970832249
aF-3.0988896966191906
aF4.240551767416095
aa(lp309
S'2HD1'
p310
aF0.82070806038986
aF-1.917692747724085
aF4.634807759221265
aa(lp311
S'3HD1'
p312
aF0.4256437239475386
aF-3.37330279205208
aF3.689435573823966
aaa(lp313
(lp314
S'N'
p315
aF0.3470601119461586
aF0.9304014486950545
aF0.7038650601941139
aa(lp316
S'H'
p317
aF0.3155552677666777
aF1.475555491869178
aF-0.14614877146048527
aa(lp318
S'CA'
p319
aF0.70637862045216
aF-0.48123881536155694
aF0.6292596023562205
aa(lp320
S'C'
p321
aF-0.17131696615713454
aF-1.2205603956597342
aF-0.3730552474549409
aa(lp322
S'O'
p323
aF-1.1976770340078615
aF-0.7041577295429404
aF-0.8139206436349056
aa(lp324
S'CB'
p325
aF0.5874728535709552
aF-1.151520636661279
aF2.009825681411301
aa(lp326
S'CG1'
p327
aF1.8188045459068465
aF-0.8388619058542548
aF2.863122688027035
aa(lp328
S'CG2'
p329
aF0.4087529617240093
aF-2.654077535762448
aF1.8570547246764102
aa(lp330
S'CD1'
p331
aF3.03463375606446
aF-1.6624330697795096
aF2.505644199613659
aa(lp332
S'HA'
p333
aF1.7409998312964565
aF-0.5569271944100009
aF0.296701006995791
aa(lp334
S'HB'
p335
aF-0.2742162667590072
aF-0.744639466801667
aF2.5385444852367827
aa(lp336
S'1HG1'
p337
aF2.0764352243175015
aF0.21459180816866286
aF2.7576584478648596
aa(lp338
S'2HG1'
p339
aF1.5867864817136819
aF-1.0131874574548065
aF3.913991956750419
aa(lp340
S'1HG2'
p341
aF0.3270849828477873
aF-3.112369692588313
aF2.8421682410886904
aa(lp342
S'2HG2'
p343
aF-0.49618346530288326
aF-2.8566882758987657
aF1.2866014391032503
aa(lp344
S'3HG2'
p345
aF1.2686683426975818
aF-3.0709737835458775
aF1.3329783407883595
aa(lp346
S'1HD1'
p347
aF3.8667769184878846
aF-1.3837908600318465
aF3.1539329286371416
aa(lp348
S'2HD1'
p349
aF2.809178822953112
aF-2.720785798042167
aF2.6382510460234485
aa(lp350
S'3HD1'
p351
aF3.3069715060633236
aF-1.4763946289841552
aF1.467230097016825
aaa(lp352
(lp353
S'N'
p354
aF0.44214032158285055
aF0.9383234919212876
aF0.6954951621249803
aa(lp355
S'H'
p356
aF0.20406795753269247
aF1.4052029131643753
aF-0.16856453228003399
aa(lp357
S'CA'
p358
aF0.6862657236486406
aF-0.49927019997025757
aF0.6808949874735946
aa(lp359
S'C'
p360
aF-0.1602224625056492
aF-1.1913606855621999
aF-0.3791849672724282
aa(lp361
S'O'
p362
aF-1.1722515402585303
aF-0.6528955195532087
aF-0.8286406500461146
aa(lp363
S'CB'
p364
aF0.3919289525992729
aF-1.1196701278212575
aF2.0589565952149558
aa(lp365
S'CG1'
p366
aF0.9889316325431802
aF-2.5265952123625595
aF2.149992888132906
aa(lp367
S'CG2'
p368
aF-1.1065966553262754
aF-1.1561495025288677
aF2.316854361029831
aa(lp369
S'CD1'
p370
aF-0.014206426577677456
aF-3.592626280205243
aF2.526362117397766
aa(lp371
S'HA'
p372
aF1.7354567477971798
aF-0.6691128011250769
aF0.4440370433824068
aa(lp373
S'HB'
p374
aF0.869493385097525
aF-0.523455913692441
aF2.835784004414309
aa(lp375
S'1HG1'
p376
aF1.4305263798072745
aF-2.795746264452726
aF1.1911927054318814
aa(lp377
S'2HG1'
p378
aF1.7879030242660472
aF-2.5356611198443098
aF2.8914431727305687
aa(lp379
S'1HG2'
p380
aF-1.2977170118176657
aF-1.5982638420237283
aF3.294339358432669
aa(lp381
S'2HG2'
p382
aF-1.5052703815544792
aF-0.14260492637504862
aF2.2934523917858836
aa(lp383
S'3HG2'
p384
aF-1.594167723868405
aF-1.754521520001361
aF1.546750873291603
aa(lp385
S'1HD1'
p386
aF0.48303119945727047
aF-4.561449333423916
aF2.5714468687797876
aa(lp387
S'2HD1'
p388
aF-0.44474391598858376
aF-3.3602047794209438
aF3.5014312001734056
aa(lp389
S'3HD1'
p390
aF-0.8066541960620262
aF-3.6271475929414203
aF1.778699217685435
aaa.