(lp0
(lp1
(lp2
S'N'
p3
aF1.087
aF-0.7698
aF-0.02919999999999945
aa(lp4
S'H'
p5
aF1.9040000000000001
aF-0.7538
aF0.5648
aa(lp6
S'CA'
p7
aF0.2760000000000001
aF0.4351999999999999
aF-0.1532
aa(lp8
S'C'
p9
aF-1.2100000000000002
aF0.10720000000000005
aF-0.09619999999999962
aa(lp10
S'O'
p11
aF-2.057
aF0.9812
aF-0.2862000000000009
aa(lp12
S'CB'
p13
aF0.5889999999999997
aF1.1752000000000002
aF-1.4662000000000006
aa(lp14
S'CG1'
p15
aF0.12799999999999995
aF0.34819999999999995
aF-2.6682000000000006
aa(lp16
S'CG2'
p17
aF2.0770000000000004
aF1.4792
aF-1.5632000000000001
aa(lp18
S'CD1'
p19
aF0.1750000000000001
aF1.0992000000000002
aF-3.9802
aa(lp20
S'HA'
p21
aF0.51
aF1.0972
aF0.6798000000000002
aa(lp22
S'HB'
p23
aF0.03400000000000007
aF2.1122
aF-1.4962
aa(lp24
S'1HG1'
p25
aF0.7529999999999999
aF-0.5388
aF-2.7612000000000005
aa(lp26
S'2HG1'
p27
aF-0.8960000000000001
aF0.010200000000000055
aF-2.5061999999999998
aa(lp28
S'1HG2'
p29
aF2.281
aF2.0022
aF-2.4971999999999994
aa(lp30
S'2HG2'
p31
aF2.376
aF2.1062000000000003
aF-0.7241999999999997
aa(lp32
S'3HG2'
p33
aF2.6410000000000005
aF0.5461999999999999
aF-1.5391999999999992
aa(lp34
S'1HD1'
p35
aF-0.16699999999999998
aF0.44719999999999993
aF-4.7842
aa(lp36
S'2HD1'
p37
aF-0.47300000000000003
aF1.9742000000000002
aF-3.9222
aa(lp38
S'3HD1'
p39
aF1.1970000000000003
aF1.4162
aF-4.1812000000000005
aaa(lp40
(lp41
S'N'
p42
aF1.121779309601985
aF-0.7303616037219711
aF-0.11115659385556198
aa(lp43
S'H'
p44
aF1.819809185171771
aF-0.7973938496806474
aF0.6156005669717352
aa(lp45
S'CA'
p46
aF0.29379587202092017
aF0.4670412968702241
aF-0.19130471139321972
aa(lp47
S'C'
p48
aF-1.1784827997466578
aF0.13353422497956446
aF0.011233052140446453
aa(lp49
S'O'
p50
aF-2.0569015670480253
aF0.9271799315528118
aF-0.32437231386344095
aa(lp51
S'CB'
p52
aF0.4790836334979943
aF1.172828471699935
aF-1.5474012821774448
aa(lp53
S'CG1'
p54
aF1.927233833797084
aF1.6429967876411502
aF-1.7108171689776461
aa(lp55
S'CG2'
p56
aF-0.48236733846485924
aF2.3455287956709068
aF-1.6722170611080687
aa(lp57
S'CD1'
p58
aF2.6898624316185846
aF0.9052330845475863
aF-2.787177396867207
aa(lp59
S'HA'
p60
aF0.5988477906720207
aF1.1522135101955175
aF0.5981244272976464
aa(lp61
S'HB'
p62
aF0.28385859545334025
aF0.46768308148195903
aF-2.3545822799560074
aa(lp63
S'1HG1'
p64
aF1.939460512919592
aF2.705755707930548
aF-1.9507838034561737
aa(lp65
S'2HG1'
p66
aF2.4599574317190753
aF1.515573999627585
aF-0.7686956262285689
aa(lp67
S'1HG2'
p68
aF-0.3369646369691557
aF2.833029498233734
aF-2.6358238893313413
aa(lp69
S'2HG2'
p70
aF-1.5067066706237384
aF1.9849392806350212
aF-1.5985276165553302
aa(lp71
S'3HG2'
p72
aF-0.2898103640442965
aF3.0598553254390937
aF-0.8709172292902156
aa(lp73
S'1HD1'
p74
aF3.707593017676535
aF1.2937795211744871
aF-2.8436408433319715
aa(lp75
S'2HD1'
p76
aF2.7199510168720398
aF-0.15844785796474525
aF-2.5484630705825784
aa(lp77
S'3HD1'
p78
aF2.195123505762451
aF1.0480750819517077
aF-3.7467749995217394
aaa(lp79
(lp80
S'N'
p81
aF1.118091085272639
aF-0.7361650542845135
aF-0.10056907021606684
aa(lp82
S'H'
p83
aF1.8315043793794898
aF-0.7895163004600246
aF0.6126518747393721
aa(lp84
S'CA'
p85
aF0.29086986918673813
aF0.46086413806578375
aF-0.19023607818752672
aa(lp86
S'C'
p87
aF-1.1834993397421627
aF0.12598211157981243
aF-0.008174374089668451
aa(lp88
S'O'
p89
aF-2.0569659940967076
aF0.9388351050989509
aF-0.3136723522460829
aa(lp90
S'CB'
p91
aF0.49487743418235175
aF1.1695712953989315
aF-1.5414825688654203
aa(lp92
S'CG1'
p93
aF1.983128462261542
aF1.4243304386534639
aF-1.7918276434114373
aa(lp94
S'CG2'
p95
aF-0.2861569359484939
aF2.474248538215694
aF-1.5810629270038763
aa(lp96
S'CD1'
p97
aF2.628607675235909
aF2.3280805190041867
aF-0.7667557542816792
aa(lp98
S'HA'
p99
aF0.5855556980714283
aF1.144262327060757
aF0.6049640082894165
aa(lp100
S'HB'
p101
aF0.1456722451988428
aF0.5235473935467276
aF-2.346968666959387
aa(lp102
S'1HG1'
p103
aF2.5192079661095956
aF0.4754727194893338
aF-1.7961628869652544
aa(lp104
S'2HG1'
p105
aF2.114846585461377
aF1.8768212125625947
aF-2.7758502221909227
aa(lp106
S'1HG2'
p107
aF-0.13044429291189585
aF2.9623333326102
aF-2.5431007673612207
aa(lp108
S'2HG2'
p109
aF-1.3468258334826129
aF2.266679066872584
aF-1.447266797126743
aa(lp110
S'3HG2'
p111
aF0.060043314571590845
aF3.1293905419875823
aF-0.7824201148321364
aa(lp112
S'1HD1'
p113
aF3.682972301527048
aF2.461415464954845
aF-1.0123306451282037
aa(lp114
S'2HD1'
p115
aF2.129468482826766
aF3.2973323220707353
aF-0.770756860803131
aa(lp116
S'3HD1'
p117
aF2.541062706550405
aF1.8791456532432638
aF0.22102021463135502
aaa(lp118
(lp119
S'N'
p120
aF1.1055636552617156
aF-0.7438462022770203
aF-0.08653410612244597
aa(lp121
S'H'
p122
aF1.8581384005245654
aF-0.7866304657484253
aF0.5872972968202771
aa(lp123
S'CA'
p124
aF0.2858726696561168
aF0.4590607763608695
aF-0.15946893224269282
aa(lp125
S'C'
p126
aF-1.192285383239978
aF0.12959363115050818
aF-0.00624305033844523
aa(lp127
S'O'
p128
aF-2.0572893422024676
aF0.9418222605139979
aF-0.3350512081167236
aa(lp129
S'CB'
p130
aF0.5125544459118249
aF1.1972152156470566
aF-1.4920954350842293
aa(lp131
S'CG1'
p132
aF0.6086879338191108
aF2.7076587862910357
aF-1.256743417028276
aa(lp133
S'CG2'
p134
aF-0.6050314952572069
aF0.8786533144987836
aF-2.473700742342765
aa(lp135
S'CD1'
p136
aF1.5498461705527937
aF3.0919802223113706
aF-0.13825148266146137
aa(lp137
S'HA'
p138
aF0.5728416570495366
aF1.1233347210233968
aF0.6553800885684643
aa(lp139
S'HB'
p140
aF1.4633491131322558
aF0.8849607918296699
aF-1.9241228365203722
aa(lp141
S'1HG1'
p142
aF0.945421875055253
aF3.196477088488258
aF-2.169953644881978
aa(lp143
S'2HG1'
p144
aF-0.3792850962710703
aF3.101931820288998
aF-1.0202120946279285
aa(lp145
S'1HG2'
p146
aF-0.4293522377035781
aF1.4092207306528497
aF-3.409213444223926
aa(lp147
S'2HG2'
p148
aF-0.6269265511058983
aF-0.19344000059907995
aF-2.6624082680322956
aa(lp149
S'3HG2'
p150
aF-1.5594462628179002
aF1.1927807346231298
aF-2.0518412688351875
aa(lp151
S'1HD1'
p152
aF1.5643482095535126
aF4.177002538210477
aF-0.03166693938347409
aa(lp153
S'2HD1'
p154
aF1.2112970509759882
aF2.6400707465756055
aF0.7942056581090898
aa(lp155
S'3HD1'
p156
aF2.553530622544561
aF2.738258336485944
aF-0.36897284777117645
aaa(lp157
(lp158
S'N'
p159
aF1.1064669554567437
aF-0.7565532200975006
aF-0.06192496784329862
aa(lp160
S'H'
p161
aF1.8609372655361864
aF-0.7598792632702014
aF0.6102561748894076
aa(lp162
S'CA'
p163
aF0.28456491985036275
aF0.4393379142844265
aF-0.20090496126967117
aa(lp164
S'C'
p165
aF-1.1977059089911295
aF0.10481989998129007
aF-0.08916021610355744
aa(lp166
S'O'
p167
aF-2.0542632318521474
aF0.9722746691019781
aF-0.25826602967288115
aa(lp168
S'CB'
p169
aF0.5533953235314392
aF1.1358950249118753
aF-1.547327408234593
aa(lp170
S'CG1'
p171
aF2.0516220110394183
aF1.3972951570960066
aF-1.7229171679957909
aa(lp172
S'CG2'
p173
aF-0.2308423896551835
aF2.4363573142616293
aF-1.6388809073212525
aa(lp174
S'CD1'
p175
aF2.4474557259932816
aF1.7573458153443304
aF-3.136171990595299
aa(lp176
S'HA'
p177
aF0.5388457884307994
aF1.1290820240164021
aF0.6019868763797248
aa(lp178
S'HB'
p179
aF0.2500806383677845
aF0.48157943621276983
aF-2.3631229170169186
aa(lp180
S'1HG1'
p181
aF2.3584437424098303
aF2.2095600886415494
aF-1.0649877598218027
aa(lp182
S'2HG1'
p183
aF2.613208242899636
aF0.510193659897347
aF-1.4283041373047851
aa(lp184
S'1HG2'
p185
aF-0.028755885278674953
aF2.916764183475131
aF-2.5967453469792696
aa(lp186
S'2HG2'
p187
aF-1.2962210899441418
aF2.2246088158731077
aF-1.557691016319878
aa(lp188
S'3HG2'
p189
aF0.06927609286277497
aF3.1004681402073437
aF-0.8290718512390071
aa(lp190
S'1HD1'
p191
aF3.523657555462984
aF1.927619533063794
aF-3.181255061698065
aa(lp192
S'2HD1'
p193
aF2.1812301156790737
aF0.9416009783171114
aF-3.8082733856810904
aa(lp194
S'3HD1'
p195
aF1.9248039714205385
aF2.6640485468865673
aF-3.4402135996817553
aaa(lp196
(lp197
S'N'
p198
aF1.1024774409354519
aF-0.751364945262051
aF-0.07208142104438386
aa(lp199
S'H'
p200
aF1.8683089558054211
aF-0.7758180304674742
aF0.5858434511529709
aa(lp201
S'CA'
p202
aF0.283516655658621
aF0.4515067974862456
aF-0.16318467387556743
aa(lp203
S'C'
p204
aF-1.1974980777394282
aF0.12018941747874747
aF-0.03511378271409271
aa(lp205
S'O'
p206
aF-2.0568049746600385
aF0.9554867607645648
aF-0.31546357351896503
aa(lp207
S'CB'
p208
aF0.533036669210738
aF1.1869382396198864
aF-1.4916049224257708
aa(lp209
S'CG1'
p210
aF0.5714625454922392
aF2.7016221386518793
aF-1.2648602685852777
aa(lp211
S'CG2'
p212
aF-0.5375555144791557
aF0.8251596484861543
aF-2.5096062128077596
aa(lp213
S'CD1'
p214
aF-0.7463083681162032
aF3.2825055618138834
aF-0.8048991094173
aa(lp215
S'HA'
p216
aF0.554211702433727
aF1.1172757158433122
aF0.6564017700100526
aa(lp217
S'HB'
p218
aF1.5083606903506923
aF0.9035735407890271
aF-1.8873264169694581
aa(lp219
S'1HG1'
p220
aF1.3285618078733399
aF2.937924372078683
aF-0.5188421981744573
aa(lp221
S'2HG1'
p222
aF0.8581202199668276
aF3.200310136005511
aF-2.1908611643517286
aa(lp223
S'1HG2'
p224
aF-0.3452049387638292
aF1.3542441188318526
aF-3.443105478614102
aa(lp225
S'2HG2'
p226
aF-0.517185352993063
aF-0.24859851474575898
aF-2.690913861333294
aa(lp227
S'3HG2'
p228
aF-1.5164723377812224
aF1.1100970127708558
aF-2.125003103758111
aa(lp229
S'1HD1'
p230
aF-0.6399053215522763
aF4.358625196283497
aF-0.6661117757341662
aa(lp231
S'2HD1'
p232
aF-1.5126599736788375
aF3.087226945486067
aF-1.5544466253605167
aa(lp233
S'3HD1'
p234
aF-1.0368929993873042
aF2.82278528313826
aF0.1392152043410696
aaa(lp235
(lp236
S'N'
p237
aF1.1146181442971048
aF-0.7414680790251786
aF-0.09233417671908095
aa(lp238
S'H'
p239
aF1.840969265221157
aF-0.7835046105605905
aF0.6079643161743822
aa(lp240
S'CA'
p241
aF0.2888954381362401
aF0.4565567413064382
aF-0.18615071257378119
aa(lp242
S'C'
p243
aF-1.187721170929689
aF0.1228381036188183
aF-0.020874396392141836
aa(lp244
S'O'
p245
aF-2.0567616767247943
aF0.9455778446605294
aF-0.30860503048939325
aa(lp246
S'CB'
p247
aF0.5061893063961528
aF1.1689306547987632
aF-1.5337473815338465
aa(lp248
S'CG1'
p249
aF0.4676909287413168
aF2.687474615884546
aF-1.3480941748072843
aa(lp250
S'CG2'
p251
aF-0.5409851323721733
aF0.7263849562985999
aF-2.5442304341028867
aa(lp252
S'CD1'
p253
aF0.7465242973139606
aF3.465299905122934
aF-2.6137456955631575
aa(lp254
S'HA'
p255
aF0.5751966090588558
aF1.1376388521668803
aF0.6132914665700377
aa(lp256
S'HB'
p257
aF1.4957176775103638
aF0.9240760785335723
aF-1.919371342462177
aa(lp258
S'1HG1'
p259
aF-0.5124845704717098
aF2.9831958327787547
aF-0.9743911474966898
aa(lp260
S'2HG1'
p261
aF1.2034487922557608
aF2.9817474968044575
aF-0.5983943429867431
aa(lp262
S'1HG2'
p263
aF-0.37279852168702843
aF1.2396641994042255
aF-3.4908996913322325
aa(lp264
S'2HG2'
p265
aF-0.46712349754678284
aF-0.3495671246567615
aF-2.697343393674393
aa(lp266
S'3HG2'
p267
aF-1.5339797776257227
aF0.9720999021127003
aF-2.170321621821939
aa(lp268
S'1HD1'
p269
aF0.7024915179486511
aF4.534028529545072
aF-2.4015306120225888
aa(lp270
S'2HD1'
p271
aF1.7398398193962135
aF3.210310849317032
aF-2.9859551191537954
aa(lp272
S'3HD1'
p273
aF0.0011434849411421366
aF3.2148964207832536
aF-3.366424604246658
aaa(lp274
(lp275
S'N'
p276
aF1.1060934916051142
aF-0.7534423614457741
aF-0.06852441760274897
aa(lp277
S'H'
p278
aF1.8629640824957936
aF-0.7680843037520485
aF0.600619454946573
aa(lp279
S'CA'
p280
aF0.2843650933966547
aF0.44528735226357175
aF-0.1847075189904771
aa(lp281
S'C'
p282
aF-1.1972087196169812
aF0.11149233971236563
aF-0.06220884067845145
aa(lp283
S'O'
p284
aF-2.056213947880622
aF0.9647469732219045
aF-0.28517867767493266
aa(lp285
S'CB'
p286
aF0.54014377427037
aF1.1584926738632786
aF-1.52542912903946
aa(lp287
S'CG1'
p288
aF-0.31277684019032637
aF0.5355066045160242
aF-2.633747126198769
aa(lp289
S'CG2'
p290
aF2.016288828718617
aF1.0959176584365249
aF-1.8871585108600382
aa(lp291
S'CD1'
p292
aF-1.2138285146296708
aF1.5239689373462013
aF-3.3376711963696937
aa(lp293
S'HA'
p294
aF0.5490857774802379
aF1.1256955020162054
aF0.6231549130909553
aa(lp295
S'HB'
p296
aF0.24052608249707652
aF2.2023084684779506
aF-1.4450871992059497
aa(lp297
S'1HG1'
p298
aF0.33636789818599344
aF0.07554312145902733
aF-3.377164709319067
aa(lp299
S'2HG1'
p300
aF-0.9369158207423502
aF-0.25346436875960787
aF-2.2119837609286437
aa(lp301
S'1HG2'
p302
aF2.1806073466093436
aF1.6040218553465666
aF-2.83699194349999
aa(lp303
S'2HG2'
p304
aF2.6024740782398332
aF1.5833395075865675
aF-1.109919941169297
aa(lp305
S'3HG2'
p306
aF2.326374167512556
aF0.0539325782041333
aF-1.9749888885101328
aa(lp307
S'1HD1'
p308
aF-1.7871984519966266
aF1.0082672651512252
aF-4.109251198844546
aa(lp309
S'2HD1'
p310
aF-1.8981767837753876
aF1.9713533411471376
aF-2.616624983042895
aa(lp311
S'3HD1'
p312
aF-0.6084241287088699
aF2.303712180554427
aF-3.7977603227126084
aaa(lp313
(lp314
S'N'
p315
aF1.0809804199277886
aF-0.7682000130412046
aF-0.03075762826188977
aa(lp316
S'H'
p317
aF1.9166656819271934
aF-0.7632151021975362
aF0.5376606099578882
aa(lp318
S'CA'
p319
aF0.2733523033101071
aF0.44239037275159143
aF-0.1156383862381594
aa(lp320
S'C'
p321
aF-1.2142164305811574
aF0.11804279865402681
aF-0.057424014076399965
aa(lp322
S'O'
p323
aF-2.0567819745838287
aF0.9709819438331034
aF-0.33384058138134143
aa(lp324
S'CB'
p325
aF0.5797941801588804
aF1.2160426736728858
aF-1.4121635473486522
aa(lp326
S'CG1'
p327
aF0.23314199693098048
aF0.3655606256690243
aF-2.6364615298212537
aa(lp328
S'CG2'
p329
aF2.0415053843317033
aF1.635324664653843
aF-1.4476877311490424
aa(lp330
S'CD1'
p331
aF-1.248676006444566
aF0.2926025630651557
aF-2.92936002072418
aa(lp332
S'HA'
p333
aF0.5166145820378438
aF1.0812463591982024
aF0.7318971542139736
aa(lp334
S'HB'
p335
aF-0.04538001768839972
aF2.107270543954712
aF-1.4597461658025717
aa(lp336
S'1HG1'
p337
aF0.7345981615653183
aF0.7704785884958494
aF-3.514119867860827
aa(lp338
S'2HG1'
p339
aF0.6001986179948844
aF-0.6506068122575486
aF-2.4897707835865197
aa(lp340
S'1HG2'
p341
aF2.240634952827009
aF2.1804531749441685
aF-2.370397502539553
aa(lp342
S'2HG2'
p343
aF2.2567115278055994
aF2.2764430139017464
aF-0.5934637686727355
aa(lp344
S'3HG2'
p345
aF2.6752295767751084
aF0.7499338546228395
aF-1.4050877144286296
aa(lp346
S'1HD1'
p347
aF-1.4146837608803475
aF-0.3280748603380086
aF-3.810485415628216
aa(lp348
S'2HD1'
p349
aF-1.7680756715087043
aF-0.1434231374424756
aF-2.0751823012605453
aa(lp350
S'3HD1'
p351
aF-1.6318934233697315
aF1.2945885985288939
aF-3.114374604205689
aaa(lp352
(lp353
S'N'
p354
aF1.092556429771842
aF-0.7651232139087039
aF-0.04086802297909731
aa(lp355
S'H'
p356
aF1.892869714672827
aF-0.7579422552006821
aF0.5754404061722681
aa(lp357
S'CA'
p358
aF0.27796991832437806
aF0.4381072976276452
aF-0.16222761870945157
aa(lp359
S'C'
p360
aF-1.2069598767782475
aF0.10810912092656343
aF-0.0862887815415126
aa(lp361
S'O'
p362
aF-2.0564361859908042
aF0.9768490505551936
aF-0.2860559829421797
aa(lp363
S'CB'
p364
aF0.5746712293203367
aF1.1724032156285893
aF-1.4830678198164748
aa(lp365
S'CG1'
p366
aF2.053230609787615
aF1.5620512805321989
aF-1.5564949534190176
aa(lp367
S'CG2'
p368
aF-0.31062772100799596
aF2.400843743993088
aF-1.6188567619992285
aa(lp369
S'CD1'
p370
aF2.998080527902987
aF0.3815415064008477
aF-1.5260925617741221
aa(lp371
S'HA'
p372
aF0.5222134698146377
aF1.1049583302989279
aF0.6644396588458263
aa(lp373
S'HB'
p374
aF0.38254226391205237
aF0.5034867237823364
aF-2.321601174899759
aa(lp375
S'1HG1'
p376
aF2.236398679268557
aF2.1215381089882976
aF-2.472793456695519
aa(lp377
S'2HG1'
p378
aF2.2994189903937814
aF2.215991805230633
aF-0.7204715856764369
aa(lp379
S'1HG2'
p380
aF-0.08668044595503599
aF2.908002936204647
aF-2.5578020062769076
aa(lp381
S'2HG2'
p382
aF-1.3567530552030553
aF2.0993178522706715
aF-1.609805697074905
aa(lp383
S'3HG2'
p384
aF-0.12135866731343276
aF3.079909251217486
aF-0.7861387651889924
aa(lp385
S'1HD1'
p386
aF4.026852891940745
aF0.7382142274113677
aF-1.5813464582803767
aa(lp387
S'2HD1'
p388
aF2.85665167126327
aF-0.17390539054135595
aF-0.598680235358914
aa(lp389
S'3HD1'
p390
aF2.794309778830676
aF-0.2696196088138163
aF-2.3746865069887226
aaa.