(lp0
(lp1
(lp2
S'N'
p3
aF0.46329432085257044
aF-1.2782446955653266
aF0.36820313758158524
aa(lp4
S'H'
p5
aF-0.37619805321360894
aF-1.6979244346987883
aF0.740346215504031
aa(lp6
S'CA'
p7
aF0.34598492909095857
aF-0.20311404992235949
aF-0.6099362192607168
aa(lp8
S'C'
p9
aF-0.2931459547138091
aF1.035241063203039
aF0.006439743251723695
aa(lp10
S'O'
p11
aF-0.1399352420161014
aF2.144042116983361
aF-0.505052877076553
aa(lp12
S'CB'
p13
aF-0.48013140501703694
aF-0.6563251353494759
aF-1.8275213352037303
aa(lp14
S'CG1'
p15
aF0.042403846442502585
aF-1.993053185225267
aF-2.359551439293131
aa(lp16
S'CG2'
p17
aF-0.4474490868341091
aF0.4046390071489263
aF-2.9168128271428007
aa(lp18
S'CD1'
p19
aF1.4551361345343239
aF-1.9265945303319367
aF-2.893885351161575
aa(lp20
S'HA'
p21
aF1.3446896098522914
aF0.06440992863715872
aF-0.9510943666367749
aa(lp22
S'HB'
p23
aF-1.5143012541176322
aF-0.8206277670487203
aF-1.5246329590187906
aa(lp24
S'1HG1'
p25
aF0.012676524410205323
aF-2.737701470275901
aF-1.5655387077227045
aa(lp26
S'2HG1'
p27
aF-0.6073984374826227
aF-2.344563959147855
aF-3.160969038065476
aa(lp28
S'1HG2'
p29
aF-1.0352296694828003
aF0.06780191232163646
aF-3.7701244690471345
aa(lp30
S'2HG2'
p31
aF-0.8650004014545675
aF1.3335869044030346
aF-2.5324943344236823
aa(lp32
S'3HG2'
p33
aF0.5837152748163028
aF0.5715624161122248
aF-3.230568520002934
aa(lp34
S'1HD1'
p35
aF1.7548259999643259
aF-2.9115815898164135
aF-3.253601179568777
aa(lp36
S'2HD1'
p37
aF1.5002615698945092
aF-1.2109682541201807
aF-3.7160871073497086
aa(lp38
S'3HD1'
p39
aF2.1294334352648434
aF-1.610496841336376
aF-2.0993166623503354
aaa(lp40
(lp41
S'N'
p42
aF0.46552010824555784
aF-1.2772654025000185
aF0.36577441189277804
aa(lp43
S'H'
p44
aF-0.37379665015055147
aF-1.6908828776045461
aF0.7471311521814527
aa(lp45
S'CA'
p46
aF0.3464564664924767
aF-0.20455135957561787
aF-0.6145854359821095
aa(lp47
S'C'
p48
aF-0.3088618760716327
aF1.0285867767000871
aF-0.005673121472432985
aa(lp49
S'O'
p50
aF-0.12931804851583945
aF2.144112862980095
aF-0.49264700661969296
aa(lp51
S'CB'
p52
aF-0.4660537278709515
aF-0.6662218141112742
aF-1.8384798658510988
aa(lp53
S'CG1'
p54
aF-0.7797042061689731
aF0.5222255795425439
aF-2.750438291428091
aa(lp55
S'CG2'
p56
aF-1.74799691314374
aF-1.3546577177491919
aF-1.39644629663389
aa(lp57
S'CD1'
p58
aF-1.7496776318372353
aF0.19825302922806376
aF-3.8635237958436766
aa(lp59
S'HA'
p60
aF1.3456028890943523
aF0.0706959539531321
aF-0.9487386083403536
aa(lp61
S'HB'
p62
aF0.12720779213544342
aF-1.3661762389996195
aF-2.425164254563575
aa(lp63
S'1HG1'
p64
aF-1.198231248892358
aF1.334597982816324
aF-2.1588487437614647
aa(lp65
S'2HG1'
p66
aF0.14408856542190973
aF0.8886662299753942
aF-3.2009770410010745
aa(lp67
S'1HG2'
p68
aF-2.31030963105992
aF-1.674116084410556
aF-2.2730167497292304
aa(lp69
S'2HG2'
p70
aF-1.5031398226220845
aF-2.223668685152734
aF-0.7863783137388456
aa(lp71
S'3HG2'
p72
aF-2.351533636558185
aF-0.6591987512415136
aF-0.812044680111295
aa(lp73
S'1HD1'
p74
aF-1.9212011074869655
aF1.089386225049341
aF-4.467444589165444
aa(lp75
S'2HD1'
p76
aF-1.333088685195509
aF-0.5905162639231576
aF-4.491556957163734
aa(lp77
S'3HD1'
p78
aF-2.6936655580563755
aF-0.13729766190366266
aF-3.436796097148711
aaa(lp79
(lp80
S'N'
p81
aF0.4627150453829116
aF-1.2858334394819109
aF0.35912431369431863
aa(lp82
S'H'
p83
aF-0.3812306901681597
aF-1.6825219223283459
aF0.7464934438817421
aa(lp84
S'CA'
p85
aF0.3576086707854055
aF-0.20168352325395783
aF-0.6110079500521832
aa(lp86
S'C'
p87
aF-0.2924463827764382
aF1.0295344117033576
aF0.006908568563513823
aa(lp88
S'O'
p89
aF-0.14664664322368948
aF2.1405044733608696
aF-0.501518376087396
aa(lp90
S'CB'
p91
aF-0.4504699128587065
aF-0.6455424592853442
aF-1.8446948015508942
aa(lp92
S'CG1'
p93
aF-1.4229068313799444
aF0.45734434415712805
aF-2.2707419096145065
aa(lp94
S'CG2'
p95
aF-1.1996079582524453
aF-1.936705046543275
aF-1.5531723114938665
aa(lp96
S'CD1'
p97
aF-1.892150904911244
aF0.3379682953811063
aF-3.702729115714608
aa(lp98
S'HA'
p99
aF1.360658432001679
aF0.06947494947382446
aF-0.9362713190194173
aa(lp100
S'HB'
p101
aF0.2261601094966954
aF-0.8102697613241646
aF-2.6822303105356404
aa(lp102
S'1HG1'
p103
aF-2.298508432788088
aF0.44083098704577955
aF-1.6216424221332701
aa(lp104
S'2HG1'
p105
aF-0.9458229020150662
aF1.4298224922789726
aF-2.148205483327176
aa(lp106
S'1HG2'
p107
aF-1.766922547553086
aF-2.2355505065923613
aF-2.434572644926224
aa(lp108
S'2HG2'
p109
aF-0.48787787795019805
aF-2.719791809452835
aF-1.2963525019993798
aa(lp110
S'3HG2'
p111
aF-1.8837557600799135
aF-1.7805325077417165
aF-0.7177102097927028
aa(lp112
S'1HD1'
p113
aF-2.5776525049748376
aF1.1553480349756169
aF-3.9303931612085528
aa(lp114
S'2HD1'
p115
aF-1.0323683860402089
aF0.38849716855344846
aF-4.372119026917122
aa(lp116
S'3HD1'
p117
aF-2.404396260331814
aF-0.6129042484719682
aF-3.839008612325234
aaa(lp118
(lp119
S'N'
p120
aF0.4638672602384989
aF-1.2742086327451136
aF0.37209510224761677
aa(lp121
S'H'
p122
aF-0.3739026723450377
aF-1.7049369543668
aF0.7380727696153697
aa(lp123
S'CA'
p124
aF0.3403805991596798
aF-0.20334350902800596
aF-0.6095453264949822
aa(lp125
S'C'
p126
aF-0.2943808929835284
aF1.0369687347955523
aF0.005307815249853187
aa(lp127
S'O'
p128
aF-0.1359642940696022
aF2.1455203613443623
aF-0.5059303606178488
aa(lp129
S'CB'
p130
aF-0.4936717976312498
aF-0.6609680116509186
aF-1.821039616207662
aa(lp131
S'CG1'
p132
aF-1.8570991815035418
aF-1.1837562460770572
aF-1.3626432474908523
aa(lp133
S'CG2'
p134
aF0.2519802393006015
aF-1.7279596477091062
aF-2.6072615240690813
aa(lp135
S'CD1'
p136
aF-3.02494336491254
aF-0.3666790227308736
aF-1.867172507659832
aa(lp137
S'HA'
p138
aF1.3379294393508783
aF0.062138015611808095
aF-0.958487831082937
aa(lp139
S'HB'
p140
aF-0.6852220857269614
aF0.189994459810375
aF-2.4728374063964136
aa(lp141
S'1HG1'
p142
aF-1.986938323320886
aF-2.210238575214195
aF-1.7036649846592216
aa(lp143
S'2HG1'
p144
aF-1.8955374240654588
aF-1.1940181562632528
aF-0.27308086070059456
aa(lp145
S'1HG2'
p146
aF-0.35120816254895615
aF-2.0413209832268446
aF-3.4588044914387344
aa(lp147
S'2HG2'
p148
aF1.1985044654188939
aF-1.3229562036635991
aF-2.9622968739744775
aa(lp149
S'3HG2'
p150
aF0.4442359188249375
aF-2.5869922240940526
aF-1.9631693052059138
aa(lp151
S'1HD1'
p152
aF-3.957240535628015
aF-0.7986101759240454
aF-1.500801842380612
aa(lp153
S'2HD1'
p154
aF-2.93440279297398
aF0.6590518012135143
aF-1.5075481457995628
aa(lp155
S'3HD1'
p156
aF-3.0280808999262256
aF-0.371151471722621
aF-2.956140437891965
aaa(lp157
(lp158
S'N'
p159
aF0.46526413788848553
aF-1.2784835248303912
aF0.3645832123564744
aa(lp160
S'H'
p161
aF-0.3745659016607594
aF-1.6884558904623634
aF0.7473849418311906
aa(lp162
S'CA'
p163
aF0.34829536569100195
aF-0.20440732120585947
aF-0.6146530283628469
aa(lp164
S'C'
p165
aF-0.308255811221806
aF1.0279672146401129
aF-0.004161787235824013
aa(lp166
S'O'
p167
aF-0.13073779069686375
aF2.143379521858461
aF-0.4931533385889781
aa(lp168
S'CB'
p169
aF-0.46126071661169377
aF-0.6638432503230852
aF-1.8402576043346084
aa(lp170
S'CG1'
p171
aF0.4368266414886808
aF-1.4268275462602458
aF-2.817551347982632
aa(lp172
S'CG2'
p173
aF-1.1083563632099929
aF0.5282858064845811
aF-2.528236191260382
aa(lp174
S'CD1'
p175
aF0.058777243945078994
aF-2.8810067081927313
aF-2.9862718802786166
aa(lp176
S'HA'
p177
aF1.348313875343321
aF0.07208769092782691
aF-0.9455948489566852
aa(lp178
S'HB'
p179
aF-1.2411210852373362
aF-1.355391883924913
aF-1.5229497210248815
aa(lp180
S'1HG1'
p181
aF0.39892011582079134
aF-0.948488292233628
aF-3.795982568543922
aa(lp182
S'2HG1'
p183
aF1.4703911136563979
aF-1.3822685226853977
aF-2.4728051003007643
aa(lp184
S'1HG2'
p185
aF-1.6766343276343072
aF0.18605140703189982
aF-3.3932389490484827
aa(lp186
S'2HG2'
p187
aF-1.7776109949044323
aF1.030513242802639
aF-1.831091414212636
aa(lp188
S'3HG2'
p189
aF-0.3352346605240615
aF1.2246355239271538
aF-2.8542927873501256
aa(lp190
S'1HD1'
p191
aF0.7407379680163519
aF-3.3542389163574935
aF-3.693408251836237
aa(lp192
S'2HD1'
p193
aF0.12399829178954044
aF-3.3877381534242765
aF-2.023771772573883
aa(lp194
S'3HD1'
p195
aF-0.9604128923195374
aF-2.949488920981457
aF-3.3650484010299326
aaa(lp196
(lp197
S'N'
p198
aF0.45578371065541345
aF-1.2446928971366502
aF0.41322657334535645
aa(lp199
S'H'
p200
aF-0.3491486284353993
aF-1.7805757225223684
aF0.7030532921661178
aa(lp201
S'CA'
p202
aF0.2903083885220434
aF-0.204456043289462
aF-0.5958949285873689
aa(lp203
S'C'
p204
aF-0.27647134159780473
aF1.0711056528336353
aF0.016699633018291138
aa(lp205
S'O'
p206
aF-0.12047212914424837
aF2.1586190101148643
aF-0.537084569942376
aa(lp207
S'CB'
p208
aF-0.6318243482612117
aF-0.6828503314366299
aF-1.7315036291619958
aa(lp209
S'CG1'
p210
aF-2.028401750527466
aF-0.0765301798888699
aF-1.5772589102691001
aa(lp211
S'CG2'
p212
aF-0.7057770830865691
aF-2.201699821207011
aF-1.752027284686739
aa(lp213
S'CD1'
p214
aF-3.0351588914099152
aF-0.5983678752657533
aF-2.5771606449240303
aa(lp215
S'HA'
p216
aF1.267415946740525
aF0.025951792264251816
aF-1.0184609577328358
aa(lp217
S'HB'
p218
aF-0.24154128154047688
aF-0.3350654306702079
aF-2.68749410538545
aa(lp219
S'1HG1'
p220
aF-2.4056047222810286
aF-0.2811318938557056
aF-0.5750787584290656
aa(lp221
S'2HG1'
p222
aF-1.9698437409748193
aF1.00605228395906
aF-1.6880748318967016
aa(lp223
S'1HG2'
p224
aF-1.362846891777993
aF-2.523372745403011
aF-2.5606129612513273
aa(lp225
S'2HG2'
p226
aF0.29014068971360596
aF-2.6126530029739343
aF-1.9078870685194513
aa(lp227
S'3HG2'
p228
aF-1.101146749588317
aF-2.559907699663386
aF-0.8005631799397033
aa(lp229
S'1HD1'
p230
aF-4.000168616428055
aF-0.12159213920694867
aF-2.4052358703102508
aa(lp231
S'2HD1'
p232
aF-2.6941633092851296
aF-0.3721533662772776
aF-3.5890830771758737
aa(lp233
S'3HD1'
p234
aF-3.1374168540248046
aF-1.6763447195972803
aF-2.4616434073925832
aaa(lp235
(lp236
S'N'
p237
aF0.4618877393153872
aF-1.2690166381690888
aF0.3803838171112336
aa(lp238
S'H'
p239
aF-0.37128479396046554
aF-1.7216786759972131
aF0.72907509790843
aa(lp240
S'CA'
p241
aF0.33136467465396235
aF-0.20294447111849895
aF-0.605180926693759
aa(lp242
S'C'
p243
aF-0.28349637850111437
aF1.0460523654181435
aF0.012296836172650549
aa(lp244
S'O'
p245
aF-0.13847124150776302
aF2.1475874198666705
aF-0.5165748244985833
aa(lp246
S'CB'
p247
aF-0.5250998818442253
aF-0.661376127125912
aF-1.8001616295641727
aa(lp248
S'CG1'
p249
aF-0.24274967400195363
aF0.2125967327270198
aF-3.025673277967367
aa(lp250
S'CG2'
p251
aF-2.0028826362424033
aF-0.618892151486819
aF-1.4417704429855336
aa(lp252
S'CD1'
p253
aF-0.9278467154927214
aF1.5588022905278094
aF-2.986999774287684
aa(lp254
S'HA'
p255
aF1.325346783985013
aF0.051813789069811156
aF-0.9719380604970997
aa(lp256
S'HB'
p257
aF-0.25563099842498627
aF-1.681014442867864
aF-2.0707576863346167
aa(lp258
S'1HG1'
p259
aF0.8309851330205732
aF0.37774785737698985
aF-3.113972033423858
aa(lp260
S'2HG1'
p261
aF-0.5672391201120673
aF-0.3092580792655256
aF-3.9265978888884816
aa(lp262
S'1HG2'
p263
aF-2.593600347529687
aF-0.9452207286169273
aF-2.2973849854751753
aa(lp264
S'2HG2'
p265
aF-2.1910017696762205
aF-1.2805330113708524
aF-0.5970902880345493
aa(lp266
S'3HG2'
p267
aF-2.28378500281943
aF0.3996834267864794
aF-1.1738475962616515
aa(lp268
S'1HD1'
p269
aF-0.6804274711204696
aF2.1196872456271794
aF-3.8881400434230993
aa(lp270
S'2HD1'
p271
aF-2.008220449986614
aF1.4157492480389977
aF-2.9329588559904085
aa(lp272
S'3HD1'
p273
aF-0.5911412929165276
aF2.113291040712687
aF-2.111644598187059
aaa(lp274
(lp275
S'N'
p276
aF0.45791267836495525
aF-1.254783128907363
aF0.40120273977388865
aa(lp277
S'H'
p278
aF-0.3607410063193953
aF-1.760897357555012
aF0.7101744732919096
aa(lp279
S'CA'
p280
aF0.3067351725596453
aF-0.20290892961869994
aF-0.5971944910963258
aa(lp281
S'C'
p282
aF-0.2692263012853273
aF1.064527023141114
aF0.0210089432989791
aa(lp283
S'O'
p284
aF-0.1346805433198733
aF2.154062392939962
aF-0.535191665268459
aa(lp285
S'CB'
p286
aF-0.597078417463154
aF-0.6679351270513151
aF-1.753046830364392
aa(lp287
S'CG1'
p288
aF-0.39442381323651055
aF-2.161993497899537
aF-2.0220722861935694
aa(lp289
S'CG2'
p290
aF-0.3157948975475209
aF0.1449911145967186
aF-3.0075521141571198
aa(lp291
S'CD1'
p292
aF-1.6837951310466344
aF-2.935946613025508
aF-2.1708310855816704
aa(lp293
S'HA'
p294
aF1.2907890174745467
aF0.03256148784589574
aF-1.0012436376209124
aa(lp295
S'HB'
p296
aF-1.641879299237795
aF-0.5370003161118233
aF-1.4734002807215043
aa(lp297
S'1HG1'
p298
aF0.1886400074726171
aF-2.291220272858058
aF-2.932622131953755
aa(lp299
S'2HG1'
p300
aF0.1755573193851221
aF-2.603940884654909
aF-1.2043039719410187
aa(lp301
S'1HG2'
p302
aF-0.9626211691576831
aF-0.1978745556936709
aF-3.815059331766485
aa(lp303
S'2HG2'
p304
aF-0.5094897752705247
aF1.1982662626077758
aF-2.8098559914683885
aa(lp305
S'3HG2'
p306
aF0.7269864807945166
aF0.015808505801865436
aF-3.298897013834521
aa(lp307
S'1HD1'
p308
aF-1.4584098597950823
aF-3.9852014827164695
aF-2.3583509456836405
aa(lp309
S'2HD1'
p310
aF-2.268875971772723
aF-2.848189425299313
aF-1.2545188648743153
aa(lp311
S'3HD1'
p312
aF-2.2547780968701145
aF-2.5326369912685323
aF-3.0061811928646383
aaa(lp313
(lp314
S'N'
p315
aF0.4602697362746238
aF-1.25137002951837
aF0.40107727321910436
aa(lp316
S'H'
p317
aF-0.35586229984176254
aF-1.758048428735935
aF0.7156094645618344
aa(lp318
S'CA'
p319
aF0.3036310750353022
aF-0.20443635928153925
aF-0.6019397854242609
aa(lp320
S'C'
p321
aF-0.28852554457948854
aF1.058494042716178
aF0.009150500504314991
aa(lp322
S'O'
p323
aF-0.11951296688868272
aF2.1553607748196772
aF-0.5238974528609569
aa(lp324
S'CB'
p325
aF-0.5910085824874662
aF-0.6836551024667736
aF-1.75993213400326
aa(lp326
S'CG1'
p327
aF0.20712575322790794
aF-0.7301216153637321
aF-3.065514167171374
aa(lp328
S'CG2'
p329
aF-1.8029276644321557
aF0.22288841561564052
aF-1.9061237501824355
aa(lp330
S'CD1'
p331
aF1.701280275918319
aF-0.8378242757461501
aF-2.8646102118336607
aa(lp332
S'HA'
p333
aF1.2859262867537589
aF0.03891544378686762
aF-1.0023957967143275
aa(lp334
S'HB'
p335
aF-0.9300055440471204
aF-1.6991722720912603
aF-1.5617581239736906
aa(lp336
S'1HG1'
p337
aF-0.11882668331506696
aF-1.5824730011421255
aF-3.6607100376823847
aa(lp338
S'2HG1'
p339
aF0.006013902722878162
aF0.169963100737959
aF-3.6473857401379344
aa(lp340
S'1HG2'
p341
aF-2.42362810206803
aF-0.12922751724645548
aF-2.7292606382777755
aa(lp342
S'2HG2'
p343
aF-2.3818365064292837
aF0.20665176469163252
aF-0.9832223882675668
aa(lp344
S'3HG2'
p345
aF-1.473848554966309
aF1.2415952613869095
aF-2.1104183954669433
aa(lp346
S'1HD1'
p347
aF2.1987063955266066
aF-0.8646783006769323
aF-3.834943204613177
aa(lp348
S'2HD1'
p349
aF2.056010468022504
aF0.025771091937970905
aF-2.3007099265666184
aa(lp350
S'3HD1'
p351
aF1.929724764515628
aF-1.749781975617482
aF-2.314753622098739
aaa(lp352
(lp353
S'N'
p354
aF0.46470482496729765
aF-1.28018216726101
aF0.363403968441478
aa(lp355
S'H'
p356
aF-0.37639801549152396
aF-1.6884680571123445
aF0.7469579332501148
aa(lp357
S'CA'
p358
aF0.3502620176027592
aF-0.20380317927113809
aF-0.6132377867873369
aa(lp359
S'C'
p360
aF-0.3034455518784355
aF1.0291139604829274
aF-0.001119546490859838
aa(lp361
S'O'
p362
aF-0.13512327520001088
aF2.143339443161605
aF-0.4960045684133942
aa(lp363
S'CB'
p364
aF-0.46113751050532426
aF-0.6591937368966772
aF-1.8398083089390447
aa(lp365
S'CG1'
p366
aF-0.7885896062826954
aF-2.1511220197370147
aF-1.7393587005173532
aa(lp367
S'CG2'
p368
aF0.303558909464397
aF-0.36480899708862
aF-3.1212929987631712
aa(lp369
S'CD1'
p370
aF-1.8676867792168022
aF-2.605117595780146
aF-2.6950565127461394
aa(lp371
S'HA'
p372
aF1.3509987581080485
aF0.07082114139671286
aF-0.943541372448413
aa(lp373
S'HB'
p374
aF-1.4125258319378273
aF-0.12895467646890757
aF-1.8653778345217682
aa(lp375
S'1HG1'
p376
aF0.10983102915054188
aF-2.735090869446177
aF-1.935725053024809
aa(lp377
S'2HG1'
p378
aF-1.1135356998015937
aF-2.3844611982595585
aF-0.7242686236900534
aa(lp379
S'1HG2'
p380
aF-0.2838331616710985
aF-0.6938857708332316
aF-3.9787747955081523
aa(lp381
S'2HG2'
p382
aF0.48665611613028026
aF0.7061474343369014
aF-3.1968756349930794
aa(lp383
S'3HG2'
p384
aF1.255186998934644
aF-0.8960434465493662
aF-3.1078045208155234
aa(lp385
S'1HD1'
p386
aF-2.0445194754120353
aF-3.6731459501982937
aF-2.564463129624346
aa(lp387
S'2HD1'
p388
aF-2.7882610141803625
aF-2.0578944904060714
aF-2.492211865624226
aa(lp389
S'3HD1'
p390
aF-1.5503480792000992
aF-2.414774756646002
aF-3.7191711318499068
aaa.