(lp0
(lp1
(lp2
S'N'
p3
aF-0.7869999999999976
aF0.8364000000000005
aF0.7598000000000003
aa(lp4
S'H'
p5
aF-0.2760000000000019
aF1.5883999999999958
aF1.1988000000000003
aa(lp6
S'CA'
p7
aF-0.1
aF-0.41759999999999736
aF0.47279999999999944
aa(lp8
S'C'
p9
aF0.26700000000000446
aF-0.5196000000000012
aF-1.0022000000000002
aa(lp10
S'O'
p11
aF0.8959999999999951
aF-1.4875999999999976
aF-1.4291999999999998
aa(lp12
S'CB'
p13
aF-0.9680000000000092
aF-1.6236000000000004
aF0.8718000000000004
aa(lp14
S'CG1'
p15
aF-1.6100000000000052
aF-2.2525999999999984
aF-0.36819999999999986
aa(lp16
S'CG2'
p17
aF-2.0339999999999976
aF-1.2045999999999963
aF1.8727999999999998
aa(lp18
S'CD1'
p19
aF-1.8750000000000058
aF-3.7345999999999977
aF-0.23320000000000007
aa(lp20
S'HA'
p21
aF0.8209999999999923
aF-0.4475999999999985
aF1.0557999999999996
aa(lp22
S'HB'
p23
aF-0.3400000000000091
aF-2.3905999999999965
aF1.3247999999999998
aa(lp24
S'1HG1'
p25
aF-2.556000000000003
aF-1.7546000000000006
aF-0.5802000000000014
aa(lp26
S'2HG1'
p27
aF-0.9610000000000042
aF-2.1005999999999974
aF-1.2302
aa(lp28
S'1HG2'
p29
aF-2.6400000000000063
aF-2.0695999999999986
aF2.1427999999999994
aa(lp30
S'2HG2'
p31
aF-1.557000000000008
aF-0.8025999999999953
aF2.7647999999999993
aa(lp32
S'3HG2'
p33
aF-2.672000000000003
aF-0.4406000000000006
aF1.4268
aa(lp34
S'1HD1'
p35
aF-2.330000000000004
aF-4.107599999999995
aF-1.1512000000000011
aa(lp36
S'2HD1'
p37
aF-0.9350000000000079
aF-4.257600000000001
aF-0.055200000000001026
aa(lp38
S'3HD1'
p39
aF-2.5519999999999983
aF-3.908599999999997
aF0.6028000000000002
aaa(lp40
(lp41
S'N'
p42
aF-0.7762848906671995
aF0.8499055189166452
aF0.7523373295516378
aa(lp43
S'H'
p44
aF-0.24767022172147724
aF1.5822082557590096
aF1.2028528491384782
aa(lp45
S'CA'
p46
aF-0.12734574448079225
aF-0.42472055773416817
aF0.4698884859204431
aa(lp47
S'C'
p48
aF0.19936018367004985
aF-0.5604426261610718
aF-1.0122200649802795
aa(lp49
S'O'
p50
aF0.951940673199383
aF-1.4469505907802984
aF-1.4128585996302534
aa(lp51
S'CB'
p52
aF-1.0145860368511976
aF-1.6030383408935693
aF0.9103562662231418
aa(lp53
S'CG1'
p54
aF-1.9586176356777063
aF-1.1690519246658515
aF2.0346360939114745
aa(lp55
S'CG2'
p56
aF-0.15704574144939007
aF-2.7779325538446713
aF1.3550642941877518
aa(lp57
S'CD1'
p58
aF-2.912632752731119
aF-2.2529842713504196
aF2.4841322832662467
aa(lp59
S'HA'
p60
aF0.8066856253351871
aF-0.4688386140026225
aF1.0291102642077035
aa(lp61
S'HB'
p62
aF-1.6411885949669367
aF-1.9174550667697874
aF0.07677462256003731
aa(lp63
S'1HG1'
p64
aF-1.374993207711459
aF-0.8491219034996601
aF2.896879278075712
aa(lp65
S'2HG1'
p66
aF-2.548500296294426
aF-0.3128450156524031
aF1.7045918913243492
aa(lp67
S'1HG2'
p68
aF-0.8003802251558851
aF-3.6021146104725377
aF1.663339625031385
aa(lp69
S'2HG2'
p70
aF0.4735378361080108
aF-3.1005061820378406
aF0.5276051676387681
aa(lp71
S'3HG2'
p72
aF0.4705603173064946
aF-2.4742125943481588
aF2.192592097437486
aa(lp73
S'1HD1'
p74
aF-3.548767000407695
aF-1.869438839749494
aF3.281630948362939
aa(lp75
S'2HD1'
p76
aF-3.5333267662851555
aF-2.5634241309382886
aF1.642596166918746
aa(lp77
S'3HD1'
p78
aF-2.3450163462615534
aF-3.1067550771453174
aF2.8515299238124494
aaa(lp79
(lp80
S'N'
p81
aF-0.7602229497886552
aF0.8702064347422923
aF0.7026243004250374
aa(lp82
S'H'
p83
aF-0.35607551549891836
aF1.5771379039356948
aF1.3009108114054255
aa(lp84
S'CA'
p85
aF-0.019433461258266782
aF-0.3615497842073468
aF0.4578069179502852
aa(lp86
S'C'
p87
aF0.2783685713239105
aF-0.5397138641099182
aF-1.025701595682975
aa(lp88
S'O'
p89
aF0.8573633552218927
aF-1.5460806903607027
aF-1.4356404340977655
aa(lp90
S'CB'
p91
aF-0.7983650876511192
aF-1.5831552521799677
aF0.9762985784660281
aa(lp92
S'CG1'
p93
aF-1.3376591372439541
aF-2.4092341541526694
aF-0.19418831842316553
aa(lp94
S'CG2'
p95
aF-1.9335914975957096
aF-1.1429353520050427
aF1.8877641223316846
aa(lp96
S'CD1'
p97
aF-0.5720180136267471
aF-3.6895567651487347
aF-0.44270729475771975
aa(lp98
S'HA'
p99
aF0.9290036815775606
aF-0.3057070128669308
aF0.9905860194345997
aa(lp100
S'HB'
p101
aF-0.1268761048287368
aF-2.232319471110387
aF1.5371821339466876
aa(lp102
S'1HG1'
p103
aF-2.3803485870749768
aF-2.6649054312238687
aF-0.009269662544755919
aa(lp104
S'2HG1'
p105
aF-1.3056731846961243
aF-1.8118190869838404
aF-1.1060633846242691
aa(lp106
S'1HG2'
p107
aF-2.4748040559126663
aF-2.0188428616808642
aF2.245083309073063
aa(lp108
S'2HG2'
p109
aF-1.5260010294814614
aF-0.5969039313045991
aF2.7375368554258133
aa(lp110
S'3HG2'
p111
aF-2.6155168827404047
aF-0.49623811267444107
aF1.3342964631704732
aa(lp112
S'1HD1'
p113
aF-1.0132539118757469
aF-4.219424317768768
aF-1.2871214459755014
aa(lp114
S'2HD1'
p115
aF0.4687841455704335
aF-3.4537608415306478
aF-0.6648067045173649
aa(lp116
S'3HD1'
p117
aF-0.6208892012776793
aF-4.318842776378451
aF0.44491634344047704
aaa(lp118
(lp119
S'N'
p120
aF-0.782145045736238
aF0.8427682785004973
aF0.758347332152997
aa(lp121
S'H'
p122
aF-0.2573930322049205
aF1.5852678324763065
aF1.1977147599859619
aa(lp123
S'CA'
p124
aF-0.11791382637656522
aF-0.42319943964205176
aF0.471229544740028
aa(lp125
S'C'
p126
aF0.22811284153814662
aF-0.5405495286608674
aF-1.0078737314713102
aa(lp127
S'O'
p128
aF0.9293390627795989
aF-1.464287142673893
aF-1.4194179054076588
aa(lp129
S'CB'
p130
aF-1.0002334965339887
aF-1.6140012851466963
aF0.8889411251349559
aa(lp131
S'CG1'
p132
aF-1.3309815024599474
aF-1.5346285862697162
aF2.381692856418157
aa(lp133
S'CG2'
p134
aF-0.3082343579583273
aF-2.9283746273096574
aF0.5625825652320312
aa(lp135
S'CD1'
p136
aF-0.11818207134856595
aF-1.3620993959435344
aF3.268258825977839
aa(lp137
S'HA'
p138
aF0.8097863607327156
aF-0.4643780082082066
aF1.0419262140208632
aa(lp139
S'HB'
p140
aF-1.9476647775781388
aF-1.569044918780865
aF0.3537748959853414
aa(lp141
S'1HG1'
p142
aF-2.0067673979569323
aF-0.699416162881751
aF2.561221771264048
aa(lp143
S'2HG1'
p144
aF-1.8482136233610198
aF-2.4438375292744725
aF2.6887043074559887
aa(lp145
S'1HG2'
p146
aF-0.9457334784700264
aF-3.759318598569575
aF0.8651845942629156
aa(lp147
S'2HG2'
p148
aF-0.12306672710225453
aF-2.985143610665302
aF-0.5091175938665458
aa(lp149
S'3HG2'
p150
aF0.639286469363163
aF-2.9843172493890187
aF1.0982911658974466
aa(lp151
S'1HD1'
p152
aF-0.4332192772460357
aF-1.3150943915084203
aF4.311122234319684
aa(lp153
S'2HD1'
p154
aF0.5570001514222771
aF-2.208195020738845
aF3.1301930454366165
aa(lp155
S'3HD1'
p156
aF0.39721335774897204
aF-0.43952983460077377
aF3.003557189886954
aaa(lp157
(lp158
S'N'
p159
aF-0.7878313940282344
aF0.8332402002978111
aF0.7388678252510364
aa(lp160
S'H'
p161
aF-0.3351034960728021
aF1.5897874641374579
aF1.2296098022507596
aa(lp162
S'CA'
p163
aF-0.041264019932595986
aF-0.3913855835408655
aF0.4754919617147822
aa(lp164
S'C'
p165
aF0.35152611947470647
aF-0.493132579563917
aF-0.9930203655009824
aa(lp166
S'O'
p167
aF0.8126727905589242
aF-1.5385095013305023
aF-1.4509492237156283
aa(lp168
S'CB'
p169
aF-0.8609073452681842
aF-1.631774866908094
aF0.8749656716639593
aa(lp170
S'CG1'
p171
aF-0.01120405198745067
aF-2.5841670796469116
aF1.7207448310798994
aa(lp172
S'CG2'
p173
aF-1.3903113849754225
aF-2.3409774856738417
aF-0.36176105978380224
aa(lp174
S'CD1'
p175
aF-0.797868082502948
aF-3.715876107107677
aF2.3412320430810283
aa(lp176
S'HA'
p177
aF0.8713263685239538
aF-0.3752167040655681
aF1.0715920793403675
aa(lp178
S'HB'
p179
aF-1.70340966949211
aF-1.3263071778221478
aF1.4950401225178622
aa(lp180
S'1HG1'
p181
aF0.7759323863162202
aF-3.0141478920971103
aF1.1035165682635542
aa(lp182
S'2HG1'
p183
aF0.4714755581461102
aF-2.0261854263433845
aF2.523229639994039
aa(lp184
S'1HG2'
p185
aF-1.9662435112551515
aF-3.2157584858411843
aF-0.06090496849570459
aa(lp186
S'2HG2'
p187
aF-2.0280635280050348
aF-1.6614547765199315
aF-0.925749616232657
aa(lp188
S'3HG2'
p189
aF-0.5530069325343121
aF-2.6553885260560666
aF-0.9865257767837656
aa(lp190
S'1HD1'
p191
aF-0.1278687748139784
aF-4.347596900792211
aF2.925022045156166
aa(lp192
S'2HD1'
p193
aF-1.5711032107000673
aF-3.3077071191825436
aF2.993173385395018
aa(lp194
S'3HD1'
p195
aF-1.2620591678314264
aF-4.310979570744966
aF1.5557808963707687
aaa(lp196
(lp197
S'N'
p198
aF-0.7923887217235868
aF0.8224054268710453
aF0.7942217747822767
aa(lp199
S'H'
p200
aF-0.22658017181068207
aF1.5855630858783472
aF1.1361999500273559
aa(lp201
S'CA'
p202
aF-0.15437581557106256
aF-0.4492332871464461
aF0.4781070604857835
aa(lp203
S'C'
p204
aF0.2412496814825783
aF-0.5164188987510309
aF-0.9918846264547785
aa(lp205
S'O'
p206
aF0.9320950276227202
aF-1.442316326851909
aF-1.4166441588406844
aa(lp207
S'CB'
p208
aF-1.0847668846522938
aF-1.6289274781757235
aF0.8132742937077443
aa(lp209
S'CG1'
p210
aF-2.4447114229880595
aF-1.4472683459085844
aF0.13388500006626514
aa(lp211
S'CG2'
p212
aF-1.252760225470202
aF-1.7616317346876473
aF2.3192748972084356
aa(lp213
S'CD1'
p214
aF-3.1804049710214546
aF-2.743894522029731
aF-0.1167453308585571
aa(lp215
S'HA'
p216
aF0.749914465188704
aF-0.5411913063565297
aF1.078763210730144
aa(lp217
S'HB'
p218
aF-0.6585657043949067
aF-2.5520614690472208
aF0.4223648555448017
aa(lp219
S'1HG1'
p220
aF-3.077155516940101
aF-0.8090884190315141
aF0.7497411918483768
aa(lp221
S'2HG1'
p222
aF-2.3084850126544496
aF-0.9439542284188159
aF-0.8239366243832551
aa(lp223
S'1HG2'
p224
aF-1.9142489542942345
aF-2.600305924901809
aF2.538904731947215
aa(lp225
S'2HG2'
p226
aF-0.28092986811291853
aF-1.9365631334121076
aF2.7799426324136727
aa(lp227
S'3HG2'
p228
aF-1.6849796107123607
aF-0.8450135319556388
aF2.719529158199157
aa(lp229
S'1HD1'
p230
aF-4.1344362195733595
aF-2.53334262205101
aF-0.6012536116978567
aa(lp231
S'2HD1'
p232
aF-2.5792333317953857
aF-3.384677734142682
aF-0.7617263656684572
aa(lp233
S'3HD1'
p234
aF-3.359680224947724
aF-3.248774846479867
aF0.8320571993408474
aaa(lp235
(lp236
S'N'
p237
aF-0.7926062307205664
aF0.8270705232784721
aF0.7640505693648889
aa(lp238
S'H'
p239
aF-0.2882807426263867
aF1.5911134874435
aF1.1899638832780415
aa(lp240
S'CA'
p241
aF-0.08926131018490976
aF-0.41673720080496457
aF0.47667230249859915
aa(lp242
S'C'
p243
aF0.30648500891706515
aF-0.4993225567252826
aF-0.9916973750365757
aa(lp244
S'O'
p245
aF0.8636632746147924
aF-1.5021242531917274
aF-1.4389893801049585
aa(lp246
S'CB'
p247
aF-0.9554532901212104
aF-1.6361801854137963
aF0.8445911266736319
aa(lp248
S'CG1'
p249
aF-1.5495833377520982
aF-1.464810893770644
aF2.2446211450603246
aa(lp250
S'CG2'
p251
aF-0.13575412841646445
aF-2.914461802245004
aF0.7625765403372269
aa(lp252
S'CD1'
p253
aF-3.06041466448372
aF-1.398697954648008
aF2.2633235900057453
aa(lp254
S'HA'
p255
aF0.8199175867409302
aF-0.44669126482386373
aF1.0765035182863931
aa(lp256
S'HB'
p257
aF-1.7945842778243055
aF-1.7074972382015599
aF0.15268140463028657
aa(lp258
S'1HG1'
p259
aF-1.2372112478269837
aF-2.295558201928996
aF2.8763399016470426
aa(lp260
S'2HG1'
p261
aF-1.164445487099004
aF-0.5501547060264875
aF2.6950286208149397
aa(lp262
S'1HG2'
p263
aF-0.7637668038209168
aF-3.7656021064207597
aF1.026828810221418
aa(lp264
S'2HG2'
p265
aF0.23970675136221184
aF-3.0408902534031172
aF-0.25137561558216515
aa(lp266
S'3HG2'
p267
aF0.7029744626187051
aF-2.85381907797108
aF1.4558635015392898
aa(lp268
S'1HD1'
p269
aF-3.40696415516166
aF-1.2767130928988957
aF3.289039507799221
aa(lp270
S'2HD1'
p271
aF-3.3945449299136206
aF-0.5509884308392669
aF1.6637741517041986
aa(lp272
S'3HD1'
p273
aF-3.469551176375385
aF-2.3187798718097863
aF1.8495306703599108
aaa(lp274
(lp275
S'N'
p276
aF-0.7838979755799286
aF0.8389432027601865
aF0.764706549222739
aa(lp277
S'H'
p278
aF-0.24858954769926778
aF1.5848208489148696
aF1.185616781940688
aa(lp279
S'CA'
p280
aF-0.1271116260250381
aF-0.42858297067723694
aF0.4723025638028463
aa(lp281
S'C'
p282
aF0.2257649649527108
aF-0.5382726687373385
aF-1.0053206228314915
aa(lp283
S'O'
p284
aF0.9338341843515534
aF-1.4569084122604863
aF-1.4173052721348032
aa(lp285
S'CB'
p286
aF-1.0193353784539148
aF-1.6169541228479714
aF0.876346843913494
aa(lp287
S'CG1'
p288
aF-2.2172341086856697
aF-1.7304403275329352
aF-0.06949115144054664
aa(lp289
S'CG2'
p290
aF-1.487246959279589
aF-1.46461722461321
aF2.315718658965259
aa(lp291
S'CD1'
p292
aF-3.5549299488168318
aF-1.5628049109406905
aF0.6143276888963651
aa(lp293
S'HA'
p294
aF0.7964925158425811
aF-0.4809229647246961
aF1.0480741453767337
aa(lp295
S'HB'
p296
aF-0.4547337041923717
aF-2.543879253474949
aF0.7833643098911238
aa(lp297
S'1HG1'
p298
aF-2.136900201662849
aF-0.9757944423125255
aF-0.8513108565531411
aa(lp299
S'2HG1'
p300
aF-2.204221348450863
aF-2.7060025154561904
aF-0.5566349552248806
aa(lp301
S'1HG2'
p302
aF-2.117271942030674
aF-2.312381907380361
aF2.5844705217722224
aa(lp303
S'2HG2'
p304
aF-0.622836750470541
aF-1.4320858308906528
aF2.9771577713022666
aa(lp305
S'3HG2'
p306
aF-2.0580610950439673
aF-0.5420566555115176
aF2.4180476321367252
aa(lp307
S'1HD1'
p308
aF-4.354330433849293
aF-1.656284761007832
aF-0.12116560282103361
aa(lp309
S'2HD1'
p310
aF-3.6715945341589213
aF-2.3322430777436898
aF1.3782512989476516
aa(lp311
S'3HD1'
p312
aF-3.6043437733801236
aF-0.5789944118230941
aF1.079202054470565
aaa(lp313
(lp314
S'N'
p315
aF-0.7895081074241694
aF0.8310817001930779
aF0.7766498541271225
aa(lp316
S'H'
p317
aF-0.24486613745426322
aF1.586981857690646
aF1.1675169369602136
aa(lp318
S'CA'
p319
aF-0.1323729099843884
aF-0.43567076565996293
aF0.47466223427983745
aa(lp320
S'C'
p321
aF0.2423867240942837
aF-0.5241516865149841
aF-0.9986956120391985
aa(lp322
S'O'
p323
aF0.9243604307685551
aF-1.4582411057087927
aF-1.4201334133279828
aa(lp324
S'CB'
p325
aF-1.0355416397070296
aF-1.6251501862791342
aF0.8489922405238892
aa(lp326
S'CG1'
p327
aF-0.26567211549571207
aF-2.9415248914255736
aF0.714937955470138
aa(lp328
S'CG2'
p329
aF-2.2805469236724
aF-1.6424682014547896
aF-0.02449441034645128
aa(lp330
S'CD1'
p331
aF0.036479929950508944
aF-3.330180055447382
aF-0.7138602475353957
aa(lp332
S'HA'
p333
aF0.7821324917804634
aF-0.4988403423044227
aF1.0640105818040042
aa(lp334
S'HB'
p335
aF-1.3359211769034796
aF-1.5401612393773094
aF1.8924624186019048
aa(lp336
S'1HG1'
p337
aF0.6776979898826946
aF-2.8675501957164427
aF1.256013355643787
aa(lp338
S'2HG1'
p339
aF-0.8409003363832104
aF-3.747294913716715
aF1.1721601826983623
aa(lp340
S'1HG2'
p341
aF-2.907176813294843
aF-2.4900104128239673
aF0.2529892493151753
aa(lp342
S'2HG2'
p343
aF-2.837364885464716
aF-0.7167422000524315
aF0.11897380130006929
aa(lp344
S'3HG2'
p345
aF-1.9900869349019914
aF-1.7317942644659987
aF-1.0709297162256133
aa(lp346
S'1HD1'
p347
aF0.5830399812563816
aF-4.274448065665675
aF-0.7270903342663534
aa(lp348
S'2HD1'
p349
aF-0.8970271585619177
aF-3.444782712409279
aF-1.2659397225336306
aa(lp350
S'3HD1'
p351
aF0.6415890686579488
aF-2.5551919824913787
aF-1.1815037196684735
aaa(lp352
(lp353
S'N'
p354
aF-0.763996774957018
aF0.867385996581323
aF0.7255148660019912
aa(lp355
S'H'
p356
aF-0.2722332029903238
aF1.5795105627900559
aF1.2471547719606684
aa(lp357
S'CA'
p358
aF-0.10219723283623267
aF-0.4055801262454296
aF0.46424179776853025
aa(lp359
S'C'
p360
aF0.18631860884165977
aF-0.5804876676017064
aF-1.0213876853387458
aa(lp361
S'O'
p362
aF0.9521086019419264
aF-1.4608287655242527
aF-1.4155237503924432
aa(lp363
S'CB'
p364
aF-0.9590994155652972
aF-1.5831807784970138
aF0.9628973432614174
aa(lp365
S'CG1'
p366
aF-2.2464575761171623
aF-1.0686689357291486
aF1.612071842230774
aa(lp367
S'CG2'
p368
aF-0.17018161049860092
aF-2.4383282566171687
aF1.942708288042853
aa(lp369
S'CD1'
p370
aF-2.023893594004252
aF-0.33797664659907256
aF2.9166081784329876
aa(lp371
S'HA'
p372
aF0.8462857203900246
aF-0.41817741026316485
aF0.9989065486868808
aa(lp373
S'HB'
p374
aF-1.2589806383733468
aF-2.20030638657536
aF0.11598929863019636
aa(lp375
S'1HG1'
p376
aF-2.755943844846562
aF-0.39347068889203074
aF0.9256280576101568
aa(lp377
S'2HG1'
p378
aF-2.9184187700410815
aF-1.9066749365366586
aF1.802511062117188
aa(lp379
S'1HG2'
p380
aF-0.7915658436867927
aF-3.264942028680177
aF2.2858340763201093
aa(lp381
S'2HG2'
p382
aF0.7168313468195375
aF-2.8311516634620464
aF1.449211799114603
aa(lp383
S'3HG2'
p384
aF0.12866777089443326
aF-1.829618924800291
aF2.796971711466828
aa(lp385
S'1HD1'
p386
aF-2.98184606377275
aF-0.004434427758158943
aF3.3155989727066535
aa(lp387
S'2HD1'
p388
aF-1.5456783354072714
aF-1.0081134365431934
aF3.6317835759463537
aa(lp389
S'3HD1'
p390
aF-1.382387870576329
aF0.5257792522583447
aF2.7448346240125465
aaa(lp391
(lp392
S'N'
p393
aF-0.7875571499686072
aF0.8352946710856086
aF0.7575436805817275
aa(lp394
S'H'
p395
aF-0.28248288211574035
aF1.5891056049275216
aF1.2019872202729618
aa(lp396
S'CA'
p397
aF-0.09336693937799048
aF-0.4148859111005837
aF0.4733932566074693
aa(lp398
S'C'
p399
aF0.27716014048601106
aF-0.515412658023803
aF-1.000970693114746
aa(lp400
S'O'
p401
aF0.886246830976325
aF-1.4941017068887459
aF-1.4319534643474146
aa(lp402
S'CB'
p403
aF-0.9579441764999879
aF-1.625180131765727
aF0.8704374612938583
aa(lp404
S'CG1'
p405
aF-0.07350268677163463
aF-2.840688615596552
aF1.1613246851150214
aa(lp406
S'CG2'
p407
aF-1.9615804289877732
aF-1.9449276638925785
aF-0.2274117033872743
aa(lp408
S'CD1'
p409
aF0.79229111227892
aF-2.684286363306365
aF2.3909569199739518
aa(lp410
S'HA'
p411
aF0.8252100884479345
aF-0.44037269081383845
aF1.0580492819850744
aa(lp412
S'HB'
p413
aF-1.4980511048913927
aF-1.4009198518868669
aF1.7897224186233347
aa(lp414
S'1HG1'
p415
aF-0.6986857283219226
aF-3.7218525982654533
aF1.2937867559315834
aa(lp416
S'2HG1'
p417
aF0.5792118460800242
aF-3.0287154465882193
aF0.30876052364007933
aa(lp418
S'1HG2'
p419
aF-2.563452348065083
aF-2.8035187960067507
aF0.069513305463616
aa(lp420
S'2HG2'
p421
aF-2.6105116781810995
aF-1.0854074453994607
aF-0.3877183714392709
aa(lp422
S'3HG2'
p423
aF-1.4301615756290658
aF-2.176145698717463
aF-1.1503170195853318
aa(lp424
S'1HD1'
p425
aF1.3898333045678375
aF-3.5850791529985373
aF2.531828061351984
aa(lp426
S'2HD1'
p427
aF1.4533554599868315
aF-1.825874900639154
aF2.264728203149868
aa(lp428
S'3HD1'
p429
aF0.15905902467359856
aF-2.5298146372610493
aF3.264293400993488
aaa(lp430
(lp431
S'N'
p432
aF-0.776904721442928
aF0.8484529234000824
aF0.7229564651993523
aa(lp433
S'H'
p434
aF-0.34448595531609605
aF1.5846653502664483
aF1.262168179861492
aa(lp435
S'CA'
p436
aF-0.030248832082716802
aF-0.3770761065134127
aF0.4671194473090536
aa(lp437
S'C'
p438
aF0.32034242309756916
aF-0.5121877624030424
aF-1.0088191056916715
aa(lp439
S'O'
p440
aF0.8312970857441707
aF-1.5438544047500726
aF-1.4434249866782292
aa(lp441
S'CB'
p442
aF-0.8301227382774282
aF-1.6123799228995948
aF0.9199629251361602
aa(lp443
S'CG1'
p444
aF-0.8059508460123516
aF-1.7345824645534649
aF2.4462699907155807
aa(lp445
S'CG2'
p446
aF-0.2761271337474042
aF-2.8720244675955495
aF0.2732779236252729
aa(lp447
S'CD1'
p448
aF-1.6064787142333852
aF-0.6680259112304312
aF3.157180147321307
aa(lp449
S'HA'
p450
aF0.8987398424192854
aF-0.34151334226146846
aF1.0359685770840537
aa(lp451
S'HB'
p452
aF-1.8740103331111488
aF-1.4958781248369166
aF0.6300629071981898
aa(lp453
S'1HG1'
p454
aF-1.1972695029185545
aF-2.7080911420039637
aF2.738857693269374
aa(lp455
S'2HG1'
p456
aF0.22411573186181294
aF-1.677950313013413
aF2.799412517974125
aa(lp457
S'1HG2'
p458
aF-0.8532385613659254
aF-3.73550864447864
aF0.60486121087698
aa(lp459
S'2HG2'
p460
aF-0.3444538347064272
aF-2.784657426745544
aF-0.8112069596760882
aa(lp461
S'3HG2'
p462
aF0.7674195569188808
aF-3.0005838499224207
aF0.5610569875183562
aa(lp463
S'1HD1'
p464
aF-1.5401694971531072
aF-0.8214857704155625
aF4.234407681015599
aa(lp465
S'2HD1'
p466
aF-1.2078734865942407
aF0.3152409125186153
aF2.9046009996998046
aa(lp467
S'3HD1'
p468
aF-2.648525490344321
aF-0.7280316625824663
aF2.8463589347223563
aaa(lp469
(lp470
S'N'
p471
aF-0.8018839557217945
aF0.8089739836439269
aF0.8006954073449154
aa(lp472
S'H'
p473
aF-0.25357174691319667
aF1.5917106194894264
aF1.1260046149869793
aa(lp474
S'CA'
p475
aF-0.13101750603011394
aF-0.44594837750800465
aF0.4834509051719967
aa(lp476
S'C'
p477
aF0.313447642404992
aF-0.48090152036522654
aF-0.9724979296539247
aa(lp478
S'O'
p479
aF0.8730255662601178
aF-1.4738347052601188
aF-1.4376529978499764
aa(lp480
S'CB'
p481
aF-1.0502721783674067
aF-1.648411081556329
aF0.7690105184909175
aa(lp482
S'CG1'
p483
aF-0.2578555991463612
aF-2.7829293808832833
aF1.4218889095163005
aa(lp484
S'CG2'
p485
aF-1.7125885149630307
aF-2.126633135099929
aF-0.5134522442367577
aa(lp486
S'CD1'
p487
aF1.0142652534399956
aF-3.1422681177334613
aF0.6871793011580875
aa(lp488
S'HA'
p489
aF0.7546912022517476
aF-0.5329412054066249
aF1.1124972722768982
aa(lp490
S'HB'
p491
aF-1.8234583841720666
aF-1.3544954880350604
aF1.478009612311517
aa(lp492
S'1HG1'
p493
aF0.004451129014042543
aF-2.5028750927118573
aF2.4422451100847957
aa(lp494
S'2HG1'
p495
aF-0.8806745561912105
aF-3.6761039466028294
aF1.4802047898343376
aa(lp496
S'1HG2'
p497
aF-2.358126859493438
aF-2.9768794079132315
aF-0.29380133641248724
aa(lp498
S'2HG2'
p499
aF-2.3084151603766263
aF-1.3197253431270104
aF-0.9390758148582292
aa(lp500
S'3HG2'
p501
aF-0.9466218929027572
aF-2.4280532851139287
aF-1.2279793795193223
aa(lp502
S'1HD1'
p503
aF1.5198998611048928
aF-3.954355745237774
aF1.2103096183697581
aa(lp504
S'2HD1'
p505
aF0.7706519889302068
aF-3.460339872557174
aF-0.3266022019964404
aa(lp506
S'3HD1'
p507
aF1.6689705548657074
aF-2.2726166623054653
aF0.6482779598311391
aaa(lp508
(lp509
S'N'
p510
aF-0.7975593200506356
aF0.8179012134753052
aF0.752177197205546
aa(lp511
S'H'
p512
aF-0.327515225437071
aF1.593676014912262
aF1.1966218018238997
aa(lp513
S'CA'
p514
aF-0.05095566131056187
aF-0.4050492669252479
aF0.4842889756578429
aa(lp515
S'C'
p516
aF0.38602236097104503
aF-0.4754679753165739
aF-0.9730577276188169
aa(lp517
S'O'
p518
aF0.7900078458272224
aF-1.5310599861457472
aF-1.4600302470684685
aa(lp519
S'CB'
p520
aF-0.8924691122239112
aF-1.6481285532543666
aF0.8292701343192885
aa(lp521
S'CG1'
p522
aF-1.6100866672532788
aF-1.4534151983534507
aF2.1666948066417717
aa(lp523
S'CG2'
p524
aF-0.014268053560880012
aF-2.889099527159978
aF0.8683206463119314
aa(lp525
S'CD1'
p526
aF-1.4434838092969602
aF-2.610745883860221
aF3.124439121219111
aa(lp527
S'HA'
p528
aF0.8418087544111219
aF-0.4092854014864591
aF1.1084402018723716
aa(lp529
S'HB'
p530
aF-1.6654148542577543
aF-1.7853985513367907
aF0.07278032771367249
aa(lp531
S'1HG1'
p532
aF-1.236945287961709
aF-0.552510648996154
aF2.6520467449377985
aa(lp533
S'2HG1'
p534
aF-2.6762499247610365
aF-1.3101939848871975
aF1.9898231233408537
aa(lp535
S'1HG2'
p536
aF-0.6246226801985922
aF-3.7586980174156728
aF1.1139152217547867
aa(lp537
S'2HG2'
p538
aF0.45176955500057814
aF-3.036541695414744
aF-0.10491044362850369
aa(lp539
S'3HG2'
p540
aF0.7597611985596853
aF-2.764154568789593
aF1.6257693074365651
aa(lp541
S'1HD1'
p542
aF-1.9801180701899659
aF-2.399558306371037
aF4.048817007773125
aa(lp543
S'2HD1'
p544
aF-1.8436769938491344
aF-3.5181843029984683
aF2.671188715251431
aa(lp545
S'3HD1'
p546
aF-0.38567699706692204
aF-2.75124909403408
aF3.343604802680797
aaa(lp547
(lp548
S'N'
p549
aF-0.7434263047631758
aF0.890738057693129
aF0.6974725241636778
aa(lp550
S'H'
p551
aF-0.2866223678554377
aF1.5721365566407006
aF1.2857031327327861
aa(lp552
S'CA'
p553
aF-0.09155751385719768
aF-0.39233829637923406
aF0.4582756406907639
aa(lp554
S'C'
p555
aF0.15064900952805543
aF-0.6190394561044126
aF-1.028161907344432
aa(lp556
S'O'
p557
aF0.9709571769477725
aF-1.4514968618501474
aF-1.41328939024276
aa(lp558
S'CB'
p559
aF-0.9337407150665411
aF-1.5492718531544427
aF1.02488061843827
aa(lp560
S'CG1'
p561
aF-0.9512908731496454
aF-1.498455490602535
aF2.5545507427618883
aa(lp562
S'CG2'
p563
aF-0.39418707049108026
aF-2.886617956937518
aF0.5402227356781004
aa(lp564
S'CD1'
p565
aF-1.5759526295122281
aF-2.715474464823104
aF3.1997379299603823
aa(lp566
S'HA'
p567
aF0.8737318946633486
aF-0.3887118927792585
aF0.9645702258829865
aa(lp568
S'HB'
p569
aF-1.9667807913395186
aF-1.443849258890172
aF0.693886241699724
aa(lp570
S'1HG1'
p571
aF0.0674552803349393
aF-1.4006512703351985
aF2.927312877719662
aa(lp572
S'2HG1'
p573
aF-1.504786599096738
aF-0.6183799180658239
aF2.8828044068427197
aa(lp574
S'1HG2'
p575
aF-1.0005117621525943
aF-3.693438964851704
aF0.9493159151248927
aa(lp576
S'2HG2'
p577
aF-0.4327824021966615
aF-2.921146438715103
aF-0.5485013727702528
aa(lp578
S'3HG2'
p579
aF0.6379306453858594
aF-3.0043669195666163
aF0.8707589702617837
aa(lp580
S'1HD1'
p581
aF-1.551906767441419
aF-2.604954836246474
aF4.283496301654247
aa(lp582
S'2HD1'
p583
aF-2.610469865860009
aF-2.812354088600758
aF2.8665916764979626
aa(lp584
S'3HD1'
p585
aF-1.0172691627254022
aF-3.6055094001539816
aF2.912907670347473
aaa(lp586
(lp587
S'N'
p588
aF-0.7778490069337045
aF0.8481583446739094
aF0.7555619794379799
aa(lp589
S'H'
p590
aF-0.24425281304427482
aF1.582042001025881
aF1.1977699404768705
aa(lp591
S'CA'
p592
aF-0.13044824060265445
aF-0.42655077773741745
aF0.4698787615281993
aa(lp593
S'C'
p594
aF0.1996663988967065
aF-0.5586865760112933
aF-1.0110231446096587
aa(lp595
S'O'
p596
aF0.9528836616839278
aF-1.4449629919510776
aF-1.4121875368334136
aa(lp597
S'CB'
p598
aF-1.0226496383719932
aF-1.6041274879700742
aF0.9047727225532609
aa(lp599
S'CG1'
p600
aF-0.5096058618372508
aF-2.207077025568834
aF2.2158970257634527
aa(lp601
S'CG2'
p602
aF-1.0743455203821135
aF-2.6624862868165735
aF-0.18631810257881087
aa(lp603
S'CD1'
p604
aF0.35171798112525354
aF-1.2648652007507362
aF3.024480425739757
aa(lp605
S'HA'
p606
aF0.8015654547024899
aF-0.4743798262747981
aF1.032559713649082
aa(lp607
S'HB'
p608
aF-2.0323779066127674
aF-1.2448664629187667
aF1.0965860176987485
aa(lp609
S'1HG1'
p610
aF-1.3557104477514583
aF-2.5097483792837103
aF2.8317266136652925
aa(lp611
S'2HG1'
p612
aF0.07436603979721301
aF-3.1022592747208186
aF2.0011936049601795
aa(lp613
S'1HG2'
p614
aF-1.7081529750855393
aF-3.4883577126654233
aF0.13712199748418044
aa(lp615
S'2HG2'
p616
aF-1.4842908092911715
aF-2.226998591209296
aF-1.0964171779963916
aa(lp617
S'3HG2'
p618
aF-0.06826306716706204
aF-3.0338872584007435
aF-0.38274980989490315
aa(lp619
S'1HD1'
p620
aF0.6771054017389466
aF-1.7624345423151346
aF3.93868268828429
aa(lp621
S'2HD1'
p622
aF1.2244509682106546
aF-0.9756144798510676
aF2.4384973596772452
aa(lp623
S'3HD1'
p624
aF-0.2234364873594057
aF-0.3762960392375221
aF3.2820851279286805
aaa(lp625
(lp626
S'N'
p627
aF-0.7821277304619261
aF0.8401749173714926
aF0.7257902737446179
aa(lp628
S'H'
p629
aF-0.3502704888220681
aF1.5866773936034098
aF1.2513113254854877
aa(lp630
S'CA'
p631
aF-0.02487830502636748
aF-0.3795291819974474
aF0.47201829408547735
aa(lp632
S'C'
p633
aF0.35082407878018323
aF-0.49836292311727526
aF-0.9985167312619443
aa(lp634
S'O'
p635
aF0.8064524455301726
aF-1.5489602058601781
aF-1.4506031620536317
aa(lp636
S'CB'
p637
aF-0.8270971443316129
aF-1.6227203517727213
aF0.8994555985601026
aa(lp638
S'CG1'
p639
aF0.0330000787189777
aF-2.5368701453069926
aF1.7757437485894807
aa(lp640
S'CG2'
p641
aF-1.3349497776791286
aF-2.37353455618017
aF-0.3207971347955753
aa(lp642
S'CD1'
p643
aF0.786492322196723
aF-3.5937895933146207
aF1.0003569293552848
aa(lp644
S'HA'
p645
aF0.893233875507442
aF-0.34439145320134945
aF1.0566860321816578
aa(lp646
S'HB'
p647
aF-1.6782654530250443
aF-1.3157938860108027
aF1.5059048172840275
aa(lp648
S'1HG1'
p649
aF0.7558595657654915
aF-1.9378706371340124
aF2.3269857564185106
aa(lp650
S'2HG1'
p651
aF-0.5993224969617316
aF-3.0397297349027292
aF2.50767639128013
aa(lp652
S'1HG2'
p653
aF-1.8990125475482924
aF-3.2492476176322445
aF-0.0008145951941756491
aa(lp654
S'2HG2'
p655
aF-1.9811107620870687
aF-1.720181728115671
aF-0.9069814610011502
aa(lp656
S'3HG2'
p657
aF-0.489318310085306
aF-2.6903251654635403
aF-0.9319412510930236
aa(lp658
S'1HD1'
p659
aF1.3723396818254008
aF-4.202321174174699
aF1.689168359510188
aa(lp660
S'2HD1'
p661
aF0.07832045781216213
aF-4.228986068016788
aF0.46694897195304097
aa(lp662
S'3HD1'
p663
aF1.4530186340277882
aF-3.1124904049045337
aF0.2853137370426315
aaa(lp664
(lp665
S'N'
p666
aF-0.7948983414969164
aF0.821832301984504
aF0.7432497925329696
aa(lp667
S'H'
p668
aF-0.33954855943539136
aF1.5926048268527437
aF1.2115448820702837
aa(lp669
S'CA'
p670
aF-0.037823959619901384
aF-0.3969710065457027
aF0.48252412171907105
aa(lp671
S'C'
p672
aF0.39089585614956157
aF-0.4776056220813476
aF-0.9761833123964936
aa(lp673
S'O'
p674
aF0.7813750044026567
aF-1.539860500210187
aF-1.461135483925834
aa(lp675
S'CB'
p676
aF-0.8639491163174745
aF-1.6447940470733002
aF0.8458433821497213
aa(lp677
S'CG1'
p678
aF0.05886590359618007
aF-2.802006248889081
aF1.2341813264591017
aa(lp679
S'CG2'
p680
aF-1.7626737937820562
aF-2.0431004700239246
aF-0.31462632773178345
aa(lp681
S'CD1'
p682
aF-0.4575619650785541
aF-4.160707464930872
aF0.8201109677244687
aa(lp683
S'HA'
p684
aF0.8587237864515775
aF-0.38613949314133333
aF1.1006291429990482
aa(lp685
S'HB'
p686
aF-1.483822149092096
aF-1.4298506815873935
aF1.7159392233490611
aa(lp687
S'1HG1'
p688
aF1.0378113015305181
aF-2.655282403721487
aF0.7774943208169192
aa(lp689
S'2HG1'
p690
aF0.20153754652384892
aF-2.806635042508928
aF2.314863692639814
aa(lp691
S'1HG2'
p692
aF-2.3391880920327277
aF-2.92674728356666
aF-0.04159048241417396
aa(lp693
S'2HG2'
p694
aF-2.4429389517813824
aF-1.2244277420261767
aF-0.5460356603976861
aa(lp695
S'3HG2'
p696
aF-1.1510969107326328
aF-2.264879461813056
aF-1.1895644940730112
aa(lp697
S'1HD1'
p698
aF0.25088563062749114
aF-4.929170526132479
aF1.1310233793567102
aa(lp699
S'2HD1'
p700
aF-1.4224297705512388
aF-4.343450408946503
aF1.2950584746921512
aa(lp701
S'3HD1'
p702
aF-0.5739587008529978
aF-4.191773224653842
aF-0.261807568244802
aaa.