(lp0
(lp1
(lp2
(lp3
(lp4
S'1ln3B00'
p5
aS'85'
p6
aS'93'
p7
aS'96'
p8
aS'103'
p9
aa(lp10
(lp11
I85
aS'VAL'
p12
aS'N'
p13
aF80.301
aF126.81
aF40.694
aa(lp14
I85
aS'VAL'
p15
aS'CA'
p16
aF81.301
aF127.82
aF41.019
aa(lp17
I85
aS'VAL'
p18
aS'C'
p19
aF80.602
aF129.132
aF41.373
aa(lp20
I85
aS'VAL'
p21
aS'O'
p22
aF79.932
aF129.735
aF40.537
aa(lp23
I85
aS'VAL'
p24
aS'H'
p25
aF80.111
aF126.749
aF39.858
aa(lp26
I86
aS'LYS'
p27
aS'N'
p28
aF80.755
aF129.564
aF42.618
aa(lp29
I86
aS'LYS'
p30
aS'CA'
p31
aF80.144
aF130.8
aF43.075
aa(lp32
I86
aS'LYS'
p33
aS'C'
p34
aF81.016
aF131.979
aF42.704
aa(lp35
I86
aS'LYS'
p36
aS'O'
p37
aF80.518
aF133.019
aF42.308
aa(lp38
I86
aS'LYS'
p39
aS'H'
p40
aF81.213
aF129.151
aF43.217
aa(lp41
I87
aS'GLU'
p42
aS'N'
p43
aF82.321
aF131.804
aF42.867
aa(lp44
I87
aS'GLU'
p45
aS'CA'
p46
aF83.287
aF132.827
aF42.545
aa(lp47
I87
aS'GLU'
p48
aS'C'
p49
aF84.634
aF132.137
aF42.321
aa(lp50
I87
aS'GLU'
p51
aS'O'
p52
aF85.038
aF131.28
aF43.111
aa(lp53
I87
aS'GLU'
p54
aS'H'
p55
aF82.668
aF131.078
aF43.171
aa(lp56
I88
aS'LEU'
p57
aS'N'
p58
aF85.311
aF132.501
aF41.232
aa(lp59
I88
aS'LEU'
p60
aS'CA'
p61
aF86.594
aF131.896
aF40.901
aa(lp62
I88
aS'LEU'
p63
aS'C'
p64
aF87.601
aF132.816
aF40.198
aa(lp65
I88
aS'LEU'
p66
aS'O'
p67
aF87.315
aF133.369
aF39.155
aa(lp68
I88
aS'LEU'
p69
aS'H'
p70
aF85.042
aF133.097
aF40.673
aa(lp71
I89
aS'TYR'
p72
aS'N'
p73
aF88.791
aF132.956
aF40.776
aa(lp74
I89
aS'TYR'
p75
aS'CA'
p76
aF89.851
aF133.766
aF40.187
aa(lp77
I89
aS'TYR'
p78
aS'C'
p79
aF91.263
aF133.34
aF40.637
aa(lp80
I89
aS'TYR'
p81
aS'O'
p82
aF91.437
aF132.797
aF41.73
aa(lp83
I89
aS'TYR'
p84
aS'H'
p85
aF89.006
aF132.584
aF41.521
aa(lp86
I90
aS'GLU'
p87
aS'N'
p88
aF92.258
aF133.568
aF39.772
aa(lp89
I90
aS'GLU'
p90
aS'CA'
p91
aF93.67
aF133.209
aF40.016
aa(lp92
I90
aS'GLU'
p93
aS'C'
p94
aF94.561
aF134.426
aF40.303
aa(lp95
I90
aS'GLU'
p96
aS'O'
p97
aF94.171
aF135.556
aF40.039
aa(lp98
I90
aS'GLU'
p99
aS'H'
p100
aF92.132
aF133.944
aF39.009
aa(lp101
I91
aS'GLN'
p102
aS'N'
p103
aF95.764
aF134.191
aF40.828
aa(lp104
I91
aS'GLN'
p105
aS'CA'
p106
aF96.709
aF135.282
aF41.106
aa(lp107
I91
aS'GLN'
p108
aS'C'
p109
aF98.122
aF134.773
aF41.41
aa(lp110
I91
aS'GLN'
p111
aS'O'
p112
aF98.297
aF133.615
aF41.752
aa(lp113
I91
aS'GLN'
p114
aS'H'
p115
aF96.055
aF133.408
aF41.032
aa(lp116
I92
aS'GLU'
p117
aS'N'
p118
aF99.128
aF135.638
aF41.281
aa(lp119
I92
aS'GLU'
p120
aS'CA'
p121
aF100.508
aF135.254
aF41.573
aa(lp122
I92
aS'GLU'
p123
aS'C'
p124
aF100.902
aF135.634
aF43.001
aa(lp125
I92
aS'GLU'
p126
aS'O'
p127
aF100.542
aF136.694
aF43.502
aa(lp128
I92
aS'GLU'
p129
aS'H'
p130
aF99.032
aF136.453
aF41.025
aa(lp131
I93
aS'CYS'
p132
aS'N'
p133
aF101.644
aF134.758
aF43.658
aa(lp134
I93
aS'CYS'
p135
aS'CA'
p136
aF102.109
aF135.007
aF45.017
aa(lp137
I93
aS'CYS'
p138
aS'C'
p139
aF103.471
aF134.344
aF44.979
aa(lp140
I93
aS'CYS'
p141
aS'O'
p142
aF103.549
aF133.116
aF44.918
aa(lp143
I93
aS'CYS'
p144
aS'H'
p145
aF101.894
aF134.002
aF43.332
aaa(lp146
(lp147
I96
aS'GLU'
p148
aS'N'
p149
aF104.665
aF131.432
aF42.298
aa(lp150
I96
aS'GLU'
p151
aS'CA'
p152
aF103.463
aF130.639
aF42.13
aa(lp153
I96
aS'GLU'
p154
aS'C'
p155
aF102.143
aF131.368
aF41.838
aa(lp156
I96
aS'GLU'
p157
aS'O'
p158
aF102.044
aF132.583
aF41.925
aa(lp159
I96
aS'GLU'
p160
aS'H'
p161
aF104.955
aF131.454
aF43.107
aa(lp162
I97
aS'THR'
p163
aS'N'
p164
aF101.139
aF130.582
aF41.465
aa(lp165
I97
aS'THR'
p166
aS'CA'
p167
aF99.789
aF131.057
aF41.185
aa(lp168
I97
aS'THR'
p169
aS'C'
p170
aF98.894
aF130.506
aF42.275
aa(lp171
I97
aS'THR'
p172
aS'O'
p173
aF98.92
aF129.315
aF42.545
aa(lp174
I97
aS'THR'
p175
aS'H'
p176
aF101.227
aF129.732
aF41.365
aa(lp177
I98
aS'VAL'
p178
aS'N'
p179
aF98.098
aF131.359
aF42.891
aa(lp180
I98
aS'VAL'
p181
aS'CA'
p182
aF97.195
aF130.896
aF43.914
aa(lp183
I98
aS'VAL'
p184
aS'C'
p185
aF95.779
aF131.091
aF43.391
aa(lp186
I98
aS'VAL'
p187
aS'O'
p188
aF95.459
aF132.135
aF42.82
aa(lp189
I98
aS'VAL'
p190
aS'H'
p191
aF98.067
aF132.203
aF42.731
aa(lp192
I99
aS'VAL'
p193
aS'N'
p194
aF94.957
aF130.054
aF43.561
aa(lp195
I99
aS'VAL'
p196
aS'CA'
p197
aF93.576
aF130.055
aF43.119
aa(lp198
I99
aS'VAL'
p199
aS'C'
p200
aF92.611
aF130.158
aF44.28
aa(lp201
I99
aS'VAL'
p202
aS'O'
p203
aF92.858
aF129.647
aF45.379
aa(lp204
I99
aS'VAL'
p205
aS'H'
p206
aF95.197
aF129.322
aF43.943
aa(lp207
I100
aS'TYR'
p208
aS'N'
p209
aF91.51
aF130.852
aF44.026
aa(lp210
I100
aS'TYR'
p211
aS'CA'
p212
aF90.482
aF131.039
aF45.031
aa(lp213
I100
aS'TYR'
p214
aS'C'
p215
aF89.257
aF130.419
aF44.424
aa(lp216
I100
aS'TYR'
p217
aS'O'
p218
aF88.906
aF130.793
aF43.318
aa(lp219
I100
aS'TYR'
p220
aS'H'
p221
aF91.341
aF131.225
aF43.27
aa(lp222
I101
aS'TRP'
p223
aS'N'
p224
aF88.589
aF129.507
aF45.134
aa(lp225
I101
aS'TRP'
p226
aS'CA'
p227
aF87.412
aF128.842
aF44.565
aa(lp228
I101
aS'TRP'
p229
aS'C'
p230
aF86.245
aF128.641
aF45.559
aa(lp231
I101
aS'TRP'
p232
aS'O'
p233
aF86.408
aF127.957
aF46.554
aa(lp234
I101
aS'TRP'
p235
aS'H'
p236
aF88.795
aF129.262
aF45.932
aa(lp237
I102
aS'GLU'
p238
aS'N'
p239
aF85.081
aF129.213
aF45.274
aa(lp240
I102
aS'GLU'
p241
aS'CA'
p242
aF83.961
aF129.104
aF46.163
aa(lp243
I102
aS'GLU'
p244
aS'C'
p245
aF83.045
aF128.123
aF45.543
aa(lp246
I102
aS'GLU'
p247
aS'O'
p248
aF82.688
aF128.267
aF44.37
aa(lp249
I102
aS'GLU'
p250
aS'H'
p251
aF84.929
aF129.67
aF44.562
aa(lp252
I103
aS'VAL'
p253
aS'N'
p254
aF82.691
aF127.1
aF46.315
aa(lp255
I103
aS'VAL'
p256
aS'CA'
p257
aF81.716
aF126.123
aF45.837
aa(lp258
I103
aS'VAL'
p259
aS'C'
p260
aF80.266
aF126.216
aF46.421
aa(lp261
I103
aS'VAL'
p262
aS'O'
p263
aF80.108
aF126.164
aF47.624
aa(lp264
I103
aS'VAL'
p265
aS'H'
p266
aF82.997
aF126.954
aF47.105
aaaaa(lp267
S'seq_filter'
p268
aS'VKELYEQECETVVYWEV'
p269
aF47.05882352941176
aF12.5
aa(lp270
S'contacts_filter'
p271
aI29
aF86.20689655172413
aa(lp272
S'PCS_filter'
p273
a(lp274
(lp275
I0
aF0.015295900258816181
a(lp276
(lp277
cnumpy.core.multiarray
scalar
p278
(cnumpy
dtype
p279
(S'f8'
p280
I0
I1
tp281
Rp282
(I3
S'<'
p283
NNNI-1
I-1
I0
tp284
bS'$\xe1\xff\xbb\xea\xbaP@'
p285
tp286
Rp287
ag278
(g282
S'\\\x8c\xda\x0c\xb0\xa18@'
p288
tp289
Rp290
aa(lp291
g278
(g282
S'c\xf9\xe2\x9a\xa0\xfaP@'
p292
tp293
Rp294
ag278
(g282
S'\x17\x18\x8c/\xda{A@'
p295
tp296
Rp297
aaaa(lp298
I1
aF0.001450834059879086
a(lp299
(lp300
g278
(g282
S'\xc78)\xfe\x90\x10Y@'
p301
tp302
Rp303
ag278
(g282
S'\x0bp j\xf4\x07E@'
p304
tp305
Rp306
aa(lp307
g278
(g282
S'\x94ETM!=W@'
p308
tp309
Rp310
ag278
(g282
S')-\x1a\xec\xa4KG@'
p311
tp312
Rp313
aaaaaa(lp314
S'smotif_def'
p315
a(lp316
(lp317
S'strand'
p318
aI9
aI4
aI4
aI89
aI97
aa(lp319
g318
aI8
aI4
aI5
aI102
aI109
aaaaa(lp320
(lp321
(lp322
(lp323
S'1ln2A00'
p324
aS'85'
p325
aS'93'
p326
aS'96'
p327
aS'103'
p328
aa(lp329
(lp330
I85
aS'VAL'
p331
aS'N'
p332
aF55.434
aF125.523
aF80.431
aa(lp333
I85
aS'VAL'
p334
aS'CA'
p335
aF54.288
aF126.397
aF80.131
aa(lp336
I85
aS'VAL'
p337
aS'C'
p338
aF54.691
aF127.867
aF79.866
aa(lp339
I85
aS'VAL'
p340
aS'O'
p341
aF54.964
aF128.646
aF80.79
aa(lp342
I85
aS'VAL'
p343
aS'H'
p344
aF55.677
aF125.561
aF81.255
aa(lp345
I86
aS'LYS'
p346
aS'N'
p347
aF54.698
aF128.243
aF78.594
aa(lp348
I86
aS'LYS'
p349
aS'CA'
p350
aF55.065
aF129.594
aF78.167
aa(lp351
I86
aS'LYS'
p352
aS'C'
p353
aF53.933
aF130.567
aF78.489
aa(lp354
I86
aS'LYS'
p355
aS'O'
p356
aF54.14
aF131.611
aF79.104
aa(lp357
I86
aS'LYS'
p358
aS'H'
p359
aF54.488
aF127.719
aF77.945
aa(lp360
I87
aS'GLU'
p361
aS'N'
p362
aF52.731
aF130.204
aF78.081
aa(lp363
I87
aS'GLU'
p364
aS'CA'
p365
aF51.616
aF131.062
aF78.332
aa(lp366
I87
aS'GLU'
p367
aS'C'
p368
aF50.399
aF130.208
aF78.604
aa(lp369
I87
aS'GLU'
p370
aS'O'
p371
aF50.208
aF129.166
aF77.963
aa(lp372
I87
aS'GLU'
p373
aS'H'
p374
aF52.55
aF129.474
aF77.664
aa(lp375
I88
aS'LEU'
p376
aS'N'
p377
aF49.567
aF130.655
aF79.544
aa(lp378
I88
aS'LEU'
p379
aS'CA'
p380
aF48.389
aF129.885
aF79.903
aa(lp381
I88
aS'LEU'
p382
aS'C'
p383
aF47.277
aF130.719
aF80.514
aa(lp384
I88
aS'LEU'
p385
aS'O'
p386
aF47.503
aF131.395
aF81.499
aa(lp387
I88
aS'LEU'
p388
aS'H'
p389
aF49.668
aF131.391
aF79.977
aa(lp390
I89
aS'TYR'
p391
aS'N'
p392
aF46.076
aF130.663
aF79.949
aa(lp393
I89
aS'TYR'
p394
aS'CA'
p395
aF44.98
aF131.412
aF80.538
aa(lp396
I89
aS'TYR'
p397
aS'C'
p398
aF43.602
aF130.916
aF80.145
aa(lp399
I89
aS'TYR'
p400
aS'O'
p401
aF43.441
aF130.316
aF79.101
aa(lp402
I89
aS'TYR'
p403
aS'H'
p404
aF45.88
aF130.21
aF79.245
aa(lp405
I90
aS'GLU'
p406
aS'N'
p407
aF42.609
aF131.154
aF80.996
aa(lp408
I90
aS'GLU'
p409
aS'CA'
p410
aF41.238
aF130.696
aF80.766
aa(lp411
I90
aS'GLU'
p412
aS'C'
p413
aF40.215
aF131.83
aF80.637
aa(lp414
I90
aS'GLU'
p415
aS'O'
p416
aF40.346
aF132.884
aF81.262
aa(lp417
I90
aS'GLU'
p418
aS'H'
p419
aF42.711
aF131.59
aF81.73
aa(lp420
I91
aS'GLN'
p421
aS'N'
p422
aF39.169
aF131.603
aF79.855
aa(lp423
I91
aS'GLN'
p424
aS'CA'
p425
aF38.16
aF132.63
aF79.701
aa(lp426
I91
aS'GLN'
p427
aS'C'
p428
aF36.864
aF131.895
aF79.514
aa(lp429
I91
aS'GLN'
p430
aS'O'
p431
aF36.849
aF130.735
aF79.1
aa(lp432
I91
aS'GLN'
p433
aS'H'
p434
aF39.029
aF130.877
aF79.415
aa(lp435
I92
aS'GLU'
p436
aS'N'
p437
aF35.78
aF132.577
aF79.859
aa(lp438
I92
aS'GLU'
p439
aS'CA'
p440
aF34.454
aF132.035
aF79.688
aa(lp441
I92
aS'GLU'
p442
aS'C'
p443
aF34.056
aF132.528
aF78.32
aa(lp444
I92
aS'GLU'
p445
aS'O'
p446
aF34.295
aF133.679
aF77.933
aa(lp447
I92
aS'GLU'
p448
aS'H'
p449
aF35.799
aF133.367
aF80.198
aa(lp450
I93
aS'CYS'
p451
aS'N'
p452
aF33.489
aF131.604
aF77.57
aa(lp453
I93
aS'CYS'
p454
aS'CA'
p455
aF33.025
aF131.827
aF76.213
aa(lp456
I93
aS'CYS'
p457
aS'C'
p458
aF31.665
aF131.128
aF76.167
aa(lp459
I93
aS'CYS'
p460
aS'O'
p461
aF31.627
aF129.886
aF76.223
aa(lp462
I93
aS'CYS'
p463
aS'H'
p464
aF33.358
aF130.8
aF77.845
aaa(lp465
(lp466
I96
aS'GLU'
p467
aS'N'
p468
aF30.852
aF127.868
aF78.532
aa(lp469
I96
aS'GLU'
p470
aS'CA'
p471
aF31.937
aF126.998
aF78.878
aa(lp472
I96
aS'GLU'
p473
aS'C'
p474
aF33.279
aF127.702
aF79.05
aa(lp475
I96
aS'GLU'
p476
aS'O'
p477
aF33.449
aF128.864
aF78.694
aa(lp478
I96
aS'GLU'
p479
aS'H'
p480
aF30.849
aF128.176
aF77.729
aa(lp481
I97
aS'THR'
p482
aS'N'
p483
aF34.218
aF126.965
aF79.631
aa(lp484
I97
aS'THR'
p485
aS'CA'
p486
aF35.573
aF127.425
aF79.911
aa(lp487
I97
aS'THR'
p488
aS'C'
p489
aF36.555
aF126.991
aF78.84
aa(lp490
I97
aS'THR'
p491
aS'O'
p492
aF36.854
aF125.789
aF78.734
aa(lp493
I97
aS'THR'
p494
aS'H'
p495
aF34.079
aF126.154
aF79.882
aa(lp496
I98
aS'VAL'
p497
aS'N'
p498
aF37.068
aF127.967
aF78.083
aa(lp499
I98
aS'VAL'
p500
aS'CA'
p501
aF38.019
aF127.696
aF77.022
aa(lp502
I98
aS'VAL'
p503
aS'C'
p504
aF39.43
aF128.035
aF77.5
aa(lp505
I98
aS'VAL'
p506
aS'O'
p507
aF39.672
aF129.084
aF78.118
aa(lp508
I98
aS'VAL'
p509
aS'H'
p510
aF36.87
aF128.799
aF78.176
aa(lp511
I99
aS'VAL'
p512
aS'N'
p513
aF40.356
aF127.117
aF77.234
aa(lp514
I99
aS'VAL'
p515
aS'CA'
p516
aF41.717
aF127.273
aF77.672
aa(lp517
I99
aS'VAL'
p518
aS'C'
p519
aF42.628
aF127.62
aF76.552
aa(lp520
I99
aS'VAL'
p521
aS'O'
p522
aF42.423
aF127.203
aF75.448
aa(lp523
I99
aS'VAL'
p524
aS'H'
p525
aF40.204
aF126.393
aF76.796
aa(lp526
I100
aS'TYR'
p527
aS'N'
p528
aF43.618
aF128.431
aF76.863
aa(lp529
I100
aS'TYR'
p530
aS'CA'
p531
aF44.623
aF128.809
aF75.914
aa(lp532
I100
aS'TYR'
p533
aS'C'
p534
aF45.905
aF128.384
aF76.605
aa(lp535
I100
aS'TYR'
p536
aS'O'
p537
aF46.187
aF128.804
aF77.731
aa(lp538
I100
aS'TYR'
p539
aS'H'
p540
aF43.722
aF128.779
aF77.643
aa(lp541
I101
aS'TRP'
p542
aS'N'
p543
aF46.7
aF127.578
aF75.915
aa(lp544
I101
aS'TRP'
p545
aS'CA'
p546
aF47.922
aF127.08
aF76.491
aa(lp547
I101
aS'TRP'
p548
aS'C'
p549
aF48.972
aF127.136
aF75.428
aa(lp550
I101
aS'TRP'
p551
aS'O'
p552
aF48.674
aF126.835
aF74.284
aa(lp553
I101
aS'TRP'
p554
aS'H'
p555
aF46.544
aF127.312
aF75.112
aa(lp556
I102
aS'GLU'
p557
aS'N'
p558
aF50.191
aF127.52
aF75.796
aa(lp559
I102
aS'GLU'
p560
aS'CA'
p561
aF51.311
aF127.571
aF74.856
aa(lp562
I102
aS'GLU'
p563
aS'C'
p564
aF52.398
aF126.712
aF75.45
aa(lp565
I102
aS'GLU'
p566
aS'O'
p567
aF52.866
aF126.969
aF76.554
aa(lp568
I102
aS'GLU'
p569
aS'H'
p570
aF50.394
aF127.759
aF76.597
aa(lp571
I103
aS'VAL'
p572
aS'N'
p573
aF52.803
aF125.694
aF74.704
aa(lp574
I103
aS'VAL'
p575
aS'CA'
p576
aF53.813
aF124.722
aF75.147
aa(lp577
I103
aS'VAL'
p578
aS'C'
p579
aF55.2
aF124.978
aF74.612
aa(lp580
I103
aS'VAL'
p581
aS'O'
p582
aF55.387
aF125.28
aF73.434
aa(lp583
I103
aS'VAL'
p584
aS'H'
p585
aF52.499
aF125.54
aF73.914
aaaaa(lp586
g268
aS'VKELYEQECETVVYWEV'
p587
aF47.05882352941176
aF12.5
aa(lp588
g271
aI29
aF86.20689655172413
aa(lp589
g273
a(lp590
(lp591
I0
aF0.015958595490102947
a(lp592
(lp593
g278
(g282
S'\x92.y\xbb\xb1\x1eU@'
p594
tp595
Rp596
ag278
(g282
S'\\\x04Q\xb2\xb1\xd0*@'
p597
tp598
Rp599
aa(lp600
g278
(g282
S'\x1a\xcc\x89\x0f\x10\x13V\xc0'
p601
tp602
Rp603
ag278
(g282
S'\xce\x1eL\x97\xad`.\xc0'
p604
tp605
Rp606
aaaa(lp607
I1
aF0.001515772243211574
a(lp608
(lp609
g278
(g282
S'a\xac|C\x08lV@'
p610
tp611
Rp612
ag278
(g282
S'\xf2\xe7\x84)\xf9aB@'
p613
tp614
Rp615
aa(lp616
g278
(g282
S'\xc8\xb5\x87\x15\x91}V@'
p617
tp618
Rp619
ag278
(g282
S'\xfdLh\x82f\xa9F@'
p620
tp621
Rp622
aaaaaa(lp623
g315
a(lp624
g317
ag319
aaaa(lp625
(lp626
(lp627
(lp628
S'1ln3A00'
p629
aS'85'
p630
aS'93'
p631
aS'96'
p632
aS'103'
p633
aa(lp634
(lp635
I85
aS'VAL'
p636
aS'N'
p637
aF55.397
aF125.355
aF80.353
aa(lp638
I85
aS'VAL'
p639
aS'CA'
p640
aF54.281
aF126.219
aF80.018
aa(lp641
I85
aS'VAL'
p642
aS'C'
p643
aF54.804
aF127.642
aF79.699
aa(lp644
I85
aS'VAL'
p645
aS'O'
p646
aF55.342
aF128.349
aF80.558
aa(lp647
I85
aS'VAL'
p648
aS'H'
p649
aF55.652
aF125.406
aF81.173
aa(lp650
I86
aS'LYS'
p651
aS'N'
p652
aF54.657
aF128.036
aF78.44
aa(lp653
I86
aS'LYS'
p654
aS'CA'
p655
aF55.09
aF129.345
aF77.973
aa(lp656
I86
aS'LYS'
p657
aS'C'
p658
aF53.975
aF130.355
aF78.255
aa(lp659
I86
aS'LYS'
p660
aS'O'
p661
aF54.207
aF131.407
aF78.851
aa(lp662
I86
aS'LYS'
p663
aS'H'
p664
aF54.301
aF127.547
aF77.829
aa(lp665
I87
aS'GLU'
p666
aS'N'
p667
aF52.765
aF130.032
aF77.817
aa(lp668
I87
aS'GLU'
p669
aS'CA'
p670
aF51.638
aF130.913
aF78.062
aa(lp671
I87
aS'GLU'
p672
aS'C'
p673
aF50.445
aF130.031
aF78.378
aa(lp674
I87
aS'GLU'
p675
aS'O'
p676
aF50.349
aF128.914
aF77.868
aa(lp677
I87
aS'GLU'
p678
aS'H'
p679
aF52.578
aF129.315
aF77.381
aa(lp680
I88
aS'LEU'
p681
aS'N'
p682
aF49.543
aF130.522
aF79.223
aa(lp683
I88
aS'LEU'
p684
aS'CA'
p685
aF48.377
aF129.738
aF79.611
aa(lp686
I88
aS'LEU'
p687
aS'C'
p688
aF47.322
aF130.594
aF80.293
aa(lp689
I88
aS'LEU'
p690
aS'O'
p691
aF47.633
aF131.322
aF81.241
aa(lp692
I88
aS'LEU'
p693
aS'H'
p694
aF49.588
aF131.303
aF79.581
aa(lp695
I89
aS'TYR'
p696
aS'N'
p697
aF46.08
aF130.504
aF79.824
aa(lp698
I89
aS'TYR'
p699
aS'CA'
p700
aF44.994
aF131.268
aF80.428
aa(lp701
I89
aS'TYR'
p702
aS'C'
p703
aF43.62
aF130.776
aF80.023
aa(lp704
I89
aS'TYR'
p705
aS'O'
p706
aF43.444
aF130.205
aF78.95
aa(lp707
I89
aS'TYR'
p708
aS'H'
p709
aF45.847
aF130.009
aF79.161
aa(lp710
I90
aS'GLU'
p711
aS'N'
p712
aF42.644
aF130.999
aF80.896
aa(lp713
I90
aS'GLU'
p714
aS'CA'
p715
aF41.283
aF130.552
aF80.649
aa(lp716
I90
aS'GLU'
p717
aS'C'
p718
aF40.306
aF131.69
aF80.463
aa(lp719
I90
aS'GLU'
p720
aS'O'
p721
aF40.512
aF132.796
aF80.954
aa(lp722
I90
aS'GLU'
p723
aS'H'
p724
aF42.753
aF131.411
aF81.643
aa(lp725
I91
aS'GLN'
p726
aS'N'
p727
aF39.219
aF131.397
aF79.763
aa(lp728
I91
aS'GLN'
p729
aS'CA'
p730
aF38.177
aF132.383
aF79.527
aa(lp731
I91
aS'GLN'
p732
aS'C'
p733
aF36.857
aF131.667
aF79.345
aa(lp734
I91
aS'GLN'
p735
aS'O'
p736
aF36.807
aF130.519
aF78.9
aa(lp737
I91
aS'GLN'
p738
aS'H'
p739
aF39.065
aF130.626
aF79.414
aa(lp740
I92
aS'GLU'
p741
aS'N'
p742
aF35.788
aF132.353
aF79.715
aa(lp743
I92
aS'GLU'
p744
aS'CA'
p745
aF34.464
aF131.803
aF79.568
aa(lp746
I92
aS'GLU'
p747
aS'C'
p748
aF34.013
aF132.268
aF78.201
aa(lp749
I92
aS'GLU'
p750
aS'O'
p751
aF34.125
aF133.445
aF77.864
aa(lp752
I92
aS'GLU'
p753
aS'H'
p754
aF35.813
aF133.143
aF80.055
aa(lp755
I93
aS'CYS'
p756
aS'N'
p757
aF33.562
aF131.323
aF77.397
aa(lp758
I93
aS'CYS'
p759
aS'CA'
p760
aF33.069
aF131.606
aF76.059
aa(lp761
I93
aS'CYS'
p762
aS'C'
p763
aF31.724
aF130.889
aF76.076
aa(lp764
I93
aS'CYS'
p765
aS'O'
p766
aF31.672
aF129.647
aF76.134
aa(lp767
I93
aS'CYS'
p768
aS'H'
p769
aF33.532
aF130.491
aF77.612
aaa(lp770
(lp771
I96
aS'GLU'
p772
aS'N'
p773
aF30.816
aF127.643
aF78.535
aa(lp774
I96
aS'GLU'
p775
aS'CA'
p776
aF31.959
aF126.794
aF78.814
aa(lp777
I96
aS'GLU'
p778
aS'C'
p779
aF33.326
aF127.462
aF78.929
aa(lp780
I96
aS'GLU'
p781
aS'O'
p782
aF33.564
aF128.549
aF78.384
aa(lp783
I96
aS'GLU'
p784
aS'H'
p785
aF30.757
aF127.921
aF77.723
aa(lp786
I97
aS'THR'
p787
aS'N'
p788
aF34.217
aF126.766
aF79.639
aa(lp789
I97
aS'THR'
p790
aS'CA'
p791
aF35.589
aF127.207
aF79.904
aa(lp792
I97
aS'THR'
p793
aS'C'
p794
aF36.55
aF126.829
aF78.785
aa(lp795
I97
aS'THR'
p796
aS'O'
p797
aF36.868
aF125.654
aF78.622
aa(lp798
I97
aS'THR'
p799
aS'H'
p800
aF34.034
aF126.002
aF79.99
aa(lp801
I98
aS'VAL'
p802
aS'N'
p803
aF37.032
aF127.813
aF78.029
aa(lp804
I98
aS'VAL'
p805
aS'CA'
p806
aF37.961
aF127.517
aF76.942
aa(lp807
I98
aS'VAL'
p808
aS'C'
p809
aF39.382
aF127.822
aF77.412
aa(lp810
I98
aS'VAL'
p811
aS'O'
p812
aF39.627
aF128.85
aF78.059
aa(lp813
I98
aS'VAL'
p814
aS'H'
p815
aF36.838
aF128.645
aF78.126
aa(lp816
I99
aS'VAL'
p817
aS'N'
p818
aF40.31
aF126.923
aF77.092
aa(lp819
I99
aS'VAL'
p820
aS'CA'
p821
aF41.687
aF127.089
aF77.502
aa(lp822
I99
aS'VAL'
p823
aS'C'
p824
aF42.652
aF127.357
aF76.385
aa(lp825
I99
aS'VAL'
p826
aS'O'
p827
aF42.574
aF126.767
aF75.331
aa(lp828
I99
aS'VAL'
p829
aS'H'
p830
aF40.155
aF126.21
aF76.636
aa(lp831
I100
aS'TYR'
p832
aS'N'
p833
aF43.568
aF128.273
aF76.638
aa(lp834
I100
aS'TYR'
p835
aS'CA'
p836
aF44.598
aF128.563
aF75.687
aa(lp837
I100
aS'TYR'
p838
aS'C'
p839
aF45.836
aF128.115
aF76.422
aa(lp840
I100
aS'TYR'
p841
aS'O'
p842
aF46.011
aF128.432
aF77.6
aa(lp843
I100
aS'TYR'
p844
aS'H'
p845
aF43.604
aF128.737
aF77.361
aa(lp846
I101
aS'TRP'
p847
aS'N'
p848
aF46.696
aF127.388
aF75.722
aa(lp849
I101
aS'TRP'
p850
aS'CA'
p851
aF47.918
aF126.853
aF76.313
aa(lp852
I101
aS'TRP'
p853
aS'C'
p854
aF49.045
aF126.891
aF75.279
aa(lp855
I101
aS'TRP'
p856
aS'O'
p857
aF48.8
aF126.495
aF74.161
aa(lp858
I101
aS'TRP'
p859
aS'H'
p860
aF46.59
aF127.19
aF74.892
aa(lp861
I102
aS'GLU'
p862
aS'N'
p863
aF50.246
aF127.348
aF75.644
aa(lp864
I102
aS'GLU'
p865
aS'CA'
p866
aF51.377
aF127.385
aF74.73
aa(lp867
I102
aS'GLU'
p868
aS'C'
p869
aF52.383
aF126.433
aF75.324
aa(lp870
I102
aS'GLU'
p871
aS'O'
p872
aF52.652
aF126.458
aF76.509
aa(lp873
I102
aS'GLU'
p874
aS'H'
p875
aF50.422
aF127.645
aF76.432
aa(lp876
I103
aS'VAL'
p877
aS'N'
p878
aF52.901
aF125.553
aF74.482
aa(lp879
I103
aS'VAL'
p880
aS'CA'
p881
aF53.869
aF124.57
aF74.941
aa(lp882
I103
aS'VAL'
p883
aS'C'
p884
aF55.333
aF124.79
aF74.496
aa(lp885
I103
aS'VAL'
p886
aS'O'
p887
aF55.584
aF124.886
aF73.288
aa(lp888
I103
aS'VAL'
p889
aS'H'
p890
aF52.707
aF125.507
aF73.645
aaaaa(lp891
g268
aS'VKELYEQECETVVYWEV'
p892
aF47.05882352941176
aF12.5
aa(lp893
g271
aI29
aF86.20689655172413
aa(lp894
g273
a(lp895
(lp896
I0
aF0.015414220687565499
a(lp897
(lp898
g278
(g282
S'Ny\x8a\xe3\x9d\xc8R@'
p899
tp900
Rp901
ag278
(g282
S'\x9c\x9c\x88f\xd3p\x1a@'
p902
tp903
Rp904
aa(lp905
g278
(g282
S'\x8d\x0bD\xdb&QS\xc0'
p906
tp907
Rp908
ag278
(g282
S',\x8d\xd4\x99(\x197\xc0'
p909
tp910
Rp911
aaaa(lp912
I1
aF0.0016616878681870568
a(lp913
(lp914
g278
(g282
S'\xb6d\xc3<\xe5\xc7U@'
p915
tp916
Rp917
ag278
(g282
S',\xb4\xe7\x90k\xf0A@'
p918
tp919
Rp920
aa(lp921
g278
(g282
S'\xc8\xfb\xccS\xabwW@'
p922
tp923
Rp924
ag278
(g282
S'\xb2Wi\x9e\x04^H@'
p925
tp926
Rp927
aaaaaa(lp928
g315
a(lp929
g317
ag319
aaaa(lp930
(lp931
(lp932
(lp933
S'1ln1A00'
p934
aS'85'
p935
aS'93'
p936
aS'96'
p937
aS'103'
p938
aa(lp939
(lp940
I85
aS'VAL'
p941
aS'N'
p942
aF54.203
aF58.106
aF19.83
aa(lp943
I85
aS'VAL'
p944
aS'CA'
p945
aF53.156
aF59.043
aF19.484
aa(lp946
I85
aS'VAL'
p947
aS'C'
p948
aF53.858
aF60.336
aF19.069
aa(lp949
I85
aS'VAL'
p950
aS'O'
p951
aF54.687
aF60.868
aF19.804
aa(lp952
I85
aS'VAL'
p953
aS'H'
p954
aF54.358
aF58.03
aF20.672
aa(lp955
I86
aS'LYS'
p956
aS'N'
p957
aF53.573
aF60.811
aF17.865
aa(lp958
I86
aS'LYS'
p959
aS'CA'
p960
aF54.188
aF62.048
aF17.411
aa(lp961
I86
aS'LYS'
p962
aS'C'
p963
aF53.194
aF63.144
aF17.679
aa(lp964
I86
aS'LYS'
p965
aS'O'
p966
aF53.554
aF64.271
aF17.983
aa(lp967
I86
aS'LYS'
p968
aS'H'
p969
aF53.036
aF60.44
aF17.304
aa(lp970
I87
aS'GLU'
p971
aS'N'
p972
aF51.931
aF62.783
aF17.591
aa(lp973
I87
aS'GLU'
p974
aS'CA'
p975
aF50.89
aF63.729
aF17.799
aa(lp976
I87
aS'GLU'
p977
aS'C'
p978
aF49.642
aF62.954
aF18.128
aa(lp979
I87
aS'GLU'
p980
aS'O'
p981
aF49.434
aF61.883
aF17.584
aa(lp982
I87
aS'GLU'
p983
aS'H'
p984
aF51.664
aF61.986
aF17.41
aa(lp985
I88
aS'LEU'
p986
aS'N'
p987
aF48.808
aF63.486
aF19.014
aa(lp988
I88
aS'LEU'
p989
aS'CA'
p990
aF47.578
aF62.791
aF19.405
aa(lp991
I88
aS'LEU'
p992
aS'C'
p993
aF46.525
aF63.714
aF20.011
aa(lp994
I88
aS'LEU'
p995
aS'O'
p996
aF46.808
aF64.458
aF20.937
aa(lp997
I88
aS'LEU'
p998
aS'H'
p999
aF48.931
aF64.244
aF19.401
aa(lp1000
I89
aS'TYR'
p1001
aS'N'
p1002
aF45.309
aF63.667
aF19.488
aa(lp1003
I89
aS'TYR'
p1004
aS'CA'
p1005
aF44.259
aF64.501
aF20.034
aa(lp1006
I89
aS'TYR'
p1007
aS'C'
p1008
aF42.86
aF64.065
aF19.623
aa(lp1009
I89
aS'TYR'
p1010
aS'O'
p1011
aF42.679
aF63.376
aF18.619
aa(lp1012
I89
aS'TYR'
p1013
aS'H'
p1014
aF45.076
aF63.167
aF18.828
aa(lp1015
I90
aS'GLU'
p1016
aS'N'
p1017
aF41.883
aF64.466
aF20.437
aa(lp1018
I90
aS'GLU'
p1019
aS'CA'
p1020
aF40.473
aF64.134
aF20.233
aa(lp1021
I90
aS'GLU'
p1022
aS'C'
p1023
aF39.582
aF65.368
aF20.073
aa(lp1024
I90
aS'GLU'
p1025
aS'O'
p1026
aF39.857
aF66.45
aF20.605
aa(lp1027
I90
aS'GLU'
p1028
aS'H'
p1029
aF42.024
aF64.947
aF21.136
aa(lp1030
I91
aS'GLN'
p1031
aS'N'
p1032
aF38.511
aF65.169
aF19.314
aa(lp1033
I91
aS'GLN'
p1034
aS'CA'
p1035
aF37.507
aF66.187
aF19.053
aa(lp1036
I91
aS'GLN'
p1037
aS'C'
p1038
aF36.172
aF65.448
aF18.896
aa(lp1039
I91
aS'GLN'
p1040
aS'O'
p1041
aF36.13
aF64.235
aF18.644
aa(lp1042
I91
aS'GLN'
p1043
aS'H'
p1044
aF38.346
aF64.419
aF18.928
aa(lp1045
I92
aS'GLU'
p1046
aS'N'
p1047
aF35.084
aF66.177
aF19.091
aa(lp1048
I92
aS'GLU'
p1049
aS'CA'
p1050
aF33.759
aF65.602
aF18.933
aa(lp1051
I92
aS'GLU'
p1052
aS'C'
p1053
aF33.343
aF66.034
aF17.55
aa(lp1054
I92
aS'GLU'
p1055
aS'O'
p1056
aF33.702
aF67.132
aF17.114
aa(lp1057
I92
aS'GLU'
p1058
aS'H'
p1059
aF35.091
aF67.007
aF19.315
aa(lp1060
I93
aS'CYS'
p1061
aS'N'
p1062
aF32.635
aF65.156
aF16.844
aa(lp1063
I93
aS'CYS'
p1064
aS'CA'
p1065
aF32.144
aF65.443
aF15.49
aa(lp1066
I93
aS'CYS'
p1067
aS'C'
p1068
aF30.811
aF64.727
aF15.37
aa(lp1069
I93
aS'CYS'
p1070
aS'O'
p1071
aF30.754
aF63.478
aF15.234
aa(lp1072
I93
aS'CYS'
p1073
aS'H'
p1074
aF32.423
aF64.374
aF17.134
aaa(lp1075
(lp1076
I96
aS'GLU'
p1077
aS'N'
p1078
aF29.814
aF61.706
aF17.937
aa(lp1079
I96
aS'GLU'
p1080
aS'CA'
p1081
aF30.962
aF60.844
aF18.133
aa(lp1082
I96
aS'GLU'
p1083
aS'C'
p1084
aF32.354
aF61.453
aF18.255
aa(lp1085
I96
aS'GLU'
p1086
aS'O'
p1087
aF32.692
aF62.448
aF17.608
aa(lp1088
I96
aS'GLU'
p1089
aS'H'
p1090
aF29.626
aF61.87
aF17.114
aa(lp1091
I97
aS'THR'
p1092
aS'N'
p1093
aF33.146
aF60.806
aF19.106
aa(lp1094
I97
aS'THR'
p1095
aS'CA'
p1096
aF34.526
aF61.17
aF19.384
aa(lp1097
I97
aS'THR'
p1098
aS'C'
p1099
aF35.428
aF60.733
aF18.24
aa(lp1100
I97
aS'THR'
p1101
aS'O'
p1102
aF35.421
aF59.57
aF17.846
aa(lp1103
I97
aS'THR'
p1104
aS'H'
p1105
aF32.882
aF60.119
aF19.552
aa(lp1106
I98
aS'VAL'
p1107
aS'N'
p1108
aF36.208
aF61.67
aF17.711
aa(lp1109
I98
aS'VAL'
p1110
aS'CA'
p1111
aF37.117
aF61.363
aF16.624
aa(lp1112
I98
aS'VAL'
p1113
aS'C'
p1114
aF38.541
aF61.581
aF17.072
aa(lp1115
I98
aS'VAL'
p1116
aS'O'
p1117
aF38.895
aF62.666
aF17.514
aa(lp1118
I98
aS'VAL'
p1119
aS'H'
p1120
aF36.223
aF62.49
aF17.97
aa(lp1121
I99
aS'VAL'
p1122
aS'N'
p1123
aF39.359
aF60.54
aF16.943
aa(lp1124
I99
aS'VAL'
p1125
aS'CA'
p1126
aF40.755
aF60.603
aF17.336
aa(lp1127
I99
aS'VAL'
p1128
aS'C'
p1129
aF41.698
aF60.799
aF16.167
aa(lp1130
I99
aS'VAL'
p1131
aS'O'
p1132
aF41.489
aF60.256
aF15.076
aa(lp1133
I99
aS'VAL'
p1134
aS'H'
p1135
aF39.116
aF59.779
aF16.625
aa(lp1136
I100
aS'TYR'
p1137
aS'N'
p1138
aF42.727
aF61.607
aF16.406
aa(lp1139
I100
aS'TYR'
p1140
aS'CA'
p1141
aF43.753
aF61.871
aF15.409
aa(lp1142
I100
aS'TYR'
p1143
aS'C'
p1144
aF45.062
aF61.395
aF16.045
aa(lp1145
I100
aS'TYR'
p1146
aS'O'
p1147
aF45.416
aF61.823
aF17.137
aa(lp1148
I100
aS'TYR'
p1149
aS'H'
p1150
aF42.848
aF62.017
aF17.152
aa(lp1151
I101
aS'TRP'
p1152
aS'N'
p1153
aF45.785
aF60.517
aF15.362
aa(lp1154
I101
aS'TRP'
p1155
aS'CA'
p1156
aF47.009
aF59.949
aF15.909
aa(lp1157
I101
aS'TRP'
p1158
aS'C'
p1159
aF48.056
aF59.805
aF14.807
aa(lp1160
I101
aS'TRP'
p1161
aS'O'
p1162
aF47.778
aF59.211
aF13.781
aa(lp1163
I101
aS'TRP'
p1164
aS'H'
p1165
aF45.582
aF60.236
aF14.575
aa(lp1166
I102
aS'GLU'
p1167
aS'N'
p1168
aF49.247
aF60.36
aF15.023
aa(lp1169
I102
aS'GLU'
p1170
aS'CA'
p1171
aF50.357
aF60.277
aF14.072
aa(lp1172
I102
aS'GLU'
p1173
aS'C'
p1174
aF51.412
aF59.371
aF14.708
aa(lp1175
I102
aS'GLU'
p1176
aS'O'
p1177
aF51.879
aF59.655
aF15.803
aa(lp1178
I102
aS'GLU'
p1179
aS'H'
p1180
aF49.437
aF60.802
aF15.736
aa(lp1181
I103
aS'VAL'
p1182
aS'N'
p1183
aF51.779
aF58.287
aF14.024
aa(lp1184
I103
aS'VAL'
p1185
aS'CA'
p1186
aF52.773
aF57.333
aF14.54
aa(lp1187
I103
aS'VAL'
p1188
aS'C'
p1189
aF54.172
aF57.542
aF13.981
aa(lp1190
I103
aS'VAL'
p1191
aS'O'
p1192
aF54.341
aF57.706
aF12.788
aa(lp1193
I103
aS'VAL'
p1194
aS'H'
p1195
aF51.463
aF58.081
aF13.251
aaaaa(lp1196
g268
aS'VKELYEQECETVVYWEV'
p1197
aF47.05882352941176
aF12.5
aa(lp1198
g271
aI29
aF86.20689655172413
aa(lp1199
g273
a(lp1200
(lp1201
I0
aF0.01469979185061181
a(lp1202
(lp1203
g278
(g282
S'J\xc5\x82\xd0\x8d\x7fC@'
p1204
tp1205
Rp1206
ag278
(g282
S'-\x10\xea\xc3f\x85&@'
p1207
tp1208
Rp1209
aa(lp1210
g278
(g282
S'tU\x80Z~zQ\xc0'
p1211
tp1212
Rp1213
ag278
(g282
S'r\x0f\xf6\x01\x02_$\xc0'
p1214
tp1215
Rp1216
aaaa(lp1217
I1
aF0.0015274400716012455
a(lp1218
(lp1219
g278
(g282
S'\x05\tr?\xdfhW@'
p1220
tp1221
Rp1222
ag278
(g282
S'x\xc6%\xdf\xcddC@'
p1223
tp1224
Rp1225
aa(lp1226
g278
(g282
S'"<\xe2(1*W@'
p1227
tp1228
Rp1229
ag278
(g282
S'\xbd\x1cS\x99.wG@'
p1230
tp1231
Rp1232
aaaaaa(lp1233
g315
a(lp1234
g317
ag319
aaaa.