(lp0
(lp1
(lp2
(lp3
(lp4
S'3decA02'
p5
aS'258'
p6
aS'264'
p7
aS'270'
p8
aS'276'
p9
aa(lp10
(lp11
I258
aS'SER'
p12
aS'N'
p13
aF-29.959
aF-1.744
aF54.872
aa(lp14
I258
aS'SER'
p15
aS'CA'
p16
aF-29.959
aF-0.282
aF54.81
aa(lp17
I258
aS'SER'
p18
aS'C'
p19
aF-29.119
aF0.319
aF53.635
aa(lp20
I258
aS'SER'
p21
aS'O'
p22
aF-28.124
aF-0.285
aF53.171
aa(lp23
I258
aS'SER'
p24
aS'H'
p25
aF-29.187
aF-2.094
aF55.015
aa(lp26
I259
aS'ILE'
p27
aS'N'
p28
aF-29.524
aF1.495
aF53.15
aa(lp29
I259
aS'ILE'
p30
aS'CA'
p31
aF-28.692
aF2.284
aF52.214
aa(lp32
I259
aS'ILE'
p33
aS'C'
p34
aF-28.224
aF3.572
aF52.892
aa(lp35
I259
aS'ILE'
p36
aS'O'
p37
aF-29.046
aF4.282
aF53.457
aa(lp38
I259
aS'ILE'
p39
aS'H'
p40
aF-30.277
aF1.86
aF53.347
aa(lp41
I260
aS'ALA'
p42
aS'N'
p43
aF-26.923
aF3.873
aF52.827
aa(lp44
I260
aS'ALA'
p45
aS'CA'
p46
aF-26.324
aF4.989
aF53.571
aa(lp47
I260
aS'ALA'
p48
aS'C'
p49
aF-25.348
aF5.778
aF52.703
aa(lp50
I260
aS'ALA'
p51
aS'O'
p52
aF-24.609
aF5.201
aF51.9
aa(lp53
I260
aS'ALA'
p54
aS'H'
p55
aF-26.36
aF3.434
aF52.348
aa(lp56
I261
aS'TYR'
p57
aS'N'
p58
aF-25.343
aF7.097
aF52.862
aa(lp59
I261
aS'TYR'
p60
aS'CA'
p61
aF-24.384
aF7.93
aF52.162
aa(lp62
I261
aS'TYR'
p63
aS'C'
p64
aF-23.548
aF8.74
aF53.127
aa(lp65
I261
aS'TYR'
p66
aS'O'
p67
aF-23.981
aF9.04
aF54.229
aa(lp68
I261
aS'TYR'
p69
aS'H'
p70
aF-25.888
aF7.526
aF53.371
aa(lp71
I262
aS'THR'
p72
aS'N'
p73
aF-22.353
aF9.11
aF52.694
aa(lp74
I262
aS'THR'
p75
aS'CA'
p76
aF-21.508
aF10.052
aF53.422
aa(lp77
I262
aS'THR'
p78
aS'C'
p79
aF-20.871
aF11.028
aF52.428
aa(lp80
I262
aS'THR'
p81
aS'O'
p82
aF-20.208
aF10.606
aF51.472
aa(lp83
I262
aS'THR'
p84
aS'H'
p85
aF-22.004
aF8.821
aF51.963
aa(lp86
I263
aS'LEU'
p87
aS'N'
p88
aF-21.093
aF12.321
aF52.628
aa(lp89
I263
aS'LEU'
p90
aS'CA'
p91
aF-20.442
aF13.314
aF51.803
aa(lp92
I263
aS'LEU'
p93
aS'C'
p94
aF-19.22
aF13.745
aF52.554
aa(lp95
I263
aS'LEU'
p96
aS'O'
p97
aF-19.347
aF14.128
aF53.691
aa(lp98
I263
aS'LEU'
p99
aS'H'
p100
aF-21.615
aF12.638
aF53.234
aa(lp101
I264
aS'LYS'
p102
aS'N'
p103
aF-18.035
aF13.677
aF51.953
aa(lp104
I264
aS'LYS'
p105
aS'CA'
p106
aF-16.806
aF14.054
aF52.662
aa(lp107
I264
aS'LYS'
p108
aS'C'
p109
aF-16.041
aF15.161
aF51.939
aa(lp110
I264
aS'LYS'
p111
aS'O'
p112
aF-16.05
aF15.239
aF50.73
aa(lp113
I264
aS'LYS'
p114
aS'H'
p115
aF-17.917
aF13.418
aF51.142
aaa(lp116
(lp117
I270
aS'THR'
p118
aS'N'
p119
aF-16.228
aF13.96
aF57.255
aa(lp120
I270
aS'THR'
p121
aS'CA'
p122
aF-17.649
aF13.829
aF56.954
aa(lp123
I270
aS'THR'
p124
aS'C'
p125
aF-18.406
aF15.137
aF57.181
aa(lp126
I270
aS'THR'
p127
aS'O'
p128
aF-18.279
aF15.729
aF58.239
aa(lp129
I270
aS'THR'
p130
aS'H'
p131
aF-15.968
aF13.506
aF57.938
aa(lp132
I271
aS'VAL'
p133
aS'N'
p134
aF-19.186
aF15.59
aF56.206
aa(lp135
I271
aS'VAL'
p136
aS'CA'
p137
aF-19.855
aF16.882
aF56.337
aa(lp138
I271
aS'VAL'
p139
aS'C'
p140
aF-21.363
aF16.773
aF56.229
aa(lp141
I271
aS'VAL'
p142
aS'O'
p143
aF-22.089
aF17.642
aF56.679
aa(lp144
I271
aS'VAL'
p145
aS'H'
p146
aF-19.341
aF15.173
aF55.47
aa(lp147
I272
aS'LEU'
p148
aS'N'
p149
aF-21.826
aF15.722
aF55.582
aa(lp150
I272
aS'LEU'
p151
aS'CA'
p152
aF-23.246
aF15.372
aF55.575
aa(lp153
I272
aS'LEU'
p154
aS'C'
p155
aF-23.33
aF13.859
aF55.591
aa(lp156
I272
aS'LEU'
p157
aS'O'
p158
aF-22.376
aF13.18
aF55.208
aa(lp159
I272
aS'LEU'
p160
aS'H'
p161
aF-21.33
aF15.184
aF55.13
aa(lp162
I273
aS'GLU'
p163
aS'N'
p164
aF-24.451
aF13.302
aF56.027
aa(lp165
I273
aS'GLU'
p166
aS'CA'
p167
aF-24.553
aF11.855
aF56.03
aa(lp168
I273
aS'GLU'
p169
aS'C'
p170
aF-25.928
aF11.409
aF56.414
aa(lp171
I273
aS'GLU'
p172
aS'O'
p173
aF-26.55
aF11.971
aF57.299
aa(lp174
I273
aS'GLU'
p175
aS'H'
p176
aF-25.141
aF13.727
aF56.315
aa(lp177
I274
aS'GLY'
p178
aS'N'
p179
aF-26.392
aF10.382
aF55.717
aa(lp180
I274
aS'GLY'
p181
aS'CA'
p182
aF-27.716
aF9.826
aF55.941
aa(lp183
I274
aS'GLY'
p184
aS'C'
p185
aF-27.757
aF8.306
aF55.95
aa(lp186
I274
aS'GLY'
p187
aS'O'
p188
aF-26.749
aF7.635
aF55.73
aa(lp189
I274
aS'GLY'
p190
aS'H'
p191
aF-25.945
aF9.986
aF55.098
aa(lp192
I275
aS'SER'
p193
aS'N'
p194
aF-28.956
aF7.776
aF56.177
aa(lp195
I275
aS'SER'
p196
aS'CA'
p197
aF-29.157
aF6.374
aF56.496
aa(lp198
I275
aS'SER'
p199
aS'C'
p200
aF-30.642
aF6.106
aF56.366
aa(lp201
I275
aS'SER'
p202
aS'O'
p203
aF-31.462
aF6.87
aF56.864
aa(lp204
I275
aS'SER'
p205
aS'H'
p206
aF-29.685
aF8.232
aF56.149
aa(lp207
I276
aS'ARG'
p208
aS'N'
p209
aF-31.006
aF5.035
aF55.692
aa(lp210
I276
aS'ARG'
p211
aS'CA'
p212
aF-32.4
aF4.667
aF55.624
aa(lp213
I276
aS'ARG'
p214
aS'C'
p215
aF-32.436
aF3.134
aF55.809
aa(lp216
I276
aS'ARG'
p217
aS'O'
p218
aF-31.462
aF2.47
aF55.473
aa(lp219
I276
aS'ARG'
p220
aS'H'
p221
aF-30.468
aF4.513
aF55.271
aaaaa(lp222
S'seq_filter'
p223
aS'SIAYTLKTVLEGSR'
p224
aF42.857142857142854
aF3.0
aa(lp225
S'contacts_filter'
p226
aI24
aF83.33333333333334
aa(lp227
S'PCS_filter'
p228
a(lp229
(lp230
I0
aF0.023285843431833587
a(lp231
(lp232
cnumpy.core.multiarray
scalar
p233
(cnumpy
dtype
p234
(S'f8'
p235
I0
I1
tp236
Rp237
(I3
S'<'
p238
NNNI-1
I-1
I0
tp239
bS'\xf8[~\xe5\x97\xf1T@'
p240
tp241
Rp242
ag233
(g237
S'\xad*~\xc3\\\xce7@'
p243
tp244
Rp245
aa(lp246
g233
(g237
S'\xd1vSp>\x06Z\xc0'
p247
tp248
Rp249
ag233
(g237
S'FU\x19\xfc\xcf\xc9;\xc0'
p250
tp251
Rp252
aaaa(lp253
I1
aF0.000772261576466886
a(lp254
(lp255
g233
(g237
S'\x9cA\xf4\x1ai\xc4\x0f@'
p256
tp257
Rp258
ag233
(g237
S"h']\xbcY\xf0\xd9?"
p259
tp260
Rp261
aa(lp262
g233
(g237
S'\x19"\x92\rYA\x07@'
p263
tp264
Rp265
ag233
(g237
S'\x939\x88\xeb\x88\xba\xe9?'
p266
tp267
Rp268
aaaaaa(lp269
S'smotif_def'
p270
a(lp271
(lp272
S'strand'
p273
aI7
aI6
aI4
aI91
aI97
aa(lp274
g273
aI7
aI4
aI6
aI102
aI108
aaaaa(lp275
(lp276
(lp277
(lp278
S'1vbvA00'
p279
aS'51'
p280
aS'57'
p281
aS'63'
p282
aS'69'
p283
aa(lp284
(lp285
I51
aS'TRP'
p286
aS'N'
p287
aF46.073
aF34.506
aF-5.147
aa(lp288
I51
aS'TRP'
p289
aS'CA'
p290
aF45.519
aF33.637
aF-4.109
aa(lp291
I51
aS'TRP'
p292
aS'C'
p293
aF46.001
aF32.223
aF-4.337
aa(lp294
I51
aS'TRP'
p295
aS'O'
p296
aF46.333
aF31.843
aF-5.462
aa(lp297
I51
aS'TRP'
p298
aS'H'
p299
aF45.773
aF34.353
aF-5.938
aa(lp300
I52
aS'TYR'
p301
aS'N'
p302
aF46.047
aF31.442
aF-3.264
aa(lp303
I52
aS'TYR'
p304
aS'CA'
p305
aF46.538
aF30.073
aF-3.367
aa(lp306
I52
aS'TYR'
p307
aS'C'
p308
aF45.614
aF29.006
aF-2.839
aa(lp309
I52
aS'TYR'
p310
aS'O'
p311
aF44.896
aF29.208
aF-1.861
aa(lp312
I52
aS'TYR'
p313
aS'H'
p314
aF45.802
aF31.681
aF-2.475
aa(lp315
I53
aS'HIS'
p316
aS'N'
p317
aF45.668
aF27.861
aF-3.507
aa(lp318
I53
aS'HIS'
p319
aS'CA'
p320
aF44.924
aF26.681
aF-3.115
aa(lp321
I53
aS'HIS'
p322
aS'C'
p323
aF45.966
aF25.865
aF-2.368
aa(lp324
I53
aS'HIS'
p325
aS'O'
p326
aF46.971
aF25.46
aF-2.949
aa(lp327
I53
aS'HIS'
p328
aS'H'
p329
aF46.147
aF27.749
aF-4.212
aa(lp330
I54
aS'VAL'
p331
aS'N'
p332
aF45.764
aF25.658
aF-1.074
aa(lp333
I54
aS'VAL'
p334
aS'CA'
p335
aF46.728
aF24.871
aF-0.329
aa(lp336
I54
aS'VAL'
p337
aS'C'
p338
aF46.033
aF23.831
aF0.541
aa(lp339
I54
aS'VAL'
p340
aS'O'
p341
aF45.014
aF24.113
aF1.173
aa(lp342
I54
aS'VAL'
p343
aS'H'
p344
aF45.096
aF25.955
aF-0.621
aa(lp345
I55
aS'VAL'
p346
aS'N'
p347
aF46.571
aF22.615
aF0.525
aa(lp348
I55
aS'VAL'
p349
aS'CA'
p350
aF46.035
aF21.537
aF1.343
aa(lp351
I55
aS'VAL'
p352
aS'C'
p353
aF46.812
aF21.719
aF2.629
aa(lp354
I55
aS'VAL'
p355
aS'O'
p356
aF48.035
aF21.586
aF2.651
aa(lp357
I55
aS'VAL'
p358
aS'H'
p359
aF47.25
aF22.395
aF0.045
aa(lp360
I56
aS'MET'
p361
aS'N'
p362
aF46.085
aF22.059
aF3.685
aa(lp363
I56
aS'MET'
p364
aS'CA'
p365
aF46.664
aF22.355
aF4.982
aa(lp366
I56
aS'MET'
p367
aS'C'
p368
aF46.088
aF21.443
aF6.056
aa(lp369
I56
aS'MET'
p370
aS'O'
p371
aF44.886
aF21.188
aF6.081
aa(lp372
I56
aS'MET'
p373
aS'H'
p374
aF45.228
aF22.125
aF3.665
aa(lp375
I57
aS'GLU'
p376
aS'N'
p377
aF46.946
aF20.946
aF6.941
aa(lp378
I57
aS'GLU'
p379
aS'CA'
p380
aF46.501
aF20.076
aF8.026
aa(lp381
I57
aS'GLU'
p382
aS'C'
p383
aF46.074
aF20.932
aF9.207
aa(lp384
I57
aS'GLU'
p385
aS'O'
p386
aF46.882
aF21.672
aF9.761
aa(lp387
I57
aS'GLU'
p388
aS'H'
p389
aF47.792
aF21.1
aF6.931
aaa(lp390
(lp391
I63
aS'PRO'
p392
aS'N'
p393
aF43.785
aF17.017
aF6.328
aa(lp394
I63
aS'PRO'
p395
aS'CA'
p396
aF44.456
aF17.757
aF5.261
aa(lp397
I63
aS'PRO'
p398
aS'C'
p399
aF43.324
aF18.419
aF4.472
aa(lp400
I63
aS'PRO'
p401
aS'O'
p402
aF42.764
aF17.84
aF3.546
aa(lp403
I63
aS'PRO'
p404
aS'H'
p405
aF43.609
aF16.045
aF6.219
aa(lp406
I64
aS'VAL'
p407
aS'N'
p408
aF42.979
aF19.632
aF4.872
aa(lp409
I64
aS'VAL'
p410
aS'CA'
p411
aF41.89
aF20.36
aF4.246
aa(lp412
I64
aS'VAL'
p413
aS'C'
p414
aF42.327
aF21.333
aF3.15
aa(lp415
I64
aS'VAL'
p416
aS'O'
p417
aF43.444
aF21.857
aF3.154
aa(lp418
I64
aS'VAL'
p419
aS'H'
p420
aF43.368
aF20.055
aF5.512
aa(lp421
I65
aS'HIS'
p422
aS'N'
p423
aF41.421
aF21.566
aF2.21
aa(lp424
I65
aS'HIS'
p425
aS'CA'
p426
aF41.654
aF22.471
aF1.099
aa(lp427
I65
aS'HIS'
p428
aS'C'
p429
aF41.266
aF23.883
aF1.557
aa(lp430
I65
aS'HIS'
p431
aS'O'
p432
aF40.121
aF24.141
aF1.902
aa(lp433
I65
aS'HIS'
p434
aS'H'
p435
aF40.644
aF21.197
aF2.201
aa(lp436
I66
aS'THR'
p437
aS'N'
p438
aF42.249
aF24.777
aF1.591
aa(lp439
I66
aS'THR'
p440
aS'CA'
p441
aF42.041
aF26.163
aF1.996
aa(lp442
I66
aS'THR'
p443
aS'C'
p444
aF42.353
aF27.098
aF0.828
aa(lp445
I66
aS'THR'
p446
aS'O'
p447
aF43.099
aF26.745
aF-0.089
aa(lp448
I66
aS'THR'
p449
aS'H'
p450
aF43.062
aF24.595
aF1.378
aa(lp451
I67
aS'TYR'
p452
aS'N'
p453
aF41.776
aF28.293
aF0.875
aa(lp454
I67
aS'TYR'
p455
aS'CA'
p456
aF41.997
aF29.306
aF-0.141
aa(lp457
I67
aS'TYR'
p458
aS'C'
p459
aF42.499
aF30.522
aF0.633
aa(lp460
I67
aS'TYR'
p461
aS'O'
p462
aF41.738
aF31.172
aF1.352
aa(lp463
I67
aS'TYR'
p464
aS'H'
p465
aF41.242
aF28.538
aF1.503
aa(lp466
I68
aS'LEU'
p467
aS'N'
p468
aF43.789
aF30.811
aF0.487
aa(lp469
I68
aS'LEU'
p470
aS'CA'
p471
aF44.434
aF31.908
aF1.211
aa(lp472
I68
aS'LEU'
p473
aS'C'
p474
aF45.068
aF32.966
aF0.345
aa(lp475
I68
aS'LEU'
p476
aS'O'
p477
aF45.536
aF32.693
aF-0.762
aa(lp478
I68
aS'LEU'
p479
aS'H'
p480
aF44.317
aF30.377
aF-0.035
aa(lp481
I69
aS'ALA'
p482
aS'N'
p483
aF45.113
aF34.177
aF0.883
aa(lp484
I69
aS'ALA'
p485
aS'CA'
p486
aF45.725
aF35.297
aF0.187
aa(lp487
I69
aS'ALA'
p488
aS'C'
p489
aF47.231
aF35.149
aF0.411
aa(lp490
I69
aS'ALA'
p491
aS'O'
p492
aF47.657
aF34.624
aF1.444
aa(lp493
I69
aS'ALA'
p494
aS'H'
p495
aF44.792
aF34.371
aF1.657
aaaaa(lp496
g223
aS'WYHVVMEPVHTYLA'
p497
aF42.857142857142854
aF6.0
aa(lp498
g226
aI24
aF100.0
aa(lp499
g228
a(lp500
(lp501
I0
aF0.02559606645637198
a(lp502
(lp503
g233
(g237
S'\x95b\xa0; \xfc=@'
p504
tp505
Rp506
ag233
(g237
S'\x94\x1f\x99L\xbaz.@'
p507
tp508
Rp509
aa(lp510
g233
(g237
S'\x9d\xd1\x85u7gI\xc0'
p511
tp512
Rp513
ag233
(g237
S'\xf4\xc7\xfa\x93\xe0(:\xc0'
p514
tp515
Rp516
aaaa(lp517
I1
aF0.001065434463640916
a(lp518
(lp519
g233
(g237
S'\xd0\x07b\x17\x98\xecS@'
p520
tp521
Rp522
ag233
(g237
S'\x98\xee#7~)E@'
p523
tp524
Rp525
aa(lp526
g233
(g237
S'\x02\xb0\xd8\x18\xdbkB@'
p527
tp528
Rp529
ag233
(g237
S'\x0e\xd0\xaeG\xb8G3@'
p530
tp531
Rp532
aaaaaa(lp533
g270
a(lp534
g272
ag274
aaaa.