(lp0
(lp1
(lp2
(lp3
(lp4
S'1vbvA00'
p5
aS'51'
p6
aS'57'
p7
aS'63'
p8
aS'69'
p9
aa(lp10
(lp11
I51
aS'TRP'
p12
aS'N'
p13
aF46.073
aF34.506
aF-5.147
aa(lp14
I51
aS'TRP'
p15
aS'CA'
p16
aF45.519
aF33.637
aF-4.109
aa(lp17
I51
aS'TRP'
p18
aS'C'
p19
aF46.001
aF32.223
aF-4.337
aa(lp20
I51
aS'TRP'
p21
aS'O'
p22
aF46.333
aF31.843
aF-5.462
aa(lp23
I51
aS'TRP'
p24
aS'H'
p25
aF45.773
aF34.353
aF-5.938
aa(lp26
I52
aS'TYR'
p27
aS'N'
p28
aF46.047
aF31.442
aF-3.264
aa(lp29
I52
aS'TYR'
p30
aS'CA'
p31
aF46.538
aF30.073
aF-3.367
aa(lp32
I52
aS'TYR'
p33
aS'C'
p34
aF45.614
aF29.006
aF-2.839
aa(lp35
I52
aS'TYR'
p36
aS'O'
p37
aF44.896
aF29.208
aF-1.861
aa(lp38
I52
aS'TYR'
p39
aS'H'
p40
aF45.802
aF31.681
aF-2.475
aa(lp41
I53
aS'HIS'
p42
aS'N'
p43
aF45.668
aF27.861
aF-3.507
aa(lp44
I53
aS'HIS'
p45
aS'CA'
p46
aF44.924
aF26.681
aF-3.115
aa(lp47
I53
aS'HIS'
p48
aS'C'
p49
aF45.966
aF25.865
aF-2.368
aa(lp50
I53
aS'HIS'
p51
aS'O'
p52
aF46.971
aF25.46
aF-2.949
aa(lp53
I53
aS'HIS'
p54
aS'H'
p55
aF46.147
aF27.749
aF-4.212
aa(lp56
I54
aS'VAL'
p57
aS'N'
p58
aF45.764
aF25.658
aF-1.074
aa(lp59
I54
aS'VAL'
p60
aS'CA'
p61
aF46.728
aF24.871
aF-0.329
aa(lp62
I54
aS'VAL'
p63
aS'C'
p64
aF46.033
aF23.831
aF0.541
aa(lp65
I54
aS'VAL'
p66
aS'O'
p67
aF45.014
aF24.113
aF1.173
aa(lp68
I54
aS'VAL'
p69
aS'H'
p70
aF45.096
aF25.955
aF-0.621
aa(lp71
I55
aS'VAL'
p72
aS'N'
p73
aF46.571
aF22.615
aF0.525
aa(lp74
I55
aS'VAL'
p75
aS'CA'
p76
aF46.035
aF21.537
aF1.343
aa(lp77
I55
aS'VAL'
p78
aS'C'
p79
aF46.812
aF21.719
aF2.629
aa(lp80
I55
aS'VAL'
p81
aS'O'
p82
aF48.035
aF21.586
aF2.651
aa(lp83
I55
aS'VAL'
p84
aS'H'
p85
aF47.25
aF22.395
aF0.045
aa(lp86
I56
aS'MET'
p87
aS'N'
p88
aF46.085
aF22.059
aF3.685
aa(lp89
I56
aS'MET'
p90
aS'CA'
p91
aF46.664
aF22.355
aF4.982
aa(lp92
I56
aS'MET'
p93
aS'C'
p94
aF46.088
aF21.443
aF6.056
aa(lp95
I56
aS'MET'
p96
aS'O'
p97
aF44.886
aF21.188
aF6.081
aa(lp98
I56
aS'MET'
p99
aS'H'
p100
aF45.228
aF22.125
aF3.665
aa(lp101
I57
aS'GLU'
p102
aS'N'
p103
aF46.946
aF20.946
aF6.941
aa(lp104
I57
aS'GLU'
p105
aS'CA'
p106
aF46.501
aF20.076
aF8.026
aa(lp107
I57
aS'GLU'
p108
aS'C'
p109
aF46.074
aF20.932
aF9.207
aa(lp110
I57
aS'GLU'
p111
aS'O'
p112
aF46.882
aF21.672
aF9.761
aa(lp113
I57
aS'GLU'
p114
aS'H'
p115
aF47.792
aF21.1
aF6.931
aaa(lp116
(lp117
I63
aS'PRO'
p118
aS'N'
p119
aF43.785
aF17.017
aF6.328
aa(lp120
I63
aS'PRO'
p121
aS'CA'
p122
aF44.456
aF17.757
aF5.261
aa(lp123
I63
aS'PRO'
p124
aS'C'
p125
aF43.324
aF18.419
aF4.472
aa(lp126
I63
aS'PRO'
p127
aS'O'
p128
aF42.764
aF17.84
aF3.546
aa(lp129
I63
aS'PRO'
p130
aS'H'
p131
aF43.609
aF16.045
aF6.219
aa(lp132
I64
aS'VAL'
p133
aS'N'
p134
aF42.979
aF19.632
aF4.872
aa(lp135
I64
aS'VAL'
p136
aS'CA'
p137
aF41.89
aF20.36
aF4.246
aa(lp138
I64
aS'VAL'
p139
aS'C'
p140
aF42.327
aF21.333
aF3.15
aa(lp141
I64
aS'VAL'
p142
aS'O'
p143
aF43.444
aF21.857
aF3.154
aa(lp144
I64
aS'VAL'
p145
aS'H'
p146
aF43.368
aF20.055
aF5.512
aa(lp147
I65
aS'HIS'
p148
aS'N'
p149
aF41.421
aF21.566
aF2.21
aa(lp150
I65
aS'HIS'
p151
aS'CA'
p152
aF41.654
aF22.471
aF1.099
aa(lp153
I65
aS'HIS'
p154
aS'C'
p155
aF41.266
aF23.883
aF1.557
aa(lp156
I65
aS'HIS'
p157
aS'O'
p158
aF40.121
aF24.141
aF1.902
aa(lp159
I65
aS'HIS'
p160
aS'H'
p161
aF40.644
aF21.197
aF2.201
aa(lp162
I66
aS'THR'
p163
aS'N'
p164
aF42.249
aF24.777
aF1.591
aa(lp165
I66
aS'THR'
p166
aS'CA'
p167
aF42.041
aF26.163
aF1.996
aa(lp168
I66
aS'THR'
p169
aS'C'
p170
aF42.353
aF27.098
aF0.828
aa(lp171
I66
aS'THR'
p172
aS'O'
p173
aF43.099
aF26.745
aF-0.089
aa(lp174
I66
aS'THR'
p175
aS'H'
p176
aF43.062
aF24.595
aF1.378
aa(lp177
I67
aS'TYR'
p178
aS'N'
p179
aF41.776
aF28.293
aF0.875
aa(lp180
I67
aS'TYR'
p181
aS'CA'
p182
aF41.997
aF29.306
aF-0.141
aa(lp183
I67
aS'TYR'
p184
aS'C'
p185
aF42.499
aF30.522
aF0.633
aa(lp186
I67
aS'TYR'
p187
aS'O'
p188
aF41.738
aF31.172
aF1.352
aa(lp189
I67
aS'TYR'
p190
aS'H'
p191
aF41.242
aF28.538
aF1.503
aa(lp192
I68
aS'LEU'
p193
aS'N'
p194
aF43.789
aF30.811
aF0.487
aa(lp195
I68
aS'LEU'
p196
aS'CA'
p197
aF44.434
aF31.908
aF1.211
aa(lp198
I68
aS'LEU'
p199
aS'C'
p200
aF45.068
aF32.966
aF0.345
aa(lp201
I68
aS'LEU'
p202
aS'O'
p203
aF45.536
aF32.693
aF-0.762
aa(lp204
I68
aS'LEU'
p205
aS'H'
p206
aF44.317
aF30.377
aF-0.035
aa(lp207
I69
aS'ALA'
p208
aS'N'
p209
aF45.113
aF34.177
aF0.883
aa(lp210
I69
aS'ALA'
p211
aS'CA'
p212
aF45.725
aF35.297
aF0.187
aa(lp213
I69
aS'ALA'
p214
aS'C'
p215
aF47.231
aF35.149
aF0.411
aa(lp216
I69
aS'ALA'
p217
aS'O'
p218
aF47.657
aF34.624
aF1.444
aa(lp219
I69
aS'ALA'
p220
aS'H'
p221
aF44.792
aF34.371
aF1.657
aaaaa(lp222
S'seq_filter'
p223
aS'WYHVVMEPVHTYLA'
p224
aF42.857142857142854
aF8.0
aa(lp225
S'contacts_filter'
p226
aI22
aF81.81818181818183
aa(lp227
S'PCS_filter'
p228
a(lp229
(lp230
I0
aF0.04950933584267763
a(lp231
(lp232
cnumpy.core.multiarray
scalar
p233
(cnumpy
dtype
p234
(S'f8'
p235
I0
I1
tp236
Rp237
(I3
S'<'
p238
NNNI-1
I-1
I0
tp239
bS'$\x7fT\x97\x8d\xf1=@'
p240
tp241
Rp242
ag233
(g237
S'\xa1\x108\xbc\x0e|\x1f@'
p243
tp244
Rp245
aa(lp246
g233
(g237
S'\x8a\x80\xdd\x9a\x9e\xebA@'
p247
tp248
Rp249
ag233
(g237
S'~q\xec\xee\x83\x01 @'
p250
tp251
Rp252
aaaa(lp253
I1
aF0.001111114208027107
a(lp254
(lp255
g233
(g237
S'\x13\xba\xebD\x8e\xd2a@'
p256
tp257
Rp258
ag233
(g237
S'Z\xaf\xd2\x1d\x8f\xbeU@'
p259
tp260
Rp261
aa(lp262
g233
(g237
S'QY\xb7P-\xebV@'
p263
tp264
Rp265
ag233
(g237
S'\xecz\xed\r\xe2lK@'
p266
tp267
Rp268
aaaaaa(lp269
S'smotif_def'
p270
a(lp271
(lp272
S'strand'
p273
aI7
aI6
aI4
aI91
aI97
aa(lp274
g273
aI7
aI5
aI5
aI103
aI109
aaaaa(lp275
(lp276
(lp277
(lp278
S'3lx2B00'
p279
aS'154'
p280
aS'160'
p281
aS'163'
p282
aS'169'
p283
aa(lp284
(lp285
I154
aS'SER'
p286
aS'N'
p287
aF42.076
aF18.41
aF6.985
aa(lp288
I154
aS'SER'
p289
aS'CA'
p290
aF41.332
aF17.622
aF7.963
aa(lp291
I154
aS'SER'
p292
aS'C'
p293
aF42.195
aF17.003
aF9.06
aa(lp294
I154
aS'SER'
p295
aS'O'
p296
aF43.389
aF16.752
aF8.875
aa(lp297
I154
aS'SER'
p298
aS'H'
p299
aF42.747
aF18.005
aF6.631
aa(lp300
I155
aS'ILE'
p301
aS'N'
p302
aF41.558
aF16.76
aF10.197
aa(lp303
I155
aS'ILE'
p304
aS'CA'
p305
aF42.234
aF16.283
aF11.393
aa(lp306
I155
aS'ILE'
p307
aS'C'
p308
aF41.555
aF15.018
aF11.879
aa(lp309
I155
aS'ILE'
p310
aS'O'
p311
aF40.344
aF14.96
aF11.94
aa(lp312
I155
aS'ILE'
p313
aS'H'
p314
aF40.711
aF16.869
aF10.297
aa(lp315
I156
aS'TYR'
p316
aS'N'
p317
aF42.337
aF14.005
aF12.245
aa(lp318
I156
aS'TYR'
p319
aS'CA'
p320
aF41.786
aF12.779
aF12.848
aa(lp321
I156
aS'TYR'
p322
aS'C'
p323
aF41.68
aF12.864
aF14.339
aa(lp324
I156
aS'TYR'
p325
aS'O'
p326
aF42.644
aF13.232
aF14.991
aa(lp327
I156
aS'TYR'
p328
aS'H'
p329
aF43.192
aF14.002
aF12.155
aa(lp330
I157
aS'PHE'
p331
aS'N'
p332
aF40.518
aF12.5
aF14.88
aa(lp333
I157
aS'PHE'
p334
aS'CA'
p335
aF40.352
aF12.259
aF16.303
aa(lp336
I157
aS'PHE'
p337
aS'C'
p338
aF40.541
aF10.762
aF16.598
aa(lp339
I157
aS'PHE'
p340
aS'O'
p341
aF39.817
aF9.922
aF16.07
aa(lp342
I157
aS'PHE'
p343
aS'H'
p344
aF39.799
aF12.386
aF14.422
aa(lp345
I158
aS'MET'
p346
aS'N'
p347
aF41.503
aF10.431
aF17.452
aa(lp348
I158
aS'MET'
p349
aS'CA'
p350
aF41.856
aF9.05
aF17.781
aa(lp351
I158
aS'MET'
p352
aS'C'
p353
aF41.951
aF8.887
aF19.288
aa(lp354
I158
aS'MET'
p355
aS'O'
p356
aF42.437
aF9.783
aF19.973
aa(lp357
I158
aS'MET'
p358
aS'H'
p359
aF41.98
aF11.014
aF17.867
aa(lp360
I159
aS'ALA'
p361
aS'N'
p362
aF41.502
aF7.74
aF19.789
aa(lp363
I159
aS'ALA'
p364
aS'CA'
p365
aF41.535
aF7.432
aF21.21
aa(lp366
I159
aS'ALA'
p367
aS'C'
p368
aF41.951
aF6.004
aF21.463
aa(lp369
I159
aS'ALA'
p370
aS'O'
p371
aF41.592
aF5.107
aF20.697
aa(lp372
I159
aS'ALA'
p373
aS'H'
p374
aF41.166
aF7.113
aF19.306
aa(lp375
I160
aS'THR'
p376
aS'N'
p377
aF42.725
aF5.816
aF22.529
aa(lp378
I160
aS'THR'
p379
aS'CA'
p380
aF43.056
aF4.503
aF23.116
aa(lp381
I160
aS'THR'
p382
aS'C'
p383
aF42.558
aF4.673
aF24.551
aa(lp384
I160
aS'THR'
p385
aS'O'
p386
aF42.175
aF5.79
aF24.902
aa(lp387
I160
aS'THR'
p388
aS'H'
p389
aF43.089
aF6.471
aF22.951
aaa(lp390
(lp391
I163
aS'LYS'
p392
aS'N'
p393
aF44.707
aF7.326
aF25.877
aa(lp394
I163
aS'LYS'
p395
aS'CA'
p396
aF44.915
aF8.673
aF25.298
aa(lp397
I163
aS'LYS'
p398
aS'C'
p399
aF44.114
aF9.16
aF24.093
aa(lp400
I163
aS'LYS'
p401
aS'O'
p402
aF43.686
aF8.384
aF23.244
aa(lp403
I163
aS'LYS'
p404
aS'H'
p405
aF44.417
aF6.728
aF25.331
aa(lp406
I164
aS'LEU'
p407
aS'N'
p408
aF43.961
aF10.48
aF24.026
aa(lp409
I164
aS'LEU'
p410
aS'CA'
p411
aF43.339
aF11.143
aF22.924
aa(lp412
I164
aS'LEU'
p413
aS'C'
p414
aF44.444
aF11.707
aF22.08
aa(lp415
I164
aS'LEU'
p416
aS'O'
p417
aF45.352
aF12.355
aF22.593
aa(lp418
I164
aS'LEU'
p419
aS'H'
p420
aF44.228
aF11.015
aF24.644
aa(lp421
I165
aS'THR'
p422
aS'N'
p423
aF44.385
aF11.447
aF20.785
aa(lp424
I165
aS'THR'
p425
aS'CA'
p426
aF45.337
aF12.058
aF19.917
aa(lp427
I165
aS'THR'
p428
aS'C'
p429
aF44.64
aF12.706
aF18.717
aa(lp430
I165
aS'THR'
p431
aS'O'
p432
aF43.583
aF12.249
aF18.287
aa(lp433
I165
aS'THR'
p434
aS'H'
p435
aF43.811
aF10.93
aF20.406
aa(lp436
I166
aS'PHE'
p437
aS'N'
p438
aF45.186
aF13.814
aF18.232
aa(lp439
I166
aS'PHE'
p440
aS'CA'
p441
aF44.64
aF14.535
aF17.055
aa(lp442
I166
aS'PHE'
p443
aS'C'
p444
aF45.738
aF14.524
aF16.02
aa(lp445
I166
aS'PHE'
p446
aS'O'
p447
aF46.794
aF15.078
aF16.285
aa(lp448
I166
aS'PHE'
p449
aS'H'
p450
aF45.887
aF14.181
aF18.569
aa(lp451
I167
aS'LYS'
p452
aS'N'
p453
aF45.549
aF13.801
aF14.908
aa(lp454
I167
aS'LYS'
p455
aS'CA'
p456
aF46.593
aF13.738
aF13.866
aa(lp457
I167
aS'LYS'
p458
aS'C'
p459
aF46.204
aF14.269
aF12.481
aa(lp460
I167
aS'LYS'
p461
aS'O'
p462
aF45.022
aF14.45
aF12.154
aa(lp463
I167
aS'LYS'
p464
aS'H'
p465
aF44.839
aF13.347
aF14.737
aa(lp466
I168
aS'ALA'
p467
aS'N'
p468
aF47.224
aF14.537
aF11.685
aa(lp469
I168
aS'ALA'
p470
aS'CA'
p471
aF47.026
aF15.038
aF10.34
aa(lp472
I168
aS'ALA'
p473
aS'C'
p474
aF48.225
aF14.666
aF9.485
aa(lp475
I168
aS'ALA'
p476
aS'O'
p477
aF49.368
aF14.753
aF9.931
aa(lp478
I168
aS'ALA'
p479
aS'H'
p480
aF48.048
aF14.434
aF11.908
aa(lp481
I169
aS'GLU'
p482
aS'N'
p483
aF47.937
aF14.198
aF8.277
aa(lp484
I169
aS'GLU'
p485
aS'CA'
p486
aF48.954
aF13.745
aF7.332
aa(lp487
I169
aS'GLU'
p488
aS'C'
p489
aF48.569
aF14.517
aF6.11
aa(lp490
I169
aS'GLU'
p491
aS'O'
p492
aF47.388
aF14.673
aF5.808
aa(lp493
I169
aS'GLU'
p494
aS'H'
p495
aF47.134
aF14.133
aF7.977
aaaaa(lp496
g223
aS'SIYFMATKLTFKAE'
p497
aF42.857142857142854
aF15.0
aa(lp498
g226
aI22
aF77.27272727272727
aa(lp499
g228
a(lp500
(lp501
I0
aF0.018149691525648312
a(lp502
(lp503
g233
(g237
S'\x1b\xa6Nb\x96\xadR@'
p504
tp505
Rp506
ag233
(g237
S'\x06w\xe2\x8b\x89D4@'
p507
tp508
Rp509
aa(lp510
g233
(g237
S'\xfb\xbeTi\xf0\xdb`\xc0'
p511
tp512
Rp513
ag233
(g237
S'C\xb0\x89N\xcesF\xc0'
p514
tp515
Rp516
aaaa(lp517
I1
aF0.0004900942714562798
a(lp518
(lp519
g233
(g237
S'7%?\xd8\x9b2D@'
p520
tp521
Rp522
ag233
(g237
S'[\x8a\xe5G\xc4X6@'
p523
tp524
Rp525
aa(lp526
g233
(g237
S'Eu*P\x83\xce7@'
p527
tp528
Rp529
ag233
(g237
S'dt 2`x)@'
p530
tp531
Rp532
aaaaaa(lp533
g270
a(lp534
g272
ag274
aaaa.