(lp0
(lp1
(lp2
(lp3
(lp4
S'2h1pL02'
p5
aS'163'
p6
aS'169'
p7
aS'178'
p8
aS'187'
p9
aa(lp10
(lp11
I163
aS'GLY'
p12
aS'N'
p13
aF-20.299
aF-12.785
aF-10.26
aa(lp14
I163
aS'GLY'
p15
aS'CA'
p16
aF-18.959
aF-12.218
aF-10.248
aa(lp17
I163
aS'GLY'
p18
aS'C'
p19
aF-18.87
aF-10.88
aF-9.536
aa(lp20
I163
aS'GLY'
p21
aS'O'
p22
aF-18.614
aF-9.857
aF-10.165
aa(lp23
I163
aS'GLY'
p24
aS'H'
p25
aF-20.763
aF-12.589
aF-10.957
aa(lp26
I164
aS'VAL'
p27
aS'N'
p28
aF-19.232
aF-10.866
aF-8.265
aa(lp29
I164
aS'VAL'
p30
aS'CA'
p31
aF-19.093
aF-9.665
aF-7.458
aa(lp32
I164
aS'VAL'
p33
aS'C'
p34
aF-17.743
aF-9.685
aF-6.676
aa(lp35
I164
aS'VAL'
p36
aS'O'
p37
aF-17.426
aF-10.651
aF-5.988
aa(lp38
I164
aS'VAL'
p39
aS'H'
p40
aF-19.561
aF-11.542
aF-7.848
aa(lp41
I165
aS'LEU'
p42
aS'N'
p43
aF-16.863
aF-8.745
aF-7.013
aa(lp44
I165
aS'LEU'
p45
aS'CA'
p46
aF-15.582
aF-8.541
aF-6.341
aa(lp47
I165
aS'LEU'
p48
aS'C'
p49
aF-15.672
aF-7.234
aF-5.6
aa(lp50
I165
aS'LEU'
p51
aS'O'
p52
aF-15.768
aF-6.206
aF-6.234
aa(lp53
I165
aS'LEU'
p54
aS'H'
p55
aF-16.999
aF-8.192
aF-7.658
aa(lp56
I166
aS'ASN'
p57
aS'N'
p58
aF-15.476
aF-7.229
aF-4.293
aa(lp59
I166
aS'ASN'
p60
aS'CA'
p61
aF-15.475
aF-5.959
aF-3.594
aa(lp62
I166
aS'ASN'
p63
aS'C'
p64
aF-14.115
aF-5.508
aF-3.277
aa(lp65
I166
aS'ASN'
p66
aS'O'
p67
aF-13.245
aF-6.336
aF-3.061
aa(lp68
I166
aS'ASN'
p69
aS'H'
p70
aF-15.346
aF-7.925
aF-3.805
aa(lp71
I167
aS'SER'
p72
aS'N'
p73
aF-13.952
aF-4.199
aF-3.104
aa(lp74
I167
aS'SER'
p75
aS'CA'
p76
aF-12.64
aF-3.67
aF-2.766
aa(lp77
I167
aS'SER'
p78
aS'C'
p79
aF-12.631
aF-2.41
aF-1.942
aa(lp80
I167
aS'SER'
p81
aS'O'
p82
aF-13.259
aF-1.391
aF-2.255
aa(lp83
I167
aS'SER'
p84
aS'H'
p85
aF-14.576
aF-3.612
aF-3.177
aa(lp86
I168
aS'TRP'
p87
aS'N'
p88
aF-11.833
aF-2.502
aF-0.897
aa(lp89
I168
aS'TRP'
p90
aS'CA'
p91
aF-11.66
aF-1.436
aF0.054
aa(lp92
I168
aS'TRP'
p93
aS'C'
p94
aF-10.386
aF-0.659
aF0.097
aa(lp95
I168
aS'TRP'
p96
aS'O'
p97
aF-9.332
aF-1.167
aF0.46
aa(lp98
I168
aS'TRP'
p99
aS'H'
p100
aF-11.368
aF-3.203
aF-0.72
aa(lp101
I169
aS'THR'
p102
aS'N'
p103
aF-10.581
aF0.633
aF0.086
aa(lp104
I169
aS'THR'
p105
aS'CA'
p106
aF-9.498
aF1.546
aF0.264
aa(lp107
I169
aS'THR'
p108
aS'C'
p109
aF-9.316
aF1.556
aF1.791
aa(lp110
I169
aS'THR'
p111
aS'O'
p112
aF-10.223
aF1.174
aF2.526
aa(lp113
I169
aS'THR'
p114
aS'H'
p115
aF-11.348
aF1.005
aF-0.025
aaa(lp116
(lp117
I178
aS'TYR'
p118
aS'N'
p119
aF-13.473
aF6.378
aF4.507
aa(lp120
I178
aS'TYR'
p121
aS'CA'
p122
aF-13.268
aF5.154
aF3.741
aa(lp123
I178
aS'TYR'
p124
aS'C'
p125
aF-14.019
aF5.203
aF2.393
aa(lp126
I178
aS'TYR'
p127
aS'O'
p128
aF-15.026
aF5.91
aF2.256
aa(lp129
I178
aS'TYR'
p130
aS'H'
p131
aF-14.285
aF6.474
aF4.773
aa(lp132
I179
aS'SER'
p133
aS'N'
p134
aF-13.627
aF4.315
aF1.482
aa(lp135
I179
aS'SER'
p136
aS'CA'
p137
aF-14.239
aF4.186
aF0.16
aa(lp138
I179
aS'SER'
p139
aS'C'
p140
aF-14.23
aF2.728
aF-0.264
aa(lp141
I179
aS'SER'
p142
aS'O'
p143
aF-13.362
aF1.995
aF0.12
aa(lp144
I179
aS'SER'
p145
aS'H'
p146
aF-12.985
aF3.759
aF1.617
aa(lp147
I180
aS'MET'
p148
aS'N'
p149
aF-15.145
aF2.344
aF-1.138
aa(lp150
I180
aS'MET'
p151
aS'CA'
p152
aF-15.163
aF0.987
aF-1.656
aa(lp153
I180
aS'MET'
p154
aS'C'
p155
aF-15.783
aF0.889
aF-3.062
aa(lp156
I180
aS'MET'
p157
aS'O'
p158
aF-16.636
aF1.704
aF-3.473
aa(lp159
I180
aS'MET'
p160
aS'H'
p161
aF-15.766
aF2.854
aF-1.445
aa(lp162
I181
aS'SER'
p163
aS'N'
p164
aF-15.373
aF-0.162
aF-3.774
aa(lp165
I181
aS'SER'
p166
aS'CA'
p167
aF-15.923
aF-0.405
aF-5.1
aa(lp168
I181
aS'SER'
p169
aS'C'
p170
aF-16.251
aF-1.85
aF-5.195
aa(lp171
I181
aS'SER'
p172
aS'O'
p173
aF-15.485
aF-2.715
aF-4.768
aa(lp174
I181
aS'SER'
p175
aS'H'
p176
aF-14.788
aF-0.735
aF-3.51
aa(lp177
I182
aS'SER'
p178
aS'N'
p179
aF-17.358
aF-2.056
aF-5.881
aa(lp180
I182
aS'SER'
p181
aS'CA'
p182
aF-17.935
aF-3.343
aF-6.119
aa(lp183
I182
aS'SER'
p184
aS'C'
p185
aF-18.182
aF-3.451
aF-7.617
aa(lp186
I182
aS'SER'
p187
aS'O'
p188
aF-18.833
aF-2.592
aF-8.237
aa(lp189
I182
aS'SER'
p190
aS'H'
p191
aF-17.809
aF-1.414
aF-6.234
aa(lp192
I183
aS'THR'
p193
aS'N'
p194
aF-17.775
aF-4.582
aF-8.169
aa(lp195
I183
aS'THR'
p196
aS'CA'
p197
aF-17.902
aF-4.816
aF-9.586
aa(lp198
I183
aS'THR'
p199
aS'C'
p200
aF-18.604
aF-6.124
aF-9.864
aa(lp201
I183
aS'THR'
p202
aS'O'
p203
aF-18.277
aF-7.163
aF-9.29
aa(lp204
I183
aS'THR'
p205
aS'H'
p206
aF-17.419
aF-5.231
aF-7.731
aa(lp207
I184
aS'LEU'
p208
aS'N'
p209
aF-19.624
aF-6.059
aF-10.706
aa(lp210
I184
aS'LEU'
p211
aS'CA'
p212
aF-20.302
aF-7.276
aF-11.127
aa(lp213
I184
aS'LEU'
p214
aS'C'
p215
aF-19.994
aF-7.521
aF-12.584
aa(lp216
I184
aS'LEU'
p217
aS'O'
p218
aF-20.359
aF-6.738
aF-13.435
aa(lp219
I184
aS'LEU'
p220
aS'H'
p221
aF-19.937
aF-5.332
aF-11.042
aa(lp222
I185
aS'THR'
p223
aS'N'
p224
aF-19.206
aF-8.553
aF-12.823
aa(lp225
I185
aS'THR'
p226
aS'CA'
p227
aF-18.845
aF-9.021
aF-14.151
aa(lp228
I185
aS'THR'
p229
aS'C'
p230
aF-19.889
aF-10.057
aF-14.6
aa(lp231
I185
aS'THR'
p232
aS'O'
p233
aF-20.324
aF-10.895
aF-13.816
aa(lp234
I185
aS'THR'
p235
aS'H'
p236
aF-18.852
aF-9.02
aF-12.193
aa(lp237
I186
aS'LEU'
p238
aS'N'
p239
aF-20.247
aF-10.029
aF-15.875
aa(lp240
I186
aS'LEU'
p241
aS'CA'
p242
aF-21.245
aF-10.942
aF-16.426
aa(lp243
I186
aS'LEU'
p244
aS'C'
p245
aF-20.717
aF-11.218
aF-17.814
aa(lp246
I186
aS'LEU'
p247
aS'O'
p248
aF-19.847
aF-10.476
aF-18.285
aa(lp249
I186
aS'LEU'
p250
aS'H'
p251
aF-19.919
aF-9.48
aF-16.449
aa(lp252
I187
aS'THR'
p253
aS'N'
p254
aF-21.249
aF-12.234
aF-18.5
aa(lp255
I187
aS'THR'
p256
aS'CA'
p257
aF-20.883
aF-12.435
aF-19.916
aa(lp258
I187
aS'THR'
p259
aS'C'
p260
aF-21.575
aF-11.296
aF-20.633
aa(lp261
I187
aS'THR'
p262
aS'O'
p263
aF-22.434
aF-10.665
aF-20.056
aa(lp264
I187
aS'THR'
p265
aS'H'
p266
aF-21.807
aF-12.805
aF-18.18
aaaaa(lp267
S'seq_filter'
p268
aS'GVLNSWTYSMSSTLTLT'
p269
aF41.17647058823529
aF5.5
aa(lp270
S'contacts_filter'
p271
aI26
aF69.23076923076923
aa(lp272
S'PCS_filter'
p273
a(lp274
(lp275
I0
aF0.0035903921921986636
a(lp276
(lp277
cnumpy.core.multiarray
scalar
p278
(cnumpy
dtype
p279
(S'f8'
p280
I0
I1
tp281
Rp282
(I3
S'<'
p283
NNNI-1
I-1
I0
tp284
bS'2Q\x18\x9e.04@'
p285
tp286
Rp287
ag278
(g282
S'\xe4n\xb6\xa6\xc0\xad)@'
p288
tp289
Rp290
aa(lp291
g278
(g282
S'P5<\x86\xbb\xf3@\xc0'
p292
tp293
Rp294
ag278
(g282
S'\x9c\x08\xf3\xb0/q3\xc0'
p295
tp296
Rp297
aaaa(lp298
I1
aF0.0012697417670845962
a(lp299
(lp300
g278
(g282
S'\xb3\x0c\xbd\x07\xc5\x9d2@'
p301
tp302
Rp303
ag278
(g282
S'\xa9{1\x800\xea"@'
p304
tp305
Rp306
aa(lp307
g278
(g282
S'2N\x1e\xda\x04u-@'
p308
tp309
Rp310
ag278
(g282
S'y\xe2ld}\xdd\x1a@'
p311
tp312
Rp313
aaaaaa(lp314
S'smotif_def'
p315
a(lp316
(lp317
S'strand'
p318
aI7
aI4
aI6
aI89
aI95
aa(lp319
g318
aI10
aI4
aI3
aI102
aI111
aaaaa(lp320
(lp321
(lp322
(lp323
S'2vu4A00'
p324
aS'111'
p325
aS'117'
p326
aS'124'
p327
aS'133'
p328
aa(lp329
(lp330
I111
aS'ALA'
p331
aS'N'
p332
aF5.783
aF3.293
aF25.713
aa(lp333
I111
aS'ALA'
p334
aS'CA'
p335
aF5.241
aF3.283
aF24.368
aa(lp336
I111
aS'ALA'
p337
aS'C'
p338
aF3.755
aF3.695
aF24.518
aa(lp339
I111
aS'ALA'
p340
aS'O'
p341
aF3.054
aF3.205
aF25.4
aa(lp342
I111
aS'ALA'
p343
aS'H'
p344
aF5.3
aF2.833
aF26.256
aa(lp345
I112
aS'ASN'
p346
aS'N'
p347
aF3.308
aF4.684
aF23.783
aa(lp348
I112
aS'ASN'
p349
aS'CA'
p350
aF1.927
aF5.206
aF23.795
aa(lp351
I112
aS'ASN'
p352
aS'C'
p353
aF1.415
aF5.061
aF22.359
aa(lp354
I112
aS'ASN'
p355
aS'O'
p356
aF2.051
aF5.612
aF21.462
aa(lp357
I112
aS'ASN'
p358
aS'H'
p359
aF3.814
aF5.103
aF23.228
aa(lp360
I113
aS'VAL'
p361
aS'N'
p362
aF0.311
aF4.335
aF22.148
aa(lp363
I113
aS'VAL'
p364
aS'CA'
p365
aF-0.286
aF4.184
aF20.829
aa(lp366
I113
aS'VAL'
p367
aS'C'
p368
aF-1.179
aF5.378
aF20.513
aa(lp369
I113
aS'VAL'
p370
aS'O'
p371
aF-2.247
aF5.54
aF21.131
aa(lp372
I113
aS'VAL'
p373
aS'H'
p374
aF-0.109
aF3.918
aF22.772
aa(lp375
I114
aS'LEU'
p376
aS'N'
p377
aF-0.69
aF6.266
aF19.65
aa(lp378
I114
aS'LEU'
p379
aS'CA'
p380
aF-1.42
aF7.456
aF19.248
aa(lp381
I114
aS'LEU'
p382
aS'C'
p383
aF-2.633
aF7.026
aF18.483
aa(lp384
I114
aS'LEU'
p385
aS'O'
p386
aF-3.728
aF7.468
aF18.804
aa(lp387
I114
aS'LEU'
p388
aS'H'
p389
aF0.083
aF6.19
aF19.28
aa(lp390
I115
aS'GLU'
p391
aS'N'
p392
aF-2.457
aF6.121
aF17.495
aa(lp393
I115
aS'GLU'
p394
aS'CA'
p395
aF-3.581
aF5.757
aF16.637
aa(lp396
I115
aS'GLU'
p397
aS'C'
p398
aF-3.354
aF4.392
aF16.066
aa(lp399
I115
aS'GLU'
p400
aS'O'
p401
aF-2.217
aF3.95
aF15.954
aa(lp402
I115
aS'GLU'
p403
aS'H'
p404
aF-1.715
aF5.724
aF17.318
aa(lp405
I116
aS'SER'
p406
aS'N'
p407
aF-4.427
aF3.725
aF15.692
aa(lp408
I116
aS'SER'
p409
aS'CA'
p410
aF-4.271
aF2.532
aF14.857
aa(lp411
I116
aS'SER'
p412
aS'C'
p413
aF-5.443
aF2.412
aF13.914
aa(lp414
I116
aS'SER'
p415
aS'O'
p416
aF-6.504
aF2.964
aF14.19
aa(lp417
I116
aS'SER'
p418
aS'H'
p419
aF-5.236
aF3.931
aF15.899
aa(lp420
I117
aS'SER'
p421
aS'N'
p422
aF-5.21
aF1.712
aF12.795
aa(lp423
I117
aS'SER'
p424
aS'CA'
p425
aF-6.159
aF1.552
aF11.716
aa(lp426
I117
aS'SER'
p427
aS'C'
p428
aF-5.94
aF0.241
aF10.991
aa(lp429
I117
aS'SER'
p430
aS'O'
p431
aF-4.895
aF-0.41
aF11.105
aa(lp432
I117
aS'SER'
p433
aS'H'
p434
aF-4.465
aF1.308
aF12.65
aaa(lp435
(lp436
I124
aS'LYS'
p437
aS'N'
p438
aF-6.146
aF-6.334
aF-0.086
aa(lp439
I124
aS'LYS'
p440
aS'CA'
p441
aF-5.287
aF-6.72
aF1.043
aa(lp442
I124
aS'LYS'
p443
aS'C'
p444
aF-5.619
aF-5.941
aF2.308
aa(lp445
I124
aS'LYS'
p446
aS'O'
p447
aF-5.62
aF-4.695
aF2.291
aa(lp448
I124
aS'LYS'
p449
aS'H'
p450
aF-5.79
aF-5.741
aF-0.596
aa(lp451
I125
aS'GLN'
p452
aS'N'
p453
aF-5.845
aF-6.669
aF3.396
aa(lp454
I125
aS'GLN'
p455
aS'CA'
p456
aF-5.888
aF-6.08
aF4.722
aa(lp457
I125
aS'GLN'
p458
aS'C'
p459
aF-4.489
aF-5.603
aF5.207
aa(lp460
I125
aS'GLN'
p461
aS'O'
p462
aF-3.538
aF-6.397
aF5.316
aa(lp463
I125
aS'GLN'
p464
aS'H'
p465
aF-5.977
aF-7.519
aF3.383
aa(lp466
I126
aS'TYR'
p467
aS'N'
p468
aF-4.377
aF-4.328
aF5.545
aa(lp469
I126
aS'TYR'
p470
aS'CA'
p471
aF-3.192
aF-3.833
aF6.249
aa(lp472
I126
aS'TYR'
p473
aS'C'
p474
aF-3.473
aF-3.443
aF7.695
aa(lp475
I126
aS'TYR'
p476
aS'O'
p477
aF-4.615
aF-3.219
aF8.049
aa(lp478
I126
aS'TYR'
p479
aS'H'
p480
aF-4.972
aF-3.73
aF5.379
aa(lp481
I127
aS'TYR'
p482
aS'N'
p483
aF-2.43
aF-3.406
aF8.523
aa(lp484
I127
aS'TYR'
p485
aS'CA'
p486
aF-2.531
aF-2.764
aF9.797
aa(lp487
I127
aS'TYR'
p488
aS'C'
p489
aF-1.582
aF-1.549
aF9.735
aa(lp490
I127
aS'TYR'
p491
aS'O'
p492
aF-0.532
aF-1.6
aF9.128
aa(lp493
I127
aS'TYR'
p494
aS'H'
p495
aF-1.661
aF-3.751
aF8.352
aa(lp496
I128
aS'SER'
p497
aS'N'
p498
aF-1.956
aF-0.478
aF10.388
aa(lp499
I128
aS'SER'
p500
aS'CA'
p501
aF-1.092
aF0.667
aF10.56
aa(lp502
I128
aS'SER'
p503
aS'C'
p504
aF-1.147
aF1.089
aF12.049
aa(lp505
I128
aS'SER'
p506
aS'O'
p507
aF-2.242
aF1.101
aF12.69
aa(lp508
I128
aS'SER'
p509
aS'H'
p510
aF-2.73
aF-0.39
aF10.751
aa(lp511
I129
aS'ILE'
p512
aS'N'
p513
aF0.04
aF1.275
aF12.625
aa(lp514
I129
aS'ILE'
p515
aS'CA'
p516
aF0.152
aF1.711
aF13.994
aa(lp517
I129
aS'ILE'
p518
aS'C'
p519
aF1.112
aF2.914
aF14.18
aa(lp520
I129
aS'ILE'
p521
aS'O'
p522
aF2.27
aF2.888
aF13.755
aa(lp523
I129
aS'ILE'
p524
aS'H'
p525
aF0.793
aF1.15
aF12.228
aa(lp526
I130
aS'THR'
p527
aS'N'
p528
aF0.623
aF3.955
aF14.836
aa(lp529
I130
aS'THR'
p530
aS'CA'
p531
aF1.46
aF5.069
aF15.287
aa(lp532
I130
aS'THR'
p533
aS'C'
p534
aF1.733
aF5.069
aF16.799
aa(lp535
I130
aS'THR'
p536
aS'O'
p537
aF0.797
aF5.15
aF17.649
aa(lp538
I130
aS'THR'
p539
aS'H'
p540
aF-0.209
aF4.041
aF15.036
aa(lp541
I131
aS'VAL'
p542
aS'N'
p543
aF3.022
aF4.994
aF17.137
aa(lp544
I131
aS'VAL'
p545
aS'CA'
p546
aF3.462
aF4.852
aF18.511
aa(lp547
I131
aS'VAL'
p548
aS'C'
p549
aF4.497
aF5.862
aF18.869
aa(lp550
I131
aS'VAL'
p551
aS'O'
p552
aF5.433
aF6.115
aF18.123
aa(lp553
I131
aS'VAL'
p554
aS'H'
p555
aF3.664
aF5.025
aF16.566
aa(lp556
I132
aS'LEU'
p557
aS'N'
p558
aF4.361
aF6.384
aF20.053
aa(lp559
I132
aS'LEU'
p560
aS'CA'
p561
aF5.279
aF7.333
aF20.602
aa(lp562
I132
aS'LEU'
p563
aS'C'
p564
aF6.083
aF6.593
aF21.655
aa(lp565
I132
aS'LEU'
p566
aS'O'
p567
aF5.511
aF6.072
aF22.591
aa(lp568
I132
aS'LEU'
p569
aS'H'
p570
aF3.709
aF6.19
aF20.58
aa(lp571
I133
aS'THR'
p572
aS'N'
p573
aF7.398
aF6.561
aF21.518
aa(lp574
I133
aS'THR'
p575
aS'CA'
p576
aF8.27
aF5.963
aF22.523
aa(lp577
I133
aS'THR'
p578
aS'C'
p579
aF9.265
aF6.928
aF23.158
aa(lp580
I133
aS'THR'
p581
aS'O'
p582
aF9.701
aF7.918
aF22.55
aa(lp583
I133
aS'THR'
p584
aS'H'
p585
aF7.815
aF6.885
aF20.839
aaaaa(lp586
g268
aS'ANVLESSKQYYSITVLT'
p587
aF41.17647058823529
aF7.0
aa(lp588
g271
aI26
aF57.692307692307686
aa(lp589
g273
a(lp590
(lp591
I0
aF0.03172316007465664
a(lp592
(lp593
g278
(g282
S'*\xda\xe6\x97\xae\x8bF@'
p594
tp595
Rp596
ag278
(g282
S'6\x8f\x94=\x01\xab3@'
p597
tp598
Rp599
aa(lp600
g278
(g282
S'\xba\x7fR,\x89\xfaP\xc0'
p601
tp602
Rp603
ag278
(g282
S'\xaa\xe4$3HMD\xc0'
p604
tp605
Rp606
aaaa(lp607
I1
aF0.0008854368827837091
a(lp608
(lp609
g278
(g282
S'.Pi\xca\x07\xcbW@'
p610
tp611
Rp612
ag278
(g282
S'h\x92\xd5\xe8f6K@'
p613
tp614
Rp615
aa(lp616
g278
(g282
S'~\x9b\xa9\xdb}/L@'
p617
tp618
Rp619
ag278
(g282
S'\x84\xe4k\x12\xb9\xc7=@'
p620
tp621
Rp622
aaaaaa(lp623
g315
a(lp624
g317
ag319
aaaa.