(lp0
(lp1
(lp2
(lp3
(lp4
S'2pm7D01'
p5
aS'182'
p6
aS'188'
p7
aS'193'
p8
aS'200'
p9
aa(lp10
(lp11
I182
aS'VAL'
p12
aS'N'
p13
aF-95.49
aF92.616
aF109.205
aa(lp14
I182
aS'VAL'
p15
aS'CA'
p16
aF-95.113
aF92.134
aF107.896
aa(lp17
I182
aS'VAL'
p18
aS'C'
p19
aF-94.661
aF90.702
aF108.228
aa(lp20
I182
aS'VAL'
p21
aS'O'
p22
aF-93.857
aF90.492
aF109.146
aa(lp23
I182
aS'VAL'
p24
aS'H'
p25
aF-94.831
aF92.66
aF109.756
aa(lp26
I183
aS'LYS'
p27
aS'N'
p28
aF-95.19
aF89.71
aF107.515
aa(lp29
I183
aS'LYS'
p30
aS'CA'
p31
aF-94.818
aF88.324
aF107.806
aa(lp32
I183
aS'LYS'
p33
aS'C'
p34
aF-94.294
aF87.553
aF106.607
aa(lp35
I183
aS'LYS'
p36
aS'O'
p37
aF-94.635
aF87.857
aF105.461
aa(lp38
I183
aS'LYS'
p39
aS'H'
p40
aF-95.753
aF89.812
aF106.873
aa(lp41
I184
aS'ILE'
p42
aS'N'
p43
aF-93.441
aF86.569
aF106.885
aa(lp44
I184
aS'ILE'
p45
aS'CA'
p46
aF-92.851
aF85.75
aF105.844
aa(lp47
I184
aS'ILE'
p48
aS'C'
p49
aF-93.215
aF84.274
aF106.039
aa(lp50
I184
aS'ILE'
p51
aS'O'
p52
aF-93.017
aF83.692
aF107.107
aa(lp53
I184
aS'ILE'
p54
aS'H'
p55
aF-93.192
aF86.362
aF107.682
aa(lp56
I185
aS'TRP'
p57
aS'N'
p58
aF-93.784
aF83.687
aF104.995
aa(lp59
I185
aS'TRP'
p60
aS'CA'
p61
aF-94.233
aF82.306
aF105.049
aa(lp62
I185
aS'TRP'
p63
aS'C'
p64
aF-93.503
aF81.405
aF104.071
aa(lp65
I185
aS'TRP'
p66
aS'O'
p67
aF-93.201
aF81.812
aF102.95
aa(lp68
I185
aS'TRP'
p69
aS'H'
p70
aF-93.92
aF84.076
aF104.24
aa(lp71
I186
aS'LYS'
p72
aS'N'
p73
aF-93.198
aF80.186
aF104.516
aa(lp74
I186
aS'LYS'
p75
aS'CA'
p76
aF-92.511
aF79.204
aF103.67
aa(lp77
I186
aS'LYS'
p78
aS'C'
p79
aF-93.268
aF77.886
aF103.672
aa(lp80
I186
aS'LYS'
p81
aS'O'
p82
aF-93.8
aF77.459
aF104.705
aa(lp83
I186
aS'LYS'
p84
aS'H'
p85
aF-93.38
aF79.905
aF105.308
aa(lp86
I187
aS'TYR'
p87
aS'N'
p88
aF-93.331
aF77.252
aF102.51
aa(lp89
I187
aS'TYR'
p90
aS'CA'
p91
aF-94.018
aF75.976
aF102.401
aa(lp92
I187
aS'TYR'
p93
aS'C'
p94
aF-93.211
aF74.898
aF103.106
aa(lp95
I187
aS'TYR'
p96
aS'O'
p97
aF-91.989
aF74.827
aF102.955
aa(lp98
I187
aS'TYR'
p99
aS'H'
p100
aF-92.985
aF77.541
aF101.778
aa(lp101
I188
aS'ASN'
p102
aS'N'
p103
aF-93.911
aF74.074
aF103.876
aa(lp104
I188
aS'ASN'
p105
aS'CA'
p106
aF-93.304
aF72.967
aF104.605
aa(lp107
I188
aS'ASN'
p108
aS'C'
p109
aF-94.012
aF71.647
aF104.224
aa(lp110
I188
aS'ASN'
p111
aS'O'
p112
aF-95.222
aF71.511
aF104.416
aa(lp113
I188
aS'ASN'
p114
aS'H'
p115
aF-94.76
aF74.142
aF103.991
aaa(lp116
(lp117
I193
aS'THR'
p118
aS'N'
p119
aF-98.395
aF72.728
aF104.192
aa(lp120
I193
aS'THR'
p121
aS'CA'
p122
aF-98.875
aF74.098
aF104.018
aa(lp123
I193
aS'THR'
p124
aS'C'
p125
aF-97.784
aF75.148
aF104.231
aa(lp126
I193
aS'THR'
p127
aS'O'
p128
aF-96.602
aF74.821
aF104.364
aa(lp129
I193
aS'THR'
p130
aS'H'
p131
aF-97.605
aF72.658
aF104.525
aa(lp132
I194
aS'TYR'
p133
aS'N'
p134
aF-98.18
aF76.416
aF104.238
aa(lp135
I194
aS'TYR'
p136
aS'CA'
p137
aF-97.221
aF77.49
aF104.446
aa(lp138
I194
aS'TYR'
p139
aS'C'
p140
aF-97.096
aF77.828
aF105.919
aa(lp141
I194
aS'TYR'
p142
aS'O'
p143
aF-98.097
aF77.974
aF106.639
aa(lp144
I194
aS'TYR'
p145
aS'H'
p146
aF-98.993
aF76.673
aF104.125
aa(lp147
I195
aS'VAL'
p148
aS'N'
p149
aF-95.859
aF77.916
aF106.383
aa(lp150
I195
aS'VAL'
p151
aS'CA'
p152
aF-95.646
aF78.226
aF107.794
aa(lp153
I195
aS'VAL'
p154
aS'C'
p155
aF-94.835
aF79.495
aF107.993
aa(lp156
I195
aS'VAL'
p157
aS'O'
p158
aF-94.001
aF79.867
aF107.164
aa(lp159
I195
aS'VAL'
p160
aS'H'
p161
aF-95.146
aF77.804
aF105.916
aa(lp162
I196
aS'LEU'
p163
aS'N'
p164
aF-95.081
aF80.119
aF109.134
aa(lp165
I196
aS'LEU'
p166
aS'CA'
p167
aF-94.436
aF81.348
aF109.55
aa(lp168
I196
aS'LEU'
p169
aS'C'
p170
aF-92.922
aF81.225
aF109.652
aa(lp171
I196
aS'LEU'
p172
aS'O'
p173
aF-92.433
aF80.412
aF110.414
aa(lp174
I196
aS'LEU'
p175
aS'H'
p176
aF-95.65
aF79.826
aF109.708
aa(lp177
I197
aS'GLU'
p178
aS'N'
p179
aF-92.198
aF82.035
aF108.872
aa(lp180
I197
aS'GLU'
p181
aS'CA'
p182
aF-90.733
aF82.076
aF108.875
aa(lp183
I197
aS'GLU'
p184
aS'C'
p185
aF-90.266
aF83.253
aF109.751
aa(lp186
I197
aS'GLU'
p187
aS'O'
p188
aF-89.344
aF83.114
aF110.559
aa(lp189
I197
aS'GLU'
p190
aS'H'
p191
aF-92.553
aF82.586
aF108.316
aa(lp192
I198
aS'SER'
p193
aS'N'
p194
aF-90.883
aF84.422
aF109.569
aa(lp195
I198
aS'SER'
p196
aS'CA'
p197
aF-90.501
aF85.593
aF110.341
aa(lp198
I198
aS'SER'
p199
aS'C'
p200
aF-91.626
aF86.582
aF110.505
aa(lp201
I198
aS'SER'
p202
aS'O'
p203
aF-92.59
aF86.575
aF109.748
aa(lp204
I198
aS'SER'
p205
aS'H'
p206
aF-91.52
aF84.553
aF109.006
aa(lp207
I199
aS'THR'
p208
aS'N'
p209
aF-91.496
aF87.426
aF111.518
aa(lp210
I199
aS'THR'
p211
aS'CA'
p212
aF-92.453
aF88.487
aF111.767
aa(lp213
I199
aS'THR'
p214
aS'C'
p215
aF-91.564
aF89.73
aF111.784
aa(lp216
I199
aS'THR'
p217
aS'O'
p218
aF-90.558
aF89.766
aF112.495
aa(lp219
I199
aS'THR'
p220
aS'H'
p221
aF-90.847
aF87.398
aF112.082
aa(lp222
I200
aS'LEU'
p223
aS'N'
p224
aF-91.911
aF90.726
aF110.973
aa(lp225
I200
aS'LEU'
p226
aS'CA'
p227
aF-91.127
aF91.956
aF110.869
aa(lp228
I200
aS'LEU'
p229
aS'C'
p230
aF-91.865
aF93.159
aF111.444
aa(lp231
I200
aS'LEU'
p232
aS'O'
p233
aF-92.832
aF93.645
aF110.866
aa(lp234
I200
aS'LEU'
p235
aS'H'
p236
aF-92.607
aF90.709
aF110.468
aaaaa(lp237
S'seq_filter'
p238
aS'VKIWKYNTYVLESTL'
p239
aF53.333333333333336
aF14.0
aa(lp240
S'contacts_filter'
p241
aI23
aF69.56521739130434
aa(lp242
S'PCS_filter'
p243
a(lp244
(lp245
I0
aF0.012984075447606087
a(lp246
(lp247
cnumpy.core.multiarray
scalar
p248
(cnumpy
dtype
p249
(S'f8'
p250
I0
I1
tp251
Rp252
(I3
S'<'
p253
NNNI-1
I-1
I0
tp254
bS'\xb4\x95X}\x96\x00?@'
p255
tp256
Rp257
ag248
(g252
S'~rp<\xcf//@'
p258
tp259
Rp260
aa(lp261
g248
(g252
S"\xb0\xa8'\x98\r\xd3L\xc0"
p262
tp263
Rp264
ag248
(g252
S'\xb9r\x1ck\x94\xe8=\xc0'
p265
tp266
Rp267
aaaa(lp268
I1
aF0.001168168017216852
a(lp269
(lp270
g248
(g252
S'\x16}U\x025\xc1T@'
p271
tp272
Rp273
ag248
(g252
S'\x84\xfd\xfe\xe9\xc0H3@'
p274
tp275
Rp276
aa(lp277
g248
(g252
S'\x8c\xa9\xe9a\xf4~F@'
p278
tp279
Rp280
ag248
(g252
S'pb\x94\xe8\xfbX6@'
p281
tp282
Rp283
aaaaaa(lp284
S'smotif_def'
p285
a(lp286
(lp287
S'strand'
p288
aI7
aI4
aI6
aI89
aI95
aa(lp289
g288
aI8
aI4
aI5
aI102
aI109
aaaaa(lp290
(lp291
(lp292
(lp293
S'2pm6D01'
p294
aS'182'
p295
aS'188'
p296
aS'193'
p297
aS'200'
p298
aa(lp299
(lp300
I182
aS'VAL'
p301
aS'N'
p302
aF-96.08
aF92.637
aF109.039
aa(lp303
I182
aS'VAL'
p304
aS'CA'
p305
aF-95.728
aF92.159
aF107.714
aa(lp306
I182
aS'VAL'
p307
aS'C'
p308
aF-95.193
aF90.721
aF108.003
aa(lp309
I182
aS'VAL'
p310
aS'O'
p311
aF-94.194
aF90.567
aF108.721
aa(lp312
I182
aS'VAL'
p313
aS'H'
p314
aF-95.402
aF92.737
aF109.558
aa(lp315
I183
aS'LYS'
p316
aS'N'
p317
aF-95.852
aF89.672
aF107.503
aa(lp318
I183
aS'LYS'
p319
aS'CA'
p320
aF-95.375
aF88.294
aF107.776
aa(lp321
I183
aS'LYS'
p322
aS'C'
p323
aF-94.813
aF87.556
aF106.555
aa(lp324
I183
aS'LYS'
p325
aS'O'
p326
aF-95.097
aF87.933
aF105.411
aa(lp327
I183
aS'LYS'
p328
aS'H'
p329
aF-96.559
aF89.724
aF107.016
aa(lp330
I184
aS'ILE'
p331
aS'N'
p332
aF-94.006
aF86.52
aF106.803
aa(lp333
I184
aS'ILE'
p334
aS'CA'
p335
aF-93.404
aF85.744
aF105.731
aa(lp336
I184
aS'ILE'
p337
aS'C'
p338
aF-93.706
aF84.252
aF105.891
aa(lp339
I184
aS'ILE'
p340
aS'O'
p341
aF-93.378
aF83.634
aF106.904
aa(lp342
I184
aS'ILE'
p343
aS'H'
p344
aF-93.797
aF86.254
aF107.594
aa(lp345
I185
aS'TRP'
p346
aS'N'
p347
aF-94.335
aF83.686
aF104.862
aa(lp348
I185
aS'TRP'
p349
aS'CA'
p350
aF-94.768
aF82.293
aF104.884
aa(lp351
I185
aS'TRP'
p352
aS'C'
p353
aF-94.075
aF81.349
aF103.935
aa(lp354
I185
aS'TRP'
p355
aS'O'
p356
aF-93.857
aF81.67
aF102.77
aa(lp357
I185
aS'TRP'
p358
aS'H'
p359
aF-94.522
aF84.1
aF104.132
aa(lp360
I186
aS'LYS'
p361
aS'N'
p362
aF-93.735
aF80.169
aF104.441
aa(lp363
I186
aS'LYS'
p364
aS'CA'
p365
aF-93.059
aF79.15
aF103.629
aa(lp366
I186
aS'LYS'
p367
aS'C'
p368
aF-93.862
aF77.856
aF103.582
aa(lp369
I186
aS'LYS'
p370
aS'O'
p371
aF-94.471
aF77.452
aF104.582
aa(lp372
I186
aS'LYS'
p373
aS'H'
p374
aF-93.885
aF79.934
aF105.254
aa(lp375
I187
aS'TYR'
p376
aS'N'
p377
aF-93.869
aF77.207
aF102.423
aa(lp378
I187
aS'TYR'
p379
aS'CA'
p380
aF-94.605
aF75.958
aF102.291
aa(lp381
I187
aS'TYR'
p382
aS'C'
p383
aF-93.84
aF74.831
aF102.969
aa(lp384
I187
aS'TYR'
p385
aS'O'
p386
aF-92.614
aF74.785
aF102.919
aa(lp387
I187
aS'TYR'
p388
aS'H'
p389
aF-93.461
aF77.468
aF101.712
aa(lp390
I188
aS'ASN'
p391
aS'N'
p392
aF-94.572
aF73.915
aF103.589
aa(lp393
I188
aS'ASN'
p394
aS'CA'
p395
aF-93.958
aF72.79
aF104.28
aa(lp396
I188
aS'ASN'
p397
aS'C'
p398
aF-94.665
aF71.463
aF103.947
aa(lp399
I188
aS'ASN'
p400
aS'O'
p401
aF-95.873
aF71.327
aF104.148
aa(lp402
I188
aS'ASN'
p403
aS'H'
p404
aF-95.431
aF73.927
aF103.621
aaa(lp405
(lp406
I193
aS'THR'
p407
aS'N'
p408
aF-98.915
aF72.594
aF104.046
aa(lp409
I193
aS'THR'
p410
aS'CA'
p411
aF-99.403
aF73.962
aF103.946
aa(lp412
I193
aS'THR'
p413
aS'C'
p414
aF-98.317
aF75.0
aF104.186
aa(lp415
I193
aS'THR'
p416
aS'O'
p417
aF-97.166
aF74.639
aF104.443
aa(lp418
I193
aS'THR'
p419
aS'H'
p420
aF-98.139
aF72.508
aF104.406
aa(lp421
I194
aS'TYR'
p422
aS'N'
p423
aF-98.675
aF76.285
aF104.074
aa(lp424
I194
aS'TYR'
p425
aS'CA'
p426
aF-97.714
aF77.371
aF104.294
aa(lp427
I194
aS'TYR'
p428
aS'C'
p429
aF-97.629
aF77.713
aF105.771
aa(lp430
I194
aS'TYR'
p431
aS'O'
p432
aF-98.654
aF77.851
aF106.443
aa(lp433
I194
aS'TYR'
p434
aS'H'
p435
aF-99.469
aF76.547
aF103.872
aa(lp436
I195
aS'VAL'
p437
aS'N'
p438
aF-96.411
aF77.836
aF106.286
aa(lp439
I195
aS'VAL'
p440
aS'CA'
p441
aF-96.253
aF78.165
aF107.704
aa(lp442
I195
aS'VAL'
p443
aS'C'
p444
aF-95.409
aF79.422
aF107.943
aa(lp445
I195
aS'VAL'
p446
aS'O'
p447
aF-94.572
aF79.823
aF107.111
aa(lp448
I195
aS'VAL'
p449
aS'H'
p450
aF-95.678
aF77.737
aF105.847
aa(lp451
I196
aS'LEU'
p452
aS'N'
p453
aF-95.65
aF80.028
aF109.097
aa(lp454
I196
aS'LEU'
p455
aS'CA'
p456
aF-94.975
aF81.243
aF109.528
aa(lp457
I196
aS'LEU'
p458
aS'C'
p459
aF-93.459
aF81.102
aF109.624
aa(lp460
I196
aS'LEU'
p461
aS'O'
p462
aF-92.948
aF80.232
aF110.325
aa(lp463
I196
aS'LEU'
p464
aS'H'
p465
aF-96.225
aF79.737
aF109.666
aa(lp466
I197
aS'GLU'
p467
aS'N'
p468
aF-92.755
aF81.964
aF108.893
aa(lp469
I197
aS'GLU'
p470
aS'CA'
p471
aF-91.297
aF81.994
aF108.873
aa(lp472
I197
aS'GLU'
p473
aS'C'
p474
aF-90.795
aF83.176
aF109.7
aa(lp475
I197
aS'GLU'
p476
aS'O'
p477
aF-89.75
aF83.085
aF110.357
aa(lp478
I197
aS'GLU'
p479
aS'H'
p480
aF-93.119
aF82.557
aF108.387
aa(lp481
I198
aS'SER'
p482
aS'N'
p483
aF-91.528
aF84.288
aF109.66
aa(lp484
I198
aS'SER'
p485
aS'CA'
p486
aF-91.123
aF85.462
aF110.405
aa(lp487
I198
aS'SER'
p488
aS'C'
p489
aF-92.053
aF86.648
aF110.361
aa(lp490
I198
aS'SER'
p491
aS'O'
p492
aF-92.597
aF87.002
aF109.325
aa(lp493
I198
aS'SER'
p494
aS'H'
p495
aF-92.256
aF84.377
aF109.21
aa(lp496
I199
aS'THR'
p497
aS'N'
p498
aF-92.236
aF87.264
aF111.516
aa(lp499
I199
aS'THR'
p500
aS'CA'
p501
aF-93.076
aF88.439
aF111.601
aa(lp502
I199
aS'THR'
p503
aS'C'
p504
aF-92.14
aF89.643
aF111.583
aa(lp505
I199
aS'THR'
p506
aS'O'
p507
aF-91.178
aF89.68
aF112.345
aa(lp508
I199
aS'THR'
p509
aS'H'
p510
aF-91.883
aF87.017
aF112.26
aa(lp511
I200
aS'LEU'
p512
aS'N'
p513
aF-92.401
aF90.605
aF110.698
aa(lp514
I200
aS'LEU'
p515
aS'CA'
p516
aF-91.573
aF91.809
aF110.6
aa(lp517
I200
aS'LEU'
p518
aS'C'
p519
aF-92.356
aF92.967
aF111.2
aa(lp520
I200
aS'LEU'
p521
aS'O'
p522
aF-93.372
aF93.364
aF110.659
aa(lp523
I200
aS'LEU'
p524
aS'H'
p525
aF-93.057
aF90.58
aF110.142
aaaaa(lp526
g238
aS'VKIWKYNTYVLESTL'
p527
aF53.333333333333336
aF14.0
aa(lp528
g241
aI23
aF73.91304347826086
aa(lp529
g243
a(lp530
(lp531
I0
aF0.013856768358072329
a(lp532
(lp533
g248
(g252
S'\x109\xb5\xe1\xfbV8@'
p534
tp535
Rp536
ag248
(g252
S'\x82\xfe\x00A\xd7\xd3%@'
p537
tp538
Rp539
aa(lp540
g248
(g252
S'\x1d\xcc\xe7\xea\xb1-F\xc0'
p541
tp542
Rp543
ag248
(g252
S'cJ\xa2|\x1b\x984\xc0'
p544
tp545
Rp546
aaaa(lp547
I1
aF0.0013079075587817878
a(lp548
(lp549
g248
(g252
S'\xd8\xb8@\xa7\x01\x81V@'
p550
tp551
Rp552
ag248
(g252
S'\x1f\xa96M\x95"8@'
p553
tp554
Rp555
aa(lp556
g248
(g252
S'\xe3\x00\xd1$l\x17I@'
p557
tp558
Rp559
ag248
(g252
S'\xd8e\xef\xb8\xcf\xc0:@'
p560
tp561
Rp562
aaaaaa(lp563
g285
a(lp564
g287
ag289
aaaa.