(lp0
(lp1
(lp2
(lp3
(lp4
S'2gbaA00'
p5
aS'41'
p6
aS'47'
p7
aS'76'
p8
aS'82'
p9
aa(lp10
(lp11
I41
aS'ASP'
p12
aS'N'
p13
aF28.117
aF-17.694
aF7.215
aa(lp14
I41
aS'ASP'
p15
aS'CA'
p16
aF27.961
aF-16.517
aF6.398
aa(lp17
I41
aS'ASP'
p18
aS'C'
p19
aF27.583
aF-15.288
aF7.214
aa(lp20
I41
aS'ASP'
p21
aS'O'
p22
aF26.841
aF-15.344
aF8.178
aa(lp23
I41
aS'ASP'
p24
aS'H'
p25
aF27.464
aF-18.253
aF7.177
aa(lp26
I42
aS'THR'
p27
aS'N'
p28
aF28.116
aF-14.155
aF6.732
aa(lp29
I42
aS'THR'
p30
aS'CA'
p31
aF27.748
aF-12.838
aF7.239
aa(lp32
I42
aS'THR'
p33
aS'C'
p34
aF26.691
aF-12.225
aF6.322
aa(lp35
I42
aS'THR'
p36
aS'O'
p37
aF26.879
aF-12.148
aF5.11
aa(lp38
I42
aS'THR'
p39
aS'H'
p40
aF28.701
aF-14.136
aF6.102
aa(lp41
I43
aS'VAL'
p42
aS'N'
p43
aF25.602
aF-11.765
aF6.94
aa(lp44
I43
aS'VAL'
p45
aS'CA'
p46
aF24.56
aF-11.029
aF6.222
aa(lp47
I43
aS'VAL'
p48
aS'C'
p49
aF24.704
aF-9.577
aF6.623
aa(lp50
I43
aS'VAL'
p51
aS'O'
p52
aF24.929
aF-9.243
aF7.782
aa(lp53
I43
aS'VAL'
p54
aS'H'
p55
aF25.447
aF-11.87
aF7.779
aa(lp56
I44
aS'THR'
p57
aS'N'
p58
aF24.544
aF-8.677
aF5.615
aa(lp59
I44
aS'THR'
p60
aS'CA'
p61
aF24.605
aF-7.266
aF5.855
aa(lp62
I44
aS'THR'
p63
aS'C'
p64
aF23.332
aF-6.611
aF5.379
aa(lp65
I44
aS'THR'
p66
aS'O'
p67
aF22.965
aF-6.739
aF4.176
aa(lp68
I44
aS'THR'
p69
aS'H'
p70
aF24.4
aF-8.893
aF4.795
aa(lp71
I45
aS'TRP'
p72
aS'N'
p73
aF22.646
aF-5.915
aF6.259
aa(lp74
I45
aS'TRP'
p75
aS'CA'
p76
aF21.519
aF-5.093
aF5.897
aa(lp77
I45
aS'TRP'
p78
aS'C'
p79
aF22.031
aF-3.706
aF5.566
aa(lp80
I45
aS'TRP'
p81
aS'O'
p82
aF22.906
aF-3.2
aF6.298
aa(lp83
I45
aS'TRP'
p84
aS'H'
p85
aF22.826
aF-5.907
aF7.1
aa(lp86
I46
aS'ILE'
p87
aS'N'
p88
aF21.463
aF-3.084
aF4.54
aa(lp89
I46
aS'ILE'
p90
aS'CA'
p91
aF21.836
aF-1.703
aF4.189
aa(lp92
I46
aS'ILE'
p93
aS'C'
p94
aF20.532
aF-0.926
aF4.044
aa(lp95
I46
aS'ILE'
p96
aS'O'
p97
aF19.667
aF-1.225
aF3.238
aa(lp98
I46
aS'ILE'
p99
aS'H'
p100
aF20.863
aF-3.434
aF4.033
aa(lp101
I47
aS'ASN'
p102
aS'N'
p103
aF20.396
aF0.128
aF4.881
aa(lp104
I47
aS'ASN'
p105
aS'CA'
p106
aF19.276
aF1.03
aF4.782
aa(lp107
I47
aS'ASN'
p108
aS'C'
p109
aF19.486
aF1.98
aF3.609
aa(lp110
I47
aS'ASN'
p111
aS'O'
p112
aF20.448
aF2.72
aF3.601
aa(lp113
I47
aS'ASN'
p114
aS'H'
p115
aF20.954
aF0.32
aF5.507
aaa(lp116
(lp117
I76
aS'GLN'
p118
aS'N'
p119
aF23.509
aF3.52
aF5.787
aa(lp120
I76
aS'GLN'
p121
aS'CA'
p122
aF24.217
aF2.785
aF6.81
aa(lp123
I76
aS'GLN'
p124
aS'C'
p125
aF23.849
aF1.299
aF6.748
aa(lp126
I76
aS'GLN'
p127
aS'O'
p128
aF22.798
aF0.914
aF6.276
aa(lp129
I76
aS'GLN'
p130
aS'H'
p131
aF22.662
aF3.572
aF5.924
aa(lp132
I77
aS'ALA'
p133
aS'N'
p134
aF24.765
aF0.524
aF7.283
aa(lp135
I77
aS'ALA'
p136
aS'CA'
p137
aF24.765
aF-0.927
aF7.194
aa(lp138
I77
aS'ALA'
p139
aS'C'
p140
aF25.014
aF-1.543
aF8.556
aa(lp141
I77
aS'ALA'
p142
aS'O'
p143
aF25.564
aF-0.924
aF9.466
aa(lp144
I77
aS'ALA'
p145
aS'H'
p146
aF25.433
aF0.835
aF7.727
aa(lp147
I78
aS'TYR'
p148
aS'N'
p149
aF24.615
aF-2.816
aF8.69
aa(lp150
I78
aS'TYR'
p151
aS'CA'
p152
aF24.803
aF-3.579
aF9.891
aa(lp153
I78
aS'TYR'
p154
aS'C'
p155
aF24.877
aF-5.066
aF9.524
aa(lp156
I78
aS'TYR'
p157
aS'O'
p158
aF24.081
aF-5.525
aF8.721
aa(lp159
I78
aS'TYR'
p160
aS'H'
p161
aF24.221
aF-3.253
aF8.063
aa(lp162
I79
aS'SER'
p163
aS'N'
p164
aF25.83
aF-5.781
aF10.118
aa(lp165
I79
aS'SER'
p166
aS'CA'
p167
aF26.082
aF-7.178
aF9.785
aa(lp168
I79
aS'SER'
p169
aS'C'
p170
aF25.863
aF-8.107
aF10.968
aa(lp171
I79
aS'SER'
p172
aS'O'
p173
aF26.131
aF-7.766
aF12.148
aa(lp174
I79
aS'SER'
p175
aS'H'
p176
aF26.349
aF-5.467
aF10.727
aa(lp177
I80
aS'LEU'
p178
aS'N'
p179
aF25.49
aF-9.335
aF10.647
aa(lp180
I80
aS'LEU'
p181
aS'CA'
p182
aF25.437
aF-10.442
aF11.589
aa(lp183
I80
aS'LEU'
p184
aS'C'
p185
aF26.037
aF-11.665
aF10.917
aa(lp186
I80
aS'LEU'
p187
aS'O'
p188
aF25.759
aF-11.951
aF9.735
aa(lp189
I80
aS'LEU'
p190
aS'H'
p191
aF25.253
aF-9.555
aF9.85
aa(lp192
I81
aS'THR'
p193
aS'N'
p194
aF26.866
aF-12.418
aF11.642
aa(lp195
I81
aS'THR'
p196
aS'CA'
p197
aF27.463
aF-13.647
aF11.145
aa(lp198
I81
aS'THR'
p199
aS'C'
p200
aF26.752
aF-14.81
aF11.829
aa(lp201
I81
aS'THR'
p202
aS'O'
p203
aF26.772
aF-14.927
aF13.057
aa(lp204
I81
aS'THR'
p205
aS'H'
p206
aF27.097
aF-12.222
aF12.447
aa(lp207
I82
aS'PHE'
p208
aS'N'
p209
aF26.093
aF-15.656
aF11.036
aa(lp210
I82
aS'PHE'
p211
aS'CA'
p212
aF25.257
aF-16.745
aF11.55
aa(lp213
I82
aS'PHE'
p214
aS'C'
p215
aF26.097
aF-18.016
aF11.717
aa(lp216
I82
aS'PHE'
p217
aS'O'
p218
aF26.753
aF-18.426
aF10.75
aa(lp219
I82
aS'PHE'
p220
aS'H'
p221
aF26.118
aF-15.614
aF10.177
aaaaa(lp222
S'seq_filter'
p223
aS'DTVTWINQAYSLTF'
p224
aF42.857142857142854
aF3.5
aa(lp225
S'contacts_filter'
p226
aI20
aF55.00000000000001
aa(lp227
S'PCS_filter'
p228
a(lp229
(lp230
I0
aF0.03603950331518185
a(lp231
(lp232
cnumpy.core.multiarray
scalar
p233
(cnumpy
dtype
p234
(S'f8'
p235
I0
I1
tp236
Rp237
(I3
S'<'
p238
NNNI-1
I-1
I0
tp239
bS"\xefRV\x1bE\xa5'@"
p240
tp241
Rp242
ag233
(g237
S'\xcb\x0e\xe9\x11 4\x1d@'
p243
tp244
Rp245
aa(lp246
g233
(g237
S'(\xeb\xd7^\t\xba3\xc0'
p247
tp248
Rp249
ag233
(g237
S'op\x96\xd9\xe2T(\xc0'
p250
tp251
Rp252
aaaa(lp253
I1
aF0.0009303705698561454
a(lp254
(lp255
g233
(g237
S'\xeb E\xb9\\\x94\x1e@'
p256
tp257
Rp258
ag233
(g237
S';\xef@b\x95\xdc\x0c@'
p259
tp260
Rp261
aa(lp262
g233
(g237
S'@+\xdb~Z\xc3\x15@'
p263
tp264
Rp265
ag233
(g237
S'F\x17\xaa\x88\xc2B\x04@'
p266
tp267
Rp268
aaaaaa(lp269
S'smotif_def'
p270
a(lp271
(lp272
S'strand'
p273
aI7
aI4
aI6
aI89
aI95
aa(lp274
g273
aI7
aI4
aI6
aI102
aI108
aaaaa(lp275
(lp276
(lp277
(lp278
S'2ov0A00'
p279
aS'41'
p280
aS'47'
p281
aS'76'
p282
aS'82'
p283
aa(lp284
(lp285
I41
aS'ASP'
p286
aS'N'
p287
aF28.591
aF-17.548
aF7.067
aa(lp288
I41
aS'ASP'
p289
aS'CA'
p290
aF28.383
aF-16.364
aF6.257
aa(lp291
I41
aS'ASP'
p292
aS'C'
p293
aF28.091
aF-15.136
aF7.15
aa(lp294
I41
aS'ASP'
p295
aS'O'
p296
aF27.492
aF-15.217
aF8.184
aa(lp297
I41
aS'ASP'
p298
aS'H'
p299
aF27.953
aF-18.125
aF7.054
aa(lp300
I42
aS'THR'
p301
aS'N'
p302
aF28.543
aF-14.007
aF6.626
aa(lp303
I42
aS'THR'
p304
aS'CA'
p305
aF28.216
aF-12.704
aF7.172
aa(lp306
I42
aS'THR'
p307
aS'C'
p308
aF27.089
aF-12.094
aF6.338
aa(lp309
I42
aS'THR'
p310
aS'O'
p311
aF27.23
aF-11.949
aF5.118
aa(lp312
I42
aS'THR'
p313
aS'H'
p314
aF29.054
aF-13.977
aF5.935
aa(lp315
I43
aS'VAL'
p316
aS'N'
p317
aF25.978
aF-11.764
aF6.996
aa(lp318
I43
aS'VAL'
p319
aS'CA'
p320
aF24.876
aF-11.046
aF6.377
aa(lp321
I43
aS'VAL'
p322
aS'C'
p323
aF25.026
aF-9.574
aF6.765
aa(lp324
I43
aS'VAL'
p325
aS'O'
p326
aF25.274
aF-9.255
aF7.94
aa(lp327
I43
aS'VAL'
p328
aS'H'
p329
aF25.846
aF-11.955
aF7.824
aa(lp330
I44
aS'THR'
p331
aS'N'
p332
aF24.871
aF-8.711
aF5.774
aa(lp333
I44
aS'THR'
p334
aS'CA'
p335
aF24.975
aF-7.284
aF6.022
aa(lp336
I44
aS'THR'
p337
aS'C'
p338
aF23.708
aF-6.61
aF5.498
aa(lp339
I44
aS'THR'
p340
aS'O'
p341
aF23.398
aF-6.719
aF4.31
aa(lp342
I44
aS'THR'
p343
aS'H'
p344
aF24.707
aF-8.928
aF4.958
aa(lp345
I45
aS'TRP'
p346
aS'N'
p347
aF23.008
aF-5.933
aF6.395
aa(lp348
I45
aS'TRP'
p349
aS'CA'
p350
aF21.877
aF-5.116
aF6.015
aa(lp351
I45
aS'TRP'
p352
aS'C'
p353
aF22.406
aF-3.719
aF5.692
aa(lp354
I45
aS'TRP'
p355
aS'O'
p356
aF23.272
aF-3.202
aF6.407
aa(lp357
I45
aS'TRP'
p358
aS'H'
p359
aF23.177
aF-5.936
aF7.238
aa(lp360
I46
aS'ILE'
p361
aS'N'
p362
aF21.859
aF-3.124
aF4.624
aa(lp363
I46
aS'ILE'
p364
aS'CA'
p365
aF22.224
aF-1.767
aF4.245
aa(lp366
I46
aS'ILE'
p367
aS'C'
p368
aF20.934
aF-0.968
aF4.116
aa(lp369
I46
aS'ILE'
p370
aS'O'
p371
aF20.073
aF-1.324
aF3.303
aa(lp372
I46
aS'ILE'
p373
aS'H'
p374
aF21.276
aF-3.494
aF4.111
aa(lp375
I47
aS'ASN'
p376
aS'N'
p377
aF20.812
aF0.095
aF4.899
aa(lp378
I47
aS'ASN'
p379
aS'CA'
p380
aF19.647
aF0.958
aF4.783
aa(lp381
I47
aS'ASN'
p382
aS'C'
p383
aF19.843
aF1.903
aF3.607
aa(lp384
I47
aS'ASN'
p385
aS'O'
p386
aF20.79
aF2.677
aF3.57
aa(lp387
I47
aS'ASN'
p388
aS'H'
p389
aF21.384
aF0.332
aF5.496
aaa(lp390
(lp391
I76
aS'GLN'
p392
aS'N'
p393
aF23.866
aF3.558
aF5.903
aa(lp394
I76
aS'GLN'
p395
aS'CA'
p396
aF24.569
aF2.819
aF6.918
aa(lp397
I76
aS'GLN'
p398
aS'C'
p399
aF24.192
aF1.329
aF6.844
aa(lp400
I76
aS'GLN'
p401
aS'O'
p402
aF23.181
aF0.953
aF6.245
aa(lp403
I76
aS'GLN'
p404
aS'H'
p405
aF23.027
aF3.658
aF6.063
aa(lp406
I77
aS'ALA'
p407
aS'N'
p408
aF25.021
aF0.526
aF7.479
aa(lp409
I77
aS'ALA'
p410
aS'CA'
p411
aF24.996
aF-0.917
aF7.342
aa(lp412
I77
aS'ALA'
p413
aS'C'
p414
aF25.335
aF-1.561
aF8.684
aa(lp415
I77
aS'ALA'
p416
aS'O'
p417
aF25.914
aF-0.941
aF9.578
aa(lp418
I77
aS'ALA'
p419
aS'H'
p420
aF25.63
aF0.81
aF8.016
aa(lp421
I78
aS'TYR'
p422
aS'N'
p423
aF24.973
aF-2.848
aF8.796
aa(lp424
I78
aS'TYR'
p425
aS'CA'
p426
aF25.182
aF-3.59
aF10.016
aa(lp427
I78
aS'TYR'
p428
aS'C'
p429
aF25.273
aF-5.071
aF9.663
aa(lp430
I78
aS'TYR'
p431
aS'O'
p432
aF24.491
aF-5.545
aF8.827
aa(lp433
I78
aS'TYR'
p434
aS'H'
p435
aF24.603
aF-3.3
aF8.164
aa(lp436
I79
aS'SER'
p437
aS'N'
p438
aF26.189
aF-5.796
aF10.301
aa(lp439
I79
aS'SER'
p440
aS'CA'
p441
aF26.448
aF-7.188
aF9.979
aa(lp442
I79
aS'SER'
p443
aS'C'
p444
aF26.216
aF-8.134
aF11.141
aa(lp445
I79
aS'SER'
p446
aS'O'
p447
aF26.474
aF-7.813
aF12.314
aa(lp448
I79
aS'SER'
p449
aS'H'
p450
aF26.679
aF-5.488
aF10.937
aa(lp451
I80
aS'LEU'
p452
aS'N'
p453
aF25.862
aF-9.365
aF10.782
aa(lp454
I80
aS'LEU'
p455
aS'CA'
p456
aF25.861
aF-10.503
aF11.705
aa(lp457
I80
aS'LEU'
p458
aS'C'
p459
aF26.51
aF-11.673
aF10.98
aa(lp460
I80
aS'LEU'
p461
aS'O'
p462
aF26.207
aF-11.931
aF9.814
aa(lp463
I80
aS'LEU'
p464
aS'H'
p465
aF25.612
aF-9.568
aF9.985
aa(lp466
I81
aS'THR'
p467
aS'N'
p468
aF27.358
aF-12.415
aF11.697
aa(lp469
I81
aS'THR'
p470
aS'CA'
p471
aF27.992
aF-13.609
aF11.149
aa(lp472
I81
aS'THR'
p473
aS'C'
p474
aF27.343
aF-14.819
aF11.816
aa(lp475
I81
aS'THR'
p476
aS'O'
p477
aF27.443
aF-14.976
aF13.03
aa(lp478
I81
aS'THR'
p479
aS'H'
p480
aF27.579
aF-12.239
aF12.509
aa(lp481
I82
aS'PHE'
p482
aS'N'
p483
aF26.675
aF-15.65
aF11.028
aa(lp484
I82
aS'PHE'
p485
aS'CA'
p486
aF25.87
aF-16.742
aF11.581
aa(lp487
I82
aS'PHE'
p488
aS'C'
p489
aF26.73
aF-17.99
aF11.748
aa(lp490
I82
aS'PHE'
p491
aS'O'
p492
aF27.448
aF-18.392
aF10.853
aa(lp493
I82
aS'PHE'
p494
aS'H'
p495
aF26.672
aF-15.603
aF10.169
aaaaa(lp496
g223
aS'DTVTWINQAYSLTF'
p497
aF42.857142857142854
aF3.5
aa(lp498
g226
aI20
aF55.00000000000001
aa(lp499
g228
a(lp500
(lp501
I0
aF0.03361507135058865
a(lp502
(lp503
g233
(g237
S'\x9ee\xcf\x16\x06R\x11@'
p504
tp505
Rp506
ag233
(g237
S'\xe61\xd25\xba\xf9\xe8?'
p507
tp508
Rp509
aa(lp510
g233
(g237
S'\x04m\xca\xcdxE\x1f\xc0'
p511
tp512
Rp513
ag233
(g237
S'\xdc4\xa2`C\xfb\xf9\xbf'
p514
tp515
Rp516
aaaa(lp517
I1
aF0.000899402068253126
a(lp518
(lp519
g233
(g237
S'\xf6\x91/i\xed\x86$@'
p520
tp521
Rp522
ag233
(g237
S'\xdaK\xae\x1a#!\x14@'
p523
tp524
Rp525
aa(lp526
g233
(g237
S'\x95\x90OX%v\x1c@'
p527
tp528
Rp529
ag233
(g237
S'Cr\xb7\xad\xbd<\x0b@'
p530
tp531
Rp532
aaaaaa(lp533
g270
a(lp534
g272
ag274
aaaa(lp535
(lp536
(lp537
(lp538
S'2qdvA00'
p539
aS'41'
p540
aS'47'
p541
aS'76'
p542
aS'82'
p543
aa(lp544
(lp545
I41
aS'ASP'
p546
aS'N'
p547
aF28.095
aF-17.635
aF7.06
aa(lp548
I41
aS'ASP'
p549
aS'CA'
p550
aF27.844
aF-16.47
aF6.246
aa(lp551
I41
aS'ASP'
p552
aS'C'
p553
aF27.555
aF-15.249
aF7.12
aa(lp554
I41
aS'ASP'
p555
aS'O'
p556
aF26.931
aF-15.334
aF8.169
aa(lp557
I41
aS'ASP'
p558
aS'H'
p559
aF27.459
aF-18.214
aF7.075
aa(lp560
I42
aS'THR'
p561
aS'N'
p562
aF28.005
aF-14.108
aF6.609
aa(lp563
I42
aS'THR'
p564
aS'CA'
p565
aF27.663
aF-12.807
aF7.187
aa(lp566
I42
aS'THR'
p567
aS'C'
p568
aF26.529
aF-12.166
aF6.37
aa(lp569
I42
aS'THR'
p570
aS'O'
p571
aF26.685
aF-12.026
aF5.15
aa(lp572
I42
aS'THR'
p573
aS'H'
p574
aF28.516
aF-14.063
aF5.919
aa(lp575
I43
aS'VAL'
p576
aS'N'
p577
aF25.456
aF-11.826
aF7.056
aa(lp578
I43
aS'VAL'
p579
aS'CA'
p580
aF24.338
aF-11.109
aF6.466
aa(lp581
I43
aS'VAL'
p582
aS'C'
p583
aF24.509
aF-9.648
aF6.857
aa(lp584
I43
aS'VAL'
p585
aS'O'
p586
aF24.769
aF-9.336
aF8.017
aa(lp587
I43
aS'VAL'
p588
aS'H'
p589
aF25.352
aF-12.006
aF7.89
aa(lp590
I44
aS'THR'
p591
aS'N'
p592
aF24.346
aF-8.75
aF5.871
aa(lp593
I44
aS'THR'
p594
aS'CA'
p595
aF24.448
aF-7.336
aF6.105
aa(lp596
I44
aS'THR'
p597
aS'C'
p598
aF23.182
aF-6.644
aF5.632
aa(lp599
I44
aS'THR'
p600
aS'O'
p601
aF22.847
aF-6.724
aF4.455
aa(lp602
I44
aS'THR'
p603
aS'H'
p604
aF24.174
aF-8.962
aF5.055
aa(lp605
I45
aS'TRP'
p606
aS'N'
p607
aF22.502
aF-5.979
aF6.564
aa(lp608
I45
aS'TRP'
p609
aS'CA'
p610
aF21.36
aF-5.155
aF6.212
aa(lp611
I45
aS'TRP'
p612
aS'C'
p613
aF21.856
aF-3.738
aF5.923
aa(lp614
I45
aS'TRP'
p615
aS'O'
p616
aF22.759
aF-3.24
aF6.616
aa(lp617
I45
aS'TRP'
p618
aS'H'
p619
aF22.689
aF-5.995
aF7.403
aa(lp620
I46
aS'ILE'
p621
aS'N'
p622
aF21.255
aF-3.089
aF4.913
aa(lp623
I46
aS'ILE'
p624
aS'CA'
p625
aF21.629
aF-1.742
aF4.545
aa(lp626
I46
aS'ILE'
p627
aS'C'
p628
aF20.363
aF-0.887
aF4.483
aa(lp629
I46
aS'ILE'
p630
aS'O'
p631
aF19.448
aF-1.191
aF3.685
aa(lp632
I46
aS'ILE'
p633
aS'H'
p634
aF20.625
aF-3.426
aF4.434
aa(lp635
I47
aS'ASN'
p636
aS'N'
p637
aF20.299
aF0.153
aF5.299
aa(lp638
I47
aS'ASN'
p639
aS'CA'
p640
aF19.144
aF1.051
aF5.267
aa(lp641
I47
aS'ASN'
p642
aS'C'
p643
aF19.286
aF2.06
aF4.136
aa(lp644
I47
aS'ASN'
p645
aS'O'
p646
aF20.257
aF2.821
aF4.108
aa(lp647
I47
aS'ASN'
p648
aS'H'
p649
aF20.904
aF0.359
aF5.875
aaa(lp650
(lp651
I76
aS'GLN'
p652
aS'N'
p653
aF23.471
aF3.514
aF6.173
aa(lp654
I76
aS'GLN'
p655
aS'CA'
p656
aF24.212
aF2.731
aF7.11
aa(lp657
I76
aS'GLN'
p658
aS'C'
p659
aF23.817
aF1.254
aF7.04
aa(lp660
I76
aS'GLN'
p661
aS'O'
p662
aF22.762
aF0.885
aF6.536
aa(lp663
I76
aS'GLN'
p664
aS'H'
p665
aF22.658
aF3.653
aF6.417
aa(lp666
I77
aS'ALA'
p667
aS'N'
p668
aF24.707
aF0.413
aF7.585
aa(lp669
I77
aS'ALA'
p670
aS'CA'
p671
aF24.647
aF-1.005
aF7.464
aa(lp672
I77
aS'ALA'
p673
aS'C'
p674
aF24.966
aF-1.662
aF8.817
aa(lp675
I77
aS'ALA'
p676
aS'O'
p677
aF25.61
aF-1.056
aF9.693
aa(lp678
I77
aS'ALA'
p679
aS'H'
p680
aF25.379
aF0.685
aF8.048
aa(lp681
I78
aS'TYR'
p682
aS'N'
p683
aF24.567
aF-2.934
aF8.938
aa(lp684
I78
aS'TYR'
p685
aS'CA'
p686
aF24.771
aF-3.71
aF10.156
aa(lp687
I78
aS'TYR'
p688
aS'C'
p689
aF24.861
aF-5.171
aF9.786
aa(lp690
I78
aS'TYR'
p691
aS'O'
p692
aF24.052
aF-5.638
aF8.966
aa(lp693
I78
aS'TYR'
p694
aS'H'
p695
aF24.17
aF-3.368
aF8.311
aa(lp696
I79
aS'SER'
p697
aS'N'
p698
aF25.783
aF-5.914
aF10.389
aa(lp699
I79
aS'SER'
p700
aS'CA'
p701
aF26.029
aF-7.291
aF10.048
aa(lp702
I79
aS'SER'
p703
aS'C'
p704
aF25.816
aF-8.266
aF11.202
aa(lp705
I79
aS'SER'
p706
aS'O'
p707
aF26.102
aF-7.942
aF12.374
aa(lp708
I79
aS'SER'
p709
aS'H'
p710
aF26.288
aF-5.618
aF11.019
aa(lp711
I80
aS'LEU'
p712
aS'N'
p713
aF25.415
aF-9.486
aF10.847
aa(lp714
I80
aS'LEU'
p715
aS'CA'
p716
aF25.433
aF-10.62
aF11.771
aa(lp717
I80
aS'LEU'
p718
aS'C'
p719
aF26.063
aF-11.791
aF11.014
aa(lp720
I80
aS'LEU'
p721
aS'O'
p722
aF25.725
aF-12.057
aF9.864
aa(lp723
I80
aS'LEU'
p724
aS'H'
p725
aF25.124
aF-9.68
aF10.061
aa(lp726
I81
aS'THR'
p727
aS'N'
p728
aF26.961
aF-12.508
aF11.704
aa(lp729
I81
aS'THR'
p730
aS'CA'
p731
aF27.58
aF-13.706
aF11.141
aa(lp732
I81
aS'THR'
p733
aS'C'
p734
aF26.919
aF-14.921
aF11.804
aa(lp735
I81
aS'THR'
p736
aS'O'
p737
aF27.017
aF-15.1
aF13.019
aa(lp738
I81
aS'THR'
p739
aS'H'
p740
aF27.222
aF-12.313
aF12.5
aa(lp741
I82
aS'PHE'
p742
aS'N'
p743
aF26.214
aF-15.717
aF11.015
aa(lp744
I82
aS'PHE'
p745
aS'CA'
p746
aF25.432
aF-16.821
aF11.57
aa(lp747
I82
aS'PHE'
p748
aS'C'
p749
aF26.325
aF-18.046
aF11.716
aa(lp750
I82
aS'PHE'
p751
aS'O'
p752
aF27.02
aF-18.433
aF10.767
aa(lp753
I82
aS'PHE'
p754
aS'H'
p755
aF26.172
aF-15.639
aF10.16
aaaaa(lp756
g223
aS'DTVTWINQAYSLTF'
p757
aF42.857142857142854
aF3.5
aa(lp758
g226
aI20
aF55.00000000000001
aa(lp759
g228
a(lp760
(lp761
I0
aF0.03413175578167912
a(lp762
(lp763
g233
(g237
S'&\x973fu:2@'
p764
tp765
Rp766
ag233
(g237
S'F#[\x90m\x9e#@'
p767
tp768
Rp769
aa(lp770
g233
(g237
S'\xca\xbd\xbe\xce\x06\x85>\xc0'
p771
tp772
Rp773
ag233
(g237
S']&\xd8\x1d\x89\xa70\xc0'
p774
tp775
Rp776
aaaa(lp777
I1
aF0.000981936407858459
a(lp778
(lp779
g233
(g237
S'\x0c\xb2\xb4\n\xbf\n$@'
p780
tp781
Rp782
ag233
(g237
S'\x87\xd4\xb7TOr\x13@'
p783
tp784
Rp785
aa(lp786
g233
(g237
S'\xf2\xa0\x05\xf4\xee\xae\x1b@'
p787
tp788
Rp789
ag233
(g237
S'\x00\xf55\x93Y\x1e\n@'
p790
tp791
Rp792
aaaaaa(lp793
g270
a(lp794
g272
ag274
aaaa(lp795
(lp796
(lp797
(lp798
S'1sfdA00'
p799
aS'41'
p800
aS'47'
p801
aS'76'
p802
aS'82'
p803
aa(lp804
(lp805
I41
aS'ASP'
p806
aS'N'
p807
aF20.707
aF17.11
aF6.617
aa(lp808
I41
aS'ASP'
p809
aS'CA'
p810
aF19.689
aF16.806
aF7.602
aa(lp811
I41
aS'ASP'
p812
aS'C'
p813
aF20.25
aF16.668
aF8.994
aa(lp814
I41
aS'ASP'
p815
aS'O'
p816
aF21.347
aF16.167
aF9.201
aa(lp817
I41
aS'ASP'
p818
aS'H'
p819
aF20.915
aF16.456
aF6.099
aa(lp820
I42
aS'THR'
p821
aS'N'
p822
aF19.412
aF17.051
aF9.981
aa(lp823
I42
aS'THR'
p824
aS'CA'
p825
aF19.656
aF16.789
aF11.392
aa(lp826
I42
aS'THR'
p827
aS'C'
p828
aF18.805
aF15.6
aF11.863
aa(lp829
I42
aS'THR'
p830
aS'O'
p831
aF17.609
aF15.537
aF11.54
aa(lp832
I42
aS'THR'
p833
aS'H'
p834
aF18.679
aF17.476
aF9.833
aa(lp835
I43
aS'VAL'
p836
aS'N'
p837
aF19.437
aF14.673
aF12.551
aa(lp838
I43
aS'VAL'
p839
aS'CA'
p840
aF18.784
aF13.513
aF13.173
aa(lp841
I43
aS'VAL'
p842
aS'C'
p843
aF18.789
aF13.751
aF14.671
aa(lp844
I43
aS'VAL'
p845
aS'O'
p846
aF19.834
aF14.13
aF15.233
aa(lp847
I43
aS'VAL'
p848
aS'H'
p849
aF20.287
aF14.691
aF12.68
aa(lp850
I44
aS'THR'
p851
aS'N'
p852
aF17.662
aF13.461
aF15.33
aa(lp853
I44
aS'THR'
p854
aS'CA'
p855
aF17.565
aF13.553
aF16.756
aa(lp856
I44
aS'THR'
p857
aS'C'
p858
aF17.137
aF12.203
aF17.337
aa(lp859
I44
aS'THR'
p860
aS'O'
p861
aF16.096
aF11.655
aF16.962
aa(lp862
I44
aS'THR'
p863
aS'H'
p864
aF16.937
aF13.205
aF14.944
aa(lp865
I45
aS'TRP'
p866
aS'N'
p867
aF17.963
aF11.652
aF18.232
aa(lp868
I45
aS'TRP'
p869
aS'CA'
p870
aF17.625
aF10.468
aF18.966
aa(lp871
I45
aS'TRP'
p872
aS'C'
p873
aF16.932
aF10.849
aF20.262
aa(lp874
I45
aS'TRP'
p875
aS'O'
p876
aF17.326
aF11.841
aF20.904
aa(lp877
I45
aS'TRP'
p878
aS'H'
p879
aF18.739
aF11.97
aF18.42
aa(lp880
I46
aS'ILE'
p881
aS'N'
p882
aF15.924
aF10.113
aF20.66
aa(lp883
I46
aS'ILE'
p884
aS'CA'
p885
aF15.222
aF10.359
aF21.931
aa(lp886
I46
aS'ILE'
p887
aS'C'
p888
aF15.16
aF9.019
aF22.686
aa(lp889
I46
aS'ILE'
p890
aS'O'
p891
aF14.609
aF8.038
aF22.189
aa(lp892
I46
aS'ILE'
p893
aS'H'
p894
aF15.613
aF9.449
aF20.21
aa(lp895
I47
aS'ASN'
p896
aS'N'
p897
aF15.721
aF8.991
aF23.888
aa(lp898
I47
aS'ASN'
p899
aS'CA'
p900
aF15.591
aF7.83
aF24.727
aa(lp901
I47
aS'ASN'
p902
aS'C'
p903
aF14.165
aF7.837
aF25.344
aa(lp904
I47
aS'ASN'
p905
aS'O'
p906
aF13.817
aF8.795
aF26.037
aa(lp907
I47
aS'ASN'
p908
aS'H'
p909
aF16.178
aF9.635
aF24.228
aaa(lp910
(lp911
I76
aS'GLN'
p912
aS'N'
p913
aF15.19
aF12.216
aF27.224
aa(lp914
I76
aS'GLN'
p915
aS'CA'
p916
aF16.278
aF13.095
aF26.798
aa(lp917
I76
aS'GLN'
p918
aS'C'
p919
aF16.622
aF12.816
aF25.34
aa(lp920
I76
aS'GLN'
p921
aS'O'
p922
aF16.477
aF11.686
aF24.886
aa(lp923
I76
aS'GLN'
p924
aS'H'
p925
aF15.421
aF11.392
aF27.311
aa(lp926
I77
aS'ALA'
p927
aS'N'
p928
aF17.081
aF13.857
aF24.659
aa(lp929
I77
aS'ALA'
p930
aS'CA'
p931
aF17.363
aF13.875
aF23.244
aa(lp932
I77
aS'ALA'
p933
aS'C'
p934
aF18.783
aF14.316
aF22.935
aa(lp935
I77
aS'ALA'
p936
aS'O'
p937
aF19.415
aF15.019
aF23.74
aa(lp938
I77
aS'ALA'
p939
aS'H'
p940
aF17.244
aF14.612
aF25.037
aa(lp941
I78
aS'TYR'
p942
aS'N'
p943
aF19.255
aF13.946
aF21.746
aa(lp944
I78
aS'TYR'
p945
aS'CA'
p946
aF20.568
aF14.295
aF21.292
aa(lp947
I78
aS'TYR'
p948
aS'C'
p949
aF20.564
aF14.294
aF19.769
aa(lp950
I78
aS'TYR'
p951
aS'O'
p952
aF19.977
aF13.38
aF19.188
aa(lp953
I78
aS'TYR'
p954
aS'H'
p955
aF18.804
aF13.479
aF21.182
aa(lp956
I79
aS'SER'
p957
aS'N'
p958
aF21.218
aF15.275
aF19.151
aa(lp959
I79
aS'SER'
p960
aS'CA'
p961
aF21.151
aF15.465
aF17.715
aa(lp962
I79
aS'SER'
p963
aS'C'
p964
aF22.513
aF15.481
aF17.032
aa(lp965
I79
aS'SER'
p966
aS'O'
p967
aF23.524
aF15.901
aF17.607
aa(lp968
I79
aS'SER'
p969
aS'H'
p970
aF21.713
aF15.848
aF19.559
aa(lp971
I80
aS'LEU'
p972
aS'N'
p973
aF22.519
aF15.09
aF15.769
aa(lp974
I80
aS'LEU'
p975
aS'CA'
p976
aF23.678
aF15.265
aF14.868
aa(lp977
I80
aS'LEU'
p978
aS'C'
p979
aF23.202
aF15.748
aF13.536
aa(lp980
I80
aS'LEU'
p981
aS'O'
p982
aF22.183
aF15.285
aF13.033
aa(lp983
I80
aS'LEU'
p984
aS'H'
p985
aF21.846
aF14.708
aF15.393
aa(lp986
I81
aS'THR'
p987
aS'N'
p988
aF23.962
aF16.669
aF12.939
aa(lp989
I81
aS'THR'
p990
aS'CA'
p991
aF23.683
aF17.168
aF11.605
aa(lp992
I81
aS'THR'
p993
aS'C'
p994
aF24.708
aF16.605
aF10.618
aa(lp995
I81
aS'THR'
p996
aS'O'
p997
aF25.915
aF16.818
aF10.807
aa(lp998
I81
aS'THR'
p999
aS'H'
p1000
aF24.657
aF17.02
aF13.305
aa(lp1001
I82
aS'PHE'
p1002
aS'N'
p1003
aF24.255
aF15.846
aF9.637
aa(lp1004
I82
aS'PHE'
p1005
aS'CA'
p1006
aF25.131
aF15.093
aF8.751
aa(lp1007
I82
aS'PHE'
p1008
aS'C'
p1009
aF25.436
aF15.906
aF7.518
aa(lp1010
I82
aS'PHE'
p1011
aS'O'
p1012
aF24.522
aF16.269
aF6.793
aa(lp1013
I82
aS'PHE'
p1014
aS'H'
p1015
aF23.418
aF15.75
aF9.462
aaaaa(lp1016
g223
aS'DTVTWINQAYSLTF'
p1017
aF42.857142857142854
aF3.5
aa(lp1018
g226
aI20
aF55.00000000000001
aa(lp1019
g228
a(lp1020
(lp1021
I0
aF0.03304998424793691
a(lp1022
(lp1023
g233
(g237
S'.e\x95\xc7\x99wB@'
p1024
tp1025
Rp1026
ag233
(g237
S'$-\x1e\x9a\xf76(@'
p1027
tp1028
Rp1029
aa(lp1030
g233
(g237
S'\xd8\xcf\x0c;5wQ\xc0'
p1031
tp1032
Rp1033
ag233
(g237
S'R\xb0q\x13\x95\xb69\xc0'
p1034
tp1035
Rp1036
aaaa(lp1037
I1
aF0.000897340394104831
a(lp1038
(lp1039
g233
(g237
S'\xfcV\x1bK\xe7\xa6d@'
p1040
tp1041
Rp1042
ag233
(g237
S'\xf0\x19\x13\xf42\xaaU@'
p1043
tp1044
Rp1045
aa(lp1046
g233
(g237
S'\xfc\xf0\xacBICF@'
p1047
tp1048
Rp1049
ag233
(g237
S'o\xc4\xd4[\xa0\xef/@'
p1050
tp1051
Rp1052
aaaaaa(lp1053
g270
a(lp1054
g272
ag274
aaaa(lp1055
(lp1056
(lp1057
(lp1058
S'3ie9A00'
p1059
aS'41'
p1060
aS'47'
p1061
aS'76'
p1062
aS'82'
p1063
aa(lp1064
(lp1065
I41
aS'ASP'
p1066
aS'N'
p1067
aF-39.016
aF-0.051
aF-3.704
aa(lp1068
I41
aS'ASP'
p1069
aS'CA'
p1070
aF-38.437
aF1.158
aF-3.12
aa(lp1071
I41
aS'ASP'
p1072
aS'C'
p1073
aF-39.518
aF2.173
aF-2.766
aa(lp1074
I41
aS'ASP'
p1075
aS'O'
p1076
aF-40.475
aF2.364
aF-3.519
aa(lp1077
I41
aS'ASP'
p1078
aS'H'
p1079
aF-38.879
aF-0.141
aF-4.548
aa(lp1080
I42
aS'THR'
p1081
aS'N'
p1082
aF-39.348
aF2.831
aF-1.628
aa(lp1083
I42
aS'THR'
p1084
aS'CA'
p1085
aF-40.262
aF3.89
aF-1.208
aa(lp1086
I42
aS'THR'
p1087
aS'C'
p1088
aF-39.636
aF5.248
aF-1.494
aa(lp1089
I42
aS'THR'
p1090
aS'O'
p1091
aF-38.525
aF5.531
aF-1.038
aa(lp1092
I42
aS'THR'
p1093
aS'H'
p1094
aF-38.704
aF2.68
aF-1.078
aa(lp1095
I43
aS'VAL'
p1096
aS'N'
p1097
aF-40.355
aF6.076
aF-2.254
aa(lp1098
I43
aS'VAL'
p1099
aS'CA'
p1100
aF-39.882
aF7.401
aF-2.634
aa(lp1101
I43
aS'VAL'
p1102
aS'C'
p1103
aF-40.61
aF8.456
aF-1.808
aa(lp1104
I43
aS'VAL'
p1105
aS'O'
p1106
aF-41.826
aF8.397
aF-1.638
aa(lp1107
I43
aS'VAL'
p1108
aS'H'
p1109
aF-41.133
aF5.881
aF-2.563
aa(lp1110
I44
aS'THR'
p1111
aS'N'
p1112
aF-39.871
aF9.424
aF-1.289
aa(lp1113
I44
aS'THR'
p1114
aS'CA'
p1115
aF-40.486
aF10.473
aF-0.489
aa(lp1116
I44
aS'THR'
p1117
aS'C'
p1118
aF-40.192
aF11.83
aF-1.108
aa(lp1119
I44
aS'THR'
p1120
aS'O'
p1121
aF-39.029
aF12.172
aF-1.338
aa(lp1122
I44
aS'THR'
p1123
aS'H'
p1124
aF-39.019
aF9.493
aF-1.386
aa(lp1125
I45
aS'TRP'
p1126
aS'N'
p1127
aF-41.248
aF12.582
aF-1.409
aa(lp1128
I45
aS'TRP'
p1129
aS'CA'
p1130
aF-41.104
aF13.965
aF-1.849
aa(lp1131
I45
aS'TRP'
p1132
aS'C'
p1133
aF-41.193
aF14.886
aF-0.649
aa(lp1134
I45
aS'TRP'
p1135
aS'O'
p1136
aF-42.054
aF14.712
aF0.217
aa(lp1137
I45
aS'TRP'
p1138
aS'H'
p1139
aF-42.062
aF12.307
aF-1.364
aa(lp1140
I46
aS'ILE'
p1141
aS'N'
p1142
aF-40.301
aF15.867
aF-0.6
aa(lp1143
I46
aS'ILE'
p1144
aS'CA'
p1145
aF-40.316
aF16.858
aF0.465
aa(lp1146
I46
aS'ILE'
p1147
aS'C'
p1148
aF-40.391
aF18.269
aF-0.103
aa(lp1149
I46
aS'ILE'
p1150
aS'O'
p1151
aF-39.547
aF18.669
aF-0.893
aa(lp1152
I46
aS'ILE'
p1153
aS'H'
p1154
aF-39.674
aF15.976
aF-1.179
aa(lp1155
I47
aS'ASN'
p1156
aS'N'
p1157
aF-41.402
aF19.024
aF0.3
aa(lp1158
I47
aS'ASN'
p1159
aS'CA'
p1160
aF-41.502
aF20.41
aF-0.123
aa(lp1161
I47
aS'ASN'
p1162
aS'C'
p1163
aF-40.659
aF21.305
aF0.767
aa(lp1164
I47
aS'ASN'
p1165
aS'O'
p1166
aF-40.881
aF21.373
aF1.967
aa(lp1167
I47
aS'ASN'
p1168
aS'H'
p1169
aF-42.036
aF18.755
aF0.815
aaa(lp1170
(lp1171
I76
aS'GLN'
p1172
aS'N'
p1173
aF-43.256
aF19.721
aF4.602
aa(lp1174
I76
aS'GLN'
p1175
aS'CA'
p1176
aF-44.09
aF18.527
aF4.623
aa(lp1177
I76
aS'GLN'
p1178
aS'C'
p1179
aF-43.61
aF17.53
aF3.567
aa(lp1180
I76
aS'GLN'
p1181
aS'O'
p1182
aF-42.956
aF17.91
aF2.588
aa(lp1183
I76
aS'GLN'
p1184
aS'H'
p1185
aF-43.406
aF20.253
aF3.943
aa(lp1186
I77
aS'ALA'
p1187
aS'N'
p1188
aF-43.942
aF16.259
aF3.763
aa(lp1189
I77
aS'ALA'
p1190
aS'CA'
p1191
aF-43.446
aF15.196
aF2.901
aa(lp1192
I77
aS'ALA'
p1193
aS'C'
p1194
aF-44.569
aF14.242
aF2.529
aa(lp1195
I77
aS'ALA'
p1196
aS'O'
p1197
aF-45.607
aF14.202
aF3.19
aa(lp1198
I77
aS'ALA'
p1199
aS'H'
p1200
aF-44.458
aF15.99
aF4.396
aa(lp1201
I78
aS'TYR'
p1202
aS'N'
p1203
aF-44.345
aF13.47
aF1.47
aa(lp1204
I78
aS'TYR'
p1205
aS'CA'
p1206
aF-45.333
aF12.51
aF0.998
aa(lp1207
I78
aS'TYR'
p1208
aS'C'
p1209
aF-44.612
aF11.377
aF0.286
aa(lp1210
I78
aS'TYR'
p1211
aS'O'
p1212
aF-43.707
aF11.618
aF-0.517
aa(lp1213
I78
aS'TYR'
p1214
aS'H'
p1215
aF-43.62
aF13.489
aF1.008
aa(lp1216
I79
aS'SER'
p1217
aS'N'
p1218
aF-44.992
aF10.14
aF0.594
aa(lp1219
I79
aS'SER'
p1220
aS'CA'
p1221
aF-44.283
aF8.986
aF0.059
aa(lp1222
I79
aS'SER'
p1223
aS'C'
p1224
aF-45.149
aF8.141
aF-0.86
aa(lp1225
I79
aS'SER'
p1226
aS'O'
p1227
aF-46.371
aF8.113
aF-0.711
aa(lp1228
I79
aS'SER'
p1229
aS'H'
p1230
aF-45.654
aF9.95
aF1.108
aa(lp1231
I80
aS'LEU'
p1232
aS'N'
p1233
aF-44.497
aF7.446
aF-1.797
aa(lp1234
I80
aS'LEU'
p1235
aS'CA'
p1236
aF-45.118
aF6.361
aF-2.554
aa(lp1237
I80
aS'LEU'
p1238
aS'C'
p1239
aF-44.13
aF5.208
aF-2.675
aa(lp1240
I80
aS'LEU'
p1241
aS'O'
p1242
aF-42.927
aF5.419
aF-2.799
aa(lp1243
I80
aS'LEU'
p1244
aS'H'
p1245
aF-43.677
aF7.594
aF-2.01
aa(lp1246
I81
aS'THR'
p1247
aS'N'
p1248
aF-44.654
aF3.99
aF-2.659
aa(lp1249
I81
aS'THR'
p1250
aS'CA'
p1251
aF-43.843
aF2.8
aF-2.855
aa(lp1252
I81
aS'THR'
p1253
aS'C'
p1254
aF-44.174
aF2.252
aF-4.224
aa(lp1255
I81
aS'THR'
p1256
aS'O'
p1257
aF-45.334
aF1.998
aF-4.528
aa(lp1258
I81
aS'THR'
p1259
aS'H'
p1260
aF-45.49
aF3.831
aF-2.534
aa(lp1261
I82
aS'PHE'
p1262
aS'N'
p1263
aF-43.155
aF2.095
aF-5.06
aa(lp1264
I82
aS'PHE'
p1265
aS'CA'
p1266
aF-43.359
aF1.581
aF-6.405
aa(lp1267
I82
aS'PHE'
p1268
aS'C'
p1269
aF-43.201
aF0.069
aF-6.413
aa(lp1270
I82
aS'PHE'
p1271
aS'O'
p1272
aF-42.177
aF-0.459
aF-6.009
aa(lp1273
I82
aS'PHE'
p1274
aS'H'
p1275
aF-42.338
aF2.281
aF-4.867
aaaaa(lp1276
g223
aS'DTVTWINQAYSLTF'
p1277
aF42.857142857142854
aF3.5
aa(lp1278
g226
aI20
aF55.00000000000001
aa(lp1279
g228
a(lp1280
(lp1281
I0
aF0.018293291718696494
a(lp1282
(lp1283
g233
(g237
S'bC\x0c&\xdf\xee0@'
p1284
tp1285
Rp1286
ag233
(g237
S'\xdfS\xe2x\xffE\x1e@'
p1287
tp1288
Rp1289
aa(lp1290
g233
(g237
S'\xae\x95U}\xb5\xbf>\xc0'
p1291
tp1292
Rp1293
ag233
(g237
S'\xae\xe0Z\xdd\xe1y,\xc0'
p1294
tp1295
Rp1296
aaaa(lp1297
I1
aF0.0009255554739444669
a(lp1298
(lp1299
g233
(g237
S'\xbe@E\xc5\x18\xedW@'
p1300
tp1301
Rp1302
ag233
(g237
S'\xf8R\xf4\xb4\xeeHG@'
p1303
tp1304
Rp1305
aa(lp1306
g233
(g237
S'\x18\xc9\xebN\x83b@@'
p1307
tp1308
Rp1309
ag233
(g237
S' \xb1U\xee~\xba\x1b@'
p1310
tp1311
Rp1312
aaaaaa(lp1313
g270
a(lp1314
g272
ag274
aaaa(lp1315
(lp1316
(lp1317
(lp1318
S'2idtA00'
p1319
aS'41'
p1320
aS'47'
p1321
aS'76'
p1322
aS'82'
p1323
aa(lp1324
(lp1325
I41
aS'ASP'
p1326
aS'N'
p1327
aF13.725
aF-5.627
aF7.274
aa(lp1328
I41
aS'ASP'
p1329
aS'CA'
p1330
aF13.46
aF-4.442
aF6.439
aa(lp1331
I41
aS'ASP'
p1332
aS'C'
p1333
aF13.184
aF-3.24
aF7.312
aa(lp1334
I41
aS'ASP'
p1335
aS'O'
p1336
aF12.575
aF-3.332
aF8.371
aa(lp1337
I41
aS'ASP'
p1338
aS'H'
p1339
aF13.095
aF-6.212
aF7.31
aa(lp1340
I42
aS'THR'
p1341
aS'N'
p1342
aF13.612
aF-2.082
aF6.825
aa(lp1343
I42
aS'THR'
p1344
aS'CA'
p1345
aF13.279
aF-0.786
aF7.41
aa(lp1346
I42
aS'THR'
p1347
aS'C'
p1348
aF12.148
aF-0.162
aF6.577
aa(lp1349
I42
aS'THR'
p1350
aS'O'
p1351
aF12.268
aF-0.025
aF5.361
aa(lp1352
I42
aS'THR'
p1353
aS'H'
p1354
aF14.115
aF-2.025
aF6.13
aa(lp1355
I43
aS'VAL'
p1356
aS'N'
p1357
aF11.048
aF0.176
aF7.265
aa(lp1358
I43
aS'VAL'
p1359
aS'CA'
p1360
aF9.928
aF0.906
aF6.679
aa(lp1361
I43
aS'VAL'
p1362
aS'C'
p1363
aF10.106
aF2.372
aF7.065
aa(lp1364
I43
aS'VAL'
p1365
aS'O'
p1366
aF10.356
aF2.671
aF8.243
aa(lp1367
I43
aS'VAL'
p1368
aS'H'
p1369
aF10.936
aF-0.018
aF8.095
aa(lp1370
I44
aS'THR'
p1371
aS'N'
p1372
aF9.966
aF3.257
aF6.101
aa(lp1373
I44
aS'THR'
p1374
aS'CA'
p1375
aF10.054
aF4.697
aF6.349
aa(lp1376
I44
aS'THR'
p1377
aS'C'
p1378
aF8.804
aF5.377
aF5.856
aa(lp1379
I44
aS'THR'
p1380
aS'O'
p1381
aF8.464
aF5.288
aF4.689
aa(lp1382
I44
aS'THR'
p1383
aS'H'
p1384
aF9.817
aF3.049
aF5.28
aa(lp1385
I45
aS'TRP'
p1386
aS'N'
p1387
aF8.119
aF6.052
aF6.785
aa(lp1388
I45
aS'TRP'
p1389
aS'CA'
p1390
aF6.97
aF6.859
aF6.444
aa(lp1391
I45
aS'TRP'
p1392
aS'C'
p1393
aF7.482
aF8.282
aF6.149
aa(lp1394
I45
aS'TRP'
p1395
aS'O'
p1396
aF8.358
aF8.778
aF6.837
aa(lp1397
I45
aS'TRP'
p1398
aS'H'
p1399
aF8.314
aF6.048
aF7.623
aa(lp1400
I46
aS'ILE'
p1401
aS'N'
p1402
aF6.877
aF8.904
aF5.125
aa(lp1403
I46
aS'ILE'
p1404
aS'CA'
p1405
aF7.266
aF10.29
aF4.76
aa(lp1406
I46
aS'ILE'
p1407
aS'C'
p1408
aF6.009
aF11.111
aF4.675
aa(lp1409
I46
aS'ILE'
p1410
aS'O'
p1411
aF5.094
aF10.812
aF3.895
aa(lp1412
I46
aS'ILE'
p1413
aS'H'
p1414
aF6.257
aF8.559
aF4.639
aa(lp1415
I47
aS'ASN'
p1416
aS'N'
p1417
aF5.928
aF12.158
aF5.502
aa(lp1418
I47
aS'ASN'
p1419
aS'CA'
p1420
aF4.762
aF13.056
aF5.442
aa(lp1421
I47
aS'ASN'
p1422
aS'C'
p1423
aF4.94
aF14.029
aF4.284
aa(lp1424
I47
aS'ASN'
p1425
aS'O'
p1426
aF5.914
aF14.789
aF4.238
aa(lp1427
I47
aS'ASN'
p1428
aS'H'
p1429
aF6.519
aF12.365
aF6.091
aaa(lp1430
(lp1431
I76
aS'GLN'
p1432
aS'N'
p1433
aF9.109
aF15.476
aF6.272
aa(lp1434
I76
aS'GLN'
p1435
aS'CA'
p1436
aF9.891
aF14.661
aF7.18
aa(lp1437
I76
aS'GLN'
p1438
aS'C'
p1439
aF9.443
aF13.194
aF7.151
aa(lp1440
I76
aS'GLN'
p1441
aS'O'
p1442
aF8.39
aF12.861
aF6.75
aa(lp1443
I76
aS'GLN'
p1444
aS'H'
p1445
aF8.313
aF15.66
aF6.541
aa(lp1446
I77
aS'ALA'
p1447
aS'N'
p1448
aF10.352
aF12.395
aF7.669
aa(lp1449
I77
aS'ALA'
p1450
aS'CA'
p1451
aF10.298
aF10.943
aF7.611
aa(lp1452
I77
aS'ALA'
p1453
aS'C'
p1454
aF10.627
aF10.323
aF8.979
aa(lp1455
I77
aS'ALA'
p1456
aS'O'
p1457
aF11.246
aF10.935
aF9.87
aa(lp1458
I77
aS'ALA'
p1459
aS'H'
p1460
aF11.046
aF12.691
aF8.081
aa(lp1461
I78
aS'TYR'
p1462
aS'N'
p1463
aF10.186
aF9.073
aF9.134
aa(lp1464
I78
aS'TYR'
p1465
aS'CA'
p1466
aF10.398
aF8.318
aF10.377
aa(lp1467
I78
aS'TYR'
p1468
aS'C'
p1469
aF10.448
aF6.84
aF10.019
aa(lp1470
I78
aS'TYR'
p1471
aS'O'
p1472
aF9.653
aF6.391
aF9.203
aa(lp1473
I78
aS'TYR'
p1474
aS'H'
p1475
aF9.758
aF8.639
aF8.527
aa(lp1476
I79
aS'SER'
p1477
aS'N'
p1478
aF11.4
aF6.111
aF10.613
aa(lp1479
I79
aS'SER'
p1480
aS'CA'
p1481
aF11.602
aF4.709
aF10.276
aa(lp1482
I79
aS'SER'
p1483
aS'C'
p1484
aF11.401
aF3.74
aF11.445
aa(lp1485
I79
aS'SER'
p1486
aS'O'
p1487
aF11.669
aF4.067
aF12.604
aa(lp1488
I79
aS'SER'
p1489
aS'H'
p1490
aF11.936
aF6.415
aF11.213
aa(lp1491
I80
aS'LEU'
p1492
aS'N'
p1493
aF11.03
aF2.531
aF11.057
aa(lp1494
I80
aS'LEU'
p1495
aS'CA'
p1496
aF11.03
aF1.389
aF11.969
aa(lp1497
I80
aS'LEU'
p1498
aS'C'
p1499
aF11.662
aF0.191
aF11.231
aa(lp1500
I80
aS'LEU'
p1501
aS'O'
p1502
aF11.363
aF-0.034
aF10.082
aa(lp1503
I80
aS'LEU'
p1504
aS'H'
p1505
aF10.77
aF2.345
aF10.259
aa(lp1506
I81
aS'THR'
p1507
aS'N'
p1508
aF12.517
aF-0.522
aF11.917
aa(lp1509
I81
aS'THR'
p1510
aS'CA'
p1511
aF13.17
aF-1.715
aF11.342
aa(lp1512
I81
aS'THR'
p1513
aS'C'
p1514
aF12.493
aF-2.91
aF12.003
aa(lp1515
I81
aS'THR'
p1516
aS'O'
p1517
aF12.609
aF-3.113
aF13.215
aa(lp1518
I81
aS'THR'
p1519
aS'H'
p1520
aF12.748
aF-0.346
aF12.727
aa(lp1521
I82
aS'PHE'
p1522
aS'N'
p1523
aF11.787
aF-3.72
aF11.202
aa(lp1524
I82
aS'PHE'
p1525
aS'CA'
p1526
aF11.04
aF-4.828
aF11.76
aa(lp1527
I82
aS'PHE'
p1528
aS'C'
p1529
aF11.942
aF-6.046
aF11.902
aa(lp1530
I82
aS'PHE'
p1531
aS'O'
p1532
aF12.663
aF-6.424
aF10.97
aa(lp1533
I82
aS'PHE'
p1534
aS'H'
p1535
aF11.734
aF-3.638
aF10.347
aaaaa(lp1536
g223
aS'DTVTWINQAYSLTF'
p1537
aF42.857142857142854
aF3.5
aa(lp1538
g226
aI20
aF55.00000000000001
aa(lp1539
g228
a(lp1540
(lp1541
I0
aF0.04040934110886431
a(lp1542
(lp1543
g233
(g237
S'd9\xf3#\xf2/%@'
p1544
tp1545
Rp1546
ag233
(g237
S'\xb83\x87@\xb6\xbb\x12@'
p1547
tp1548
Rp1549
aa(lp1550
g233
(g237
S'm\\\xfcO(41\xc0'
p1551
tp1552
Rp1553
ag233
(g237
S'Z\xb1\xb5D\x85\xb3\x1f\xc0'
p1554
tp1555
Rp1556
aaaa(lp1557
I1
aF0.001013896780114006
a(lp1558
(lp1559
g233
(g237
S'(e\x1c\xc5\xe2\xd9\x15@'
p1560
tp1561
Rp1562
ag233
(g237
S'B\xb5\xb0\x98\xa9\x88\x02@'
p1563
tp1564
Rp1565
aa(lp1566
g233
(g237
S'\x06z\xd6\xb5\x1c\x07\x10@'
p1567
tp1568
Rp1569
ag233
(g237
S'\xe0\xd2k\xc2DS\xfb?'
p1570
tp1571
Rp1572
aaaaaa(lp1573
g270
a(lp1574
g272
ag274
aaaa(lp1575
(lp1576
(lp1577
(lp1578
S'2idqA00'
p1579
aS'41'
p1580
aS'47'
p1581
aS'76'
p1582
aS'82'
p1583
aa(lp1584
(lp1585
I41
aS'ASP'
p1586
aS'N'
p1587
aF28.232
aF-17.808
aF7.172
aa(lp1588
I41
aS'ASP'
p1589
aS'CA'
p1590
aF28.094
aF-16.629
aF6.319
aa(lp1591
I41
aS'ASP'
p1592
aS'C'
p1593
aF27.753
aF-15.403
aF7.153
aa(lp1594
I41
aS'ASP'
p1595
aS'O'
p1596
aF27.058
aF-15.456
aF8.149
aa(lp1597
I41
aS'ASP'
p1598
aS'H'
p1599
aF27.57
aF-18.357
aF7.144
aa(lp1600
I42
aS'THR'
p1601
aS'N'
p1602
aF28.238
aF-14.264
aF6.638
aa(lp1603
I42
aS'THR'
p1604
aS'CA'
p1605
aF27.923
aF-12.952
aF7.209
aa(lp1606
I42
aS'THR'
p1607
aS'C'
p1608
aF26.878
aF-12.288
aF6.305
aa(lp1609
I42
aS'THR'
p1610
aS'O'
p1611
aF27.086
aF-12.195
aF5.088
aa(lp1612
I42
aS'THR'
p1613
aS'H'
p1614
aF28.756
aF-14.234
aF5.952
aa(lp1615
I43
aS'VAL'
p1616
aS'N'
p1617
aF25.805
aF-11.847
aF6.921
aa(lp1618
I43
aS'VAL'
p1619
aS'CA'
p1620
aF24.745
aF-11.078
aF6.24
aa(lp1621
I43
aS'VAL'
p1622
aS'C'
p1623
aF24.94
aF-9.623
aF6.647
aa(lp1624
I43
aS'VAL'
p1625
aS'O'
p1626
aF25.163
aF-9.308
aF7.793
aa(lp1627
I43
aS'VAL'
p1628
aS'H'
p1629
aF25.654
aF-11.979
aF7.757
aa(lp1630
I44
aS'THR'
p1631
aS'N'
p1632
aF24.814
aF-8.734
aF5.643
aa(lp1633
I44
aS'THR'
p1634
aS'CA'
p1635
aF24.912
aF-7.309
aF5.879
aa(lp1636
I44
aS'THR'
p1637
aS'C'
p1638
aF23.613
aF-6.655
aF5.406
aa(lp1639
I44
aS'THR'
p1640
aS'O'
p1641
aF23.246
aF-6.813
aF4.221
aa(lp1642
I44
aS'THR'
p1643
aS'H'
p1644
aF24.672
aF-8.951
aF4.823
aa(lp1645
I45
aS'TRP'
p1646
aS'N'
p1647
aF22.965
aF-5.924
aF6.271
aa(lp1648
I45
aS'TRP'
p1649
aS'CA'
p1650
aF21.829
aF-5.093
aF5.909
aa(lp1651
I45
aS'TRP'
p1652
aS'C'
p1653
aF22.353
aF-3.697
aF5.605
aa(lp1654
I45
aS'TRP'
p1655
aS'O'
p1656
aF23.227
aF-3.208
aF6.344
aa(lp1657
I45
aS'TRP'
p1658
aS'H'
p1659
aF23.169
aF-5.889
aF7.106
aa(lp1660
I46
aS'ILE'
p1661
aS'N'
p1662
aF21.804
aF-3.066
aF4.586
aa(lp1663
I46
aS'ILE'
p1664
aS'CA'
p1665
aF22.167
aF-1.7
aF4.248
aa(lp1666
I46
aS'ILE'
p1667
aS'C'
p1668
aF20.871
aF-0.896
aF4.118
aa(lp1669
I46
aS'ILE'
p1670
aS'O'
p1671
aF19.999
aF-1.241
aF3.329
aa(lp1672
I46
aS'ILE'
p1673
aS'H'
p1674
aF21.211
aF-3.414
aF4.069
aa(lp1675
I47
aS'ASN'
p1676
aS'N'
p1677
aF20.785
aF0.157
aF4.918
aa(lp1678
I47
aS'ASN'
p1679
aS'CA'
p1680
aF19.62
aF1.035
aF4.849
aa(lp1681
I47
aS'ASN'
p1682
aS'C'
p1683
aF19.801
aF1.991
aF3.659
aa(lp1684
I47
aS'ASN'
p1685
aS'O'
p1686
aF20.762
aF2.751
aF3.626
aa(lp1687
I47
aS'ASN'
p1688
aS'H'
p1689
aF21.378
aF0.381
aF5.499
aaa(lp1690
(lp1691
I76
aS'GLN'
p1692
aS'N'
p1693
aF23.922
aF3.49
aF5.857
aa(lp1694
I76
aS'GLN'
p1695
aS'CA'
p1696
aF24.634
aF2.73
aF6.887
aa(lp1697
I76
aS'GLN'
p1698
aS'C'
p1699
aF24.248
aF1.268
aF6.812
aa(lp1700
I76
aS'GLN'
p1701
aS'O'
p1702
aF23.207
aF0.882
aF6.285
aa(lp1703
I76
aS'GLN'
p1704
aS'H'
p1705
aF23.089
aF3.615
aF6.029
aa(lp1706
I77
aS'ALA'
p1707
aS'N'
p1708
aF25.145
aF0.445
aF7.341
aa(lp1709
I77
aS'ALA'
p1710
aS'CA'
p1711
aF25.123
aF-1.003
aF7.229
aa(lp1712
I77
aS'ALA'
p1713
aS'C'
p1714
aF25.377
aF-1.62
aF8.611
aa(lp1715
I77
aS'ALA'
p1716
aS'O'
p1717
aF25.957
aF-1.016
aF9.509
aa(lp1718
I77
aS'ALA'
p1719
aS'H'
p1720
aF25.815
aF0.732
aF7.797
aa(lp1721
I78
aS'TYR'
p1722
aS'N'
p1723
aF24.999
aF-2.887
aF8.694
aa(lp1724
I78
aS'TYR'
p1725
aS'CA'
p1726
aF25.162
aF-3.66
aF9.939
aa(lp1727
I78
aS'TYR'
p1728
aS'C'
p1729
aF25.233
aF-5.122
aF9.555
aa(lp1730
I78
aS'TYR'
p1731
aS'O'
p1732
aF24.441
aF-5.586
aF8.71
aa(lp1733
I78
aS'TYR'
p1734
aS'H'
p1735
aF24.645
aF-3.327
aF8.045
aa(lp1736
I79
aS'SER'
p1737
aS'N'
p1738
aF26.136
aF-5.877
aF10.163
aa(lp1739
I79
aS'SER'
p1740
aS'CA'
p1741
aF26.379
aF-7.258
aF9.793
aa(lp1742
I79
aS'SER'
p1743
aS'C'
p1744
aF26.198
aF-8.207
aF10.971
aa(lp1745
I79
aS'SER'
p1746
aS'O'
p1747
aF26.473
aF-7.881
aF12.132
aa(lp1748
I79
aS'SER'
p1749
aS'H'
p1750
aF26.63
aF-5.597
aF10.809
aa(lp1751
I80
aS'LEU'
p1752
aS'N'
p1753
aF25.762
aF-9.433
aF10.63
aa(lp1754
I80
aS'LEU'
p1755
aS'CA'
p1756
aF25.703
aF-10.541
aF11.571
aa(lp1757
I80
aS'LEU'
p1758
aS'C'
p1759
aF26.301
aF-11.764
aF10.876
aa(lp1760
I80
aS'LEU'
p1761
aS'O'
p1762
aF25.97
aF-12.045
aF9.724
aa(lp1763
I80
aS'LEU'
p1764
aS'H'
p1765
aF25.493
aF-9.635
aF9.839
aa(lp1766
I81
aS'THR'
p1767
aS'N'
p1768
aF27.122
aF-12.526
aF11.612
aa(lp1769
I81
aS'THR'
p1770
aS'CA'
p1771
aF27.682
aF-13.77
aF11.116
aa(lp1772
I81
aS'THR'
p1773
aS'C'
p1774
aF26.945
aF-14.931
aF11.789
aa(lp1775
I81
aS'THR'
p1776
aS'O'
p1777
aF26.97
aF-15.031
aF13.002
aa(lp1778
I81
aS'THR'
p1779
aS'H'
p1780
aF27.364
aF-12.327
aF12.413
aa(lp1781
I82
aS'PHE'
p1782
aS'N'
p1783
aF26.316
aF-15.759
aF10.988
aa(lp1784
I82
aS'PHE'
p1785
aS'CA'
p1786
aF25.451
aF-16.823
aF11.478
aa(lp1787
I82
aS'PHE'
p1788
aS'C'
p1789
aF26.254
aF-18.104
aF11.647
aa(lp1790
I82
aS'PHE'
p1791
aS'O'
p1792
aF26.887
aF-18.543
aF10.722
aa(lp1793
I82
aS'PHE'
p1794
aS'H'
p1795
aF26.375
aF-15.725
aF10.131
aaaaa(lp1796
g223
aS'DTVTWINQAYSLTF'
p1797
aF42.857142857142854
aF3.5
aa(lp1798
g226
aI20
aF55.00000000000001
aa(lp1799
g228
a(lp1800
(lp1801
I0
aF0.03618967493569048
a(lp1802
(lp1803
g233
(g237
S'R\xd6\xca\xfcN\xab.@'
p1804
tp1805
Rp1806
ag233
(g237
S'(\xb2B+M<\x1c@'
p1807
tp1808
Rp1809
aa(lp1810
g233
(g237
S'\xa3\xaf.\xa6f\xd58\xc0'
p1811
tp1812
Rp1813
ag233
(g237
S"q\x9de\x82\xea\xad'\xc0"
p1814
tp1815
Rp1816
aaaa(lp1817
I1
aF0.0009134364208750052
a(lp1818
(lp1819
g233
(g237
S'v\x83\xa4>\x004#@'
p1820
tp1821
Rp1822
ag233
(g237
S'\x8e\x90\xc3\xe0\x13T\x12@'
p1823
tp1824
Rp1825
aa(lp1826
g233
(g237
S';\xc8\x8f\xdb\xb6\xb2\x1a@'
p1827
tp1828
Rp1829
ag233
(g237
S'[7\x167\x16\xd2\x08@'
p1830
tp1831
Rp1832
aaaaaa(lp1833
g270
a(lp1834
g272
ag274
aaaa(lp1835
(lp1836
(lp1837
(lp1838
S'2iduA00'
p1839
aS'41'
p1840
aS'47'
p1841
aS'76'
p1842
aS'82'
p1843
aa(lp1844
(lp1845
I41
aS'ASP'
p1846
aS'N'
p1847
aF13.47
aF-5.743
aF7.533
aa(lp1848
I41
aS'ASP'
p1849
aS'CA'
p1850
aF13.263
aF-4.551
aF6.703
aa(lp1851
I41
aS'ASP'
p1852
aS'C'
p1853
aF12.916
aF-3.357
aF7.586
aa(lp1854
I41
aS'ASP'
p1855
aS'O'
p1856
aF12.275
aF-3.419
aF8.602
aa(lp1857
I41
aS'ASP'
p1858
aS'H'
p1859
aF12.825
aF-6.312
aF7.521
aa(lp1860
I42
aS'THR'
p1861
aS'N'
p1862
aF13.385
aF-2.212
aF7.105
aa(lp1863
I42
aS'THR'
p1864
aS'CA'
p1865
aF13.065
aF-0.918
aF7.65
aa(lp1866
I42
aS'THR'
p1867
aS'C'
p1868
aF11.978
aF-0.238
aF6.771
aa(lp1869
I42
aS'THR'
p1870
aS'O'
p1871
aF12.177
aF-0.076
aF5.568
aa(lp1872
I42
aS'THR'
p1873
aS'H'
p1874
aF13.916
aF-2.174
aF6.429
aa(lp1875
I43
aS'VAL'
p1876
aS'N'
p1877
aF10.875
aF0.144
aF7.412
aa(lp1878
I43
aS'VAL'
p1879
aS'CA'
p1880
aF9.814
aF0.908
aF6.781
aa(lp1881
I43
aS'VAL'
p1882
aS'C'
p1883
aF9.99
aF2.37
aF7.187
aa(lp1884
I43
aS'VAL'
p1885
aS'O'
p1886
aF10.234
aF2.666
aF8.343
aa(lp1887
I43
aS'VAL'
p1888
aS'H'
p1889
aF10.724
aF-0.039
aF8.239
aa(lp1890
I44
aS'THR'
p1891
aS'N'
p1892
aF9.84
aF3.253
aF6.2
aa(lp1893
I44
aS'THR'
p1894
aS'CA'
p1895
aF9.934
aF4.683
aF6.445
aa(lp1896
I44
aS'THR'
p1897
aS'C'
p1898
aF8.676
aF5.36
aF5.974
aa(lp1899
I44
aS'THR'
p1900
aS'O'
p1901
aF8.326
aF5.262
aF4.781
aa(lp1902
I44
aS'THR'
p1903
aS'H'
p1904
aF9.683
aF3.04
aF5.382
aa(lp1905
I45
aS'TRP'
p1906
aS'N'
p1907
aF7.99
aF6.039
aF6.886
aa(lp1908
I45
aS'TRP'
p1909
aS'CA'
p1910
aF6.866
aF6.889
aF6.538
aa(lp1911
I45
aS'TRP'
p1912
aS'C'
p1913
aF7.358
aF8.308
aF6.262
aa(lp1914
I45
aS'TRP'
p1915
aS'O'
p1916
aF8.267
aF8.776
aF6.954
aa(lp1917
I45
aS'TRP'
p1918
aS'H'
p1919
aF8.166
aF6.018
aF7.727
aa(lp1920
I46
aS'ILE'
p1921
aS'N'
p1922
aF6.778
aF8.936
aF5.236
aa(lp1923
I46
aS'ILE'
p1924
aS'CA'
p1925
aF7.17
aF10.308
aF4.895
aa(lp1926
I46
aS'ILE'
p1927
aS'C'
p1928
aF5.907
aF11.145
aF4.77
aa(lp1929
I46
aS'ILE'
p1930
aS'O'
p1931
aF5.004
aF10.852
aF3.979
aa(lp1932
I46
aS'ILE'
p1933
aS'H'
p1934
aF6.168
aF8.595
aF4.734
aa(lp1935
I47
aS'ASN'
p1936
aS'N'
p1937
aF5.811
aF12.2
aF5.579
aa(lp1938
I47
aS'ASN'
p1939
aS'CA'
p1940
aF4.657
aF13.109
aF5.535
aa(lp1941
I47
aS'ASN'
p1942
aS'C'
p1943
aF4.868
aF14.088
aF4.372
aa(lp1944
I47
aS'ASN'
p1945
aS'O'
p1946
aF5.81
aF14.858
aF4.389
aa(lp1947
I47
aS'ASN'
p1948
aS'H'
p1949
aF6.405
aF12.41
aF6.164
aaa(lp1950
(lp1951
I76
aS'GLN'
p1952
aS'N'
p1953
aF8.961
aF15.472
aF6.467
aa(lp1954
I76
aS'GLN'
p1955
aS'CA'
p1956
aF9.747
aF14.656
aF7.358
aa(lp1957
I76
aS'GLN'
p1958
aS'C'
p1959
aF9.324
aF13.234
aF7.385
aa(lp1960
I76
aS'GLN'
p1961
aS'O'
p1962
aF8.244
aF12.894
aF6.973
aa(lp1963
I76
aS'GLN'
p1964
aS'H'
p1965
aF8.138
aF15.58
aF6.691
aa(lp1966
I77
aS'ALA'
p1967
aS'N'
p1968
aF10.193
aF12.417
aF7.95
aa(lp1969
I77
aS'ALA'
p1970
aS'CA'
p1971
aF10.168
aF10.97
aF7.843
aa(lp1972
I77
aS'ALA'
p1973
aS'C'
p1974
aF10.458
aF10.367
aF9.207
aa(lp1975
I77
aS'ALA'
p1976
aS'O'
p1977
aF11.064
aF10.956
aF10.109
aa(lp1978
I77
aS'ALA'
p1979
aS'H'
p1980
aF10.846
aF12.704
aF8.43
aa(lp1981
I78
aS'TYR'
p1982
aS'N'
p1983
aF10.048
aF9.084
aF9.326
aa(lp1984
I78
aS'TYR'
p1985
aS'CA'
p1986
aF10.222
aF8.305
aF10.55
aa(lp1987
I78
aS'TYR'
p1988
aS'C'
p1989
aF10.285
aF6.836
aF10.147
aa(lp1990
I78
aS'TYR'
p1991
aS'O'
p1992
aF9.493
aF6.383
aF9.33
aa(lp1993
I78
aS'TYR'
p1994
aS'H'
p1995
aF9.662
aF8.651
aF8.691
aa(lp1996
I79
aS'SER'
p1997
aS'N'
p1998
aF11.223
aF6.094
aF10.764
aa(lp1999
I79
aS'SER'
p2000
aS'CA'
p2001
aF11.438
aF4.702
aF10.396
aa(lp2002
I79
aS'SER'
p2003
aS'C'
p2004
aF11.228
aF3.715
aF11.564
aa(lp2005
I79
aS'SER'
p2006
aS'O'
p2007
aF11.493
aF4.038
aF12.735
aa(lp2008
I79
aS'SER'
p2009
aS'H'
p2010
aF11.735
aF6.384
aF11.391
aa(lp2011
I80
aS'LEU'
p2012
aS'N'
p2013
aF10.85
aF2.507
aF11.192
aa(lp2014
I80
aS'LEU'
p2015
aS'CA'
p2016
aF10.819
aF1.372
aF12.095
aa(lp2017
I80
aS'LEU'
p2018
aS'C'
p2019
aF11.418
aF0.169
aF11.397
aa(lp2020
I80
aS'LEU'
p2021
aS'O'
p2022
aF11.068
aF-0.1
aF10.251
aa(lp2023
I80
aS'LEU'
p2024
aS'H'
p2025
aF10.599
aF2.318
aF10.391
aa(lp2026
I81
aS'THR'
p2027
aS'N'
p2028
aF12.269
aF-0.571
aF12.076
aa(lp2029
I81
aS'THR'
p2030
aS'CA'
p2031
aF12.877
aF-1.787
aF11.547
aa(lp2032
I81
aS'THR'
p2033
aS'C'
p2034
aF12.149
aF-2.964
aF12.223
aa(lp2035
I81
aS'THR'
p2036
aS'O'
p2037
aF12.209
aF-3.108
aF13.465
aa(lp2038
I81
aS'THR'
p2039
aS'H'
p2040
aF12.52
aF-0.382
aF12.877
aa(lp2041
I82
aS'PHE'
p2042
aS'N'
p2043
aF11.472
aF-3.771
aF11.429
aa(lp2044
I82
aS'PHE'
p2045
aS'CA'
p2046
aF10.688
aF-4.86
aF11.942
aa(lp2047
I82
aS'PHE'
p2048
aS'C'
p2049
aF11.547
aF-6.084
aF12.075
aa(lp2050
I82
aS'PHE'
p2051
aS'O'
p2052
aF12.222
aF-6.519
aF11.162
aa(lp2053
I82
aS'PHE'
p2054
aS'H'
p2055
aF11.457
aF-3.698
aF10.572
aaaaa(lp2056
g223
aS'DTVTWINQAYSLTF'
p2057
aF42.857142857142854
aF3.5
aa(lp2058
g226
aI20
aF55.00000000000001
aa(lp2059
g228
a(lp2060
(lp2061
I0
aF0.035481037425115075
a(lp2062
(lp2063
g233
(g237
S'\xfc|\x1d\xb44Y@@'
p2064
tp2065
Rp2066
ag233
(g237
S'{\xb1\x8e\xbb\xf2W3@'
p2067
tp2068
Rp2069
aa(lp2070
g233
(g237
S'HX\xdff\xee\x92K\xc0'
p2071
tp2072
Rp2073
ag233
(g237
S'&)\t\xc4}m@\xc0'
p2074
tp2075
Rp2076
aaaa(lp2077
I1
aF0.0009310975445481407
a(lp2078
(lp2079
g233
(g237
S'%d\x83r\x8b\xf8#@'
p2080
tp2081
Rp2082
ag233
(g237
S'3I\x17\xc5\xb9e\x13@'
p2083
tp2084
Rp2085
aa(lp2086
g233
(g237
S'\x8d\x81\x0f\xedq\x97\x1b@'
p2087
tp2088
Rp2089
ag233
(g237
S'\xd4\xc5\xd9\x97\xc5\x15\n@'
p2090
tp2091
Rp2092
aaaaaa(lp2093
g270
a(lp2094
g272
ag274
aaaa(lp2095
(lp2096
(lp2097
(lp2098
S'2qdwA00'
p2099
aS'41'
p2100
aS'47'
p2101
aS'76'
p2102
aS'82'
p2103
aa(lp2104
(lp2105
I41
aS'ASP'
p2106
aS'N'
p2107
aF27.82
aF-17.434
aF7.139
aa(lp2108
I41
aS'ASP'
p2109
aS'CA'
p2110
aF27.569
aF-16.244
aF6.318
aa(lp2111
I41
aS'ASP'
p2112
aS'C'
p2113
aF27.24
aF-15.045
aF7.206
aa(lp2114
I41
aS'ASP'
p2115
aS'O'
p2116
aF26.585
aF-15.144
aF8.228
aa(lp2117
I41
aS'ASP'
p2118
aS'H'
p2119
aF27.182
aF-18.011
aF7.152
aa(lp2120
I42
aS'THR'
p2121
aS'N'
p2122
aF27.67
aF-13.896
aF6.7
aa(lp2123
I42
aS'THR'
p2124
aS'CA'
p2125
aF27.333
aF-12.605
aF7.258
aa(lp2126
I42
aS'THR'
p2127
aS'C'
p2128
aF26.22
aF-11.991
aF6.431
aa(lp2129
I42
aS'THR'
p2130
aS'O'
p2131
aF26.364
aF-11.837
aF5.21
aa(lp2132
I42
aS'THR'
p2133
aS'H'
p2134
aF28.177
aF-13.849
aF6.007
aa(lp2135
I43
aS'VAL'
p2136
aS'N'
p2137
aF25.138
aF-11.621
aF7.079
aa(lp2138
I43
aS'VAL'
p2139
aS'CA'
p2140
aF24.021
aF-10.913
aF6.493
aa(lp2141
I43
aS'VAL'
p2142
aS'C'
p2143
aF24.138
aF-9.457
aF6.886
aa(lp2144
I43
aS'VAL'
p2145
aS'O'
p2146
aF24.364
aF-9.158
aF8.069
aa(lp2147
I43
aS'VAL'
p2148
aS'H'
p2149
aF25.027
aF-11.783
aF7.916
aa(lp2150
I44
aS'THR'
p2151
aS'N'
p2152
aF23.985
aF-8.554
aF5.919
aa(lp2153
I44
aS'THR'
p2154
aS'CA'
p2155
aF24.041
aF-7.127
aF6.177
aa(lp2156
I44
aS'THR'
p2157
aS'C'
p2158
aF22.761
aF-6.494
aF5.72
aa(lp2159
I44
aS'THR'
p2160
aS'O'
p2161
aF22.4
aF-6.606
aF4.549
aa(lp2162
I44
aS'THR'
p2163
aS'H'
p2164
aF23.846
aF-8.757
aF5.095
aa(lp2165
I45
aS'TRP'
p2166
aS'N'
p2167
aF22.101
aF-5.774
aF6.623
aa(lp2168
I45
aS'TRP'
p2169
aS'CA'
p2170
aF20.951
aF-4.967
aF6.296
aa(lp2171
I45
aS'TRP'
p2172
aS'C'
p2173
aF21.42
aF-3.554
aF6.019
aa(lp2174
I45
aS'TRP'
p2175
aS'O'
p2176
aF22.306
aF-3.051
aF6.736
aa(lp2177
I45
aS'TRP'
p2178
aS'H'
p2179
aF22.319
aF-5.746
aF7.454
aa(lp2180
I46
aS'ILE'
p2181
aS'N'
p2182
aF20.833
aF-2.901
aF5.019
aa(lp2183
I46
aS'ILE'
p2184
aS'CA'
p2185
aF21.16
aF-1.515
aF4.701
aa(lp2186
I46
aS'ILE'
p2187
aS'C'
p2188
aF19.877
aF-0.709
aF4.692
aa(lp2189
I46
aS'ILE'
p2190
aS'O'
p2191
aF18.946
aF-1.021
aF3.939
aa(lp2192
I46
aS'ILE'
p2193
aS'H'
p2194
aF20.236
aF-3.249
aF4.507
aa(lp2195
I47
aS'ASN'
p2196
aS'N'
p2197
aF19.821
aF0.337
aF5.496
aa(lp2198
I47
aS'ASN'
p2199
aS'CA'
p2200
aF18.677
aF1.225
aF5.5
aa(lp2201
I47
aS'ASN'
p2202
aS'C'
p2203
aF18.806
aF2.266
aF4.404
aa(lp2204
I47
aS'ASN'
p2205
aS'O'
p2206
aF19.692
aF3.112
aF4.441
aa(lp2207
I47
aS'ASN'
p2208
aS'H'
p2209
aF20.441
aF0.551
aF6.052
aaa(lp2210
(lp2211
I76
aS'GLN'
p2212
aS'N'
p2213
aF22.961
aF3.697
aF6.399
aa(lp2214
I76
aS'GLN'
p2215
aS'CA'
p2216
aF23.736
aF2.889
aF7.346
aa(lp2217
I76
aS'GLN'
p2218
aS'C'
p2219
aF23.353
aF1.421
aF7.212
aa(lp2220
I76
aS'GLN'
p2221
aS'O'
p2222
aF22.298
aF1.06
aF6.712
aa(lp2223
I76
aS'GLN'
p2224
aS'H'
p2225
aF22.126
aF3.758
aF6.597
aa(lp2226
I77
aS'ALA'
p2227
aS'N'
p2228
aF24.236
aF0.603
aF7.72
aa(lp2229
I77
aS'ALA'
p2230
aS'CA'
p2231
aF24.217
aF-0.831
aF7.61
aa(lp2232
I77
aS'ALA'
p2233
aS'C'
p2234
aF24.515
aF-1.473
aF8.963
aa(lp2235
I77
aS'ALA'
p2236
aS'O'
p2237
aF25.105
aF-0.881
aF9.851
aa(lp2238
I77
aS'ALA'
p2239
aS'H'
p2240
aF24.911
aF0.888
aF8.17
aa(lp2241
I78
aS'TYR'
p2242
aS'N'
p2243
aF24.128
aF-2.741
aF9.066
aa(lp2244
I78
aS'TYR'
p2245
aS'CA'
p2246
aF24.304
aF-3.521
aF10.283
aa(lp2247
I78
aS'TYR'
p2248
aS'C'
p2249
aF24.397
aF-4.982
aF9.876
aa(lp2250
I78
aS'TYR'
p2251
aS'O'
p2252
aF23.608
aF-5.433
aF9.039
aa(lp2253
I78
aS'TYR'
p2254
aS'H'
p2255
aF23.753
aF-3.175
aF8.425
aa(lp2256
I79
aS'SER'
p2257
aS'N'
p2258
aF25.314
aF-5.717
aF10.475
aa(lp2259
I79
aS'SER'
p2260
aS'CA'
p2261
aF25.574
aF-7.096
aF10.098
aa(lp2262
I79
aS'SER'
p2263
aS'C'
p2264
aF25.413
aF-8.08
aF11.252
aa(lp2265
I79
aS'SER'
p2266
aS'O'
p2267
aF25.686
aF-7.768
aF12.408
aa(lp2268
I79
aS'SER'
p2269
aS'H'
p2270
aF25.809
aF-5.43
aF11.117
aa(lp2271
I80
aS'LEU'
p2272
aS'N'
p2273
aF25.032
aF-9.315
aF10.884
aa(lp2274
I80
aS'LEU'
p2275
aS'CA'
p2276
aF25.064
aF-10.437
aF11.786
aa(lp2277
I80
aS'LEU'
p2278
aS'C'
p2279
aF25.69
aF-11.611
aF11.056
aa(lp2280
I80
aS'LEU'
p2281
aS'O'
p2282
aF25.377
aF-11.872
aF9.896
aa(lp2283
I80
aS'LEU'
p2284
aS'H'
p2285
aF24.749
aF-9.509
aF10.095
aa(lp2286
I81
aS'THR'
p2287
aS'N'
p2288
aF26.556
aF-12.357
aF11.753
aa(lp2289
I81
aS'THR'
p2290
aS'CA'
p2291
aF27.168
aF-13.555
aF11.218
aa(lp2292
I81
aS'THR'
p2293
aS'C'
p2294
aF26.526
aF-14.756
aF11.858
aa(lp2295
I81
aS'THR'
p2296
aS'O'
p2297
aF26.613
aF-14.924
aF13.088
aa(lp2298
I81
aS'THR'
p2299
aS'H'
p2300
aF26.8
aF-12.171
aF12.556
aa(lp2301
I82
aS'PHE'
p2302
aS'N'
p2303
aF25.832
aF-15.576
aF11.073
aa(lp2304
I82
aS'PHE'
p2305
aS'CA'
p2306
aF25.066
aF-16.697
aF11.615
aa(lp2307
I82
aS'PHE'
p2308
aS'C'
p2309
aF25.976
aF-17.903
aF11.762
aa(lp2310
I82
aS'PHE'
p2311
aS'O'
p2312
aF26.646
aF-18.283
aF10.826
aa(lp2313
I82
aS'PHE'
p2314
aS'H'
p2315
aF25.791
aF-15.5
aF10.217
aaaaa(lp2316
g223
aS'DTVTWINQAYSLTF'
p2317
aF42.857142857142854
aF3.5
aa(lp2318
g226
aI20
aF55.00000000000001
aa(lp2319
g228
a(lp2320
(lp2321
I0
aF0.031200908762566947
a(lp2322
(lp2323
g233
(g237
S'uw\x9b\xcb\xd6\xa31@'
p2324
tp2325
Rp2326
ag233
(g237
S'\x9d=\x8aw\xed\x92$@'
p2327
tp2328
Rp2329
aa(lp2330
g233
(g237
S'\xdb\x04\xb2_\xfa\x8e=\xc0'
p2331
tp2332
Rp2333
ag233
(g237
S'<U\xd5\xbc\xbb?1\xc0'
p2334
tp2335
Rp2336
aaaa(lp2337
I1
aF0.0009608238458385138
a(lp2338
(lp2339
g233
(g237
S'w\x9c\x8c\xb5x\xd3#@'
p2340
tp2341
Rp2342
ag233
(g237
S'\xe0\x07\xf1\xffdG\x13@'
p2343
tp2344
Rp2345
aa(lp2346
g233
(g237
S'\xc7B\x8a\xb3\x0fi\x1b@'
p2347
tp2348
Rp2349
ag233
(g237
S'\x96\xcf\x86\xa3\xbd\xf6\t@'
p2350
tp2351
Rp2352
aaaaaa(lp2353
g270
a(lp2354
g272
ag274
aaaa(lp2355
(lp2356
(lp2357
(lp2358
S'3rymA00'
p2359
aS'41'
p2360
aS'47'
p2361
aS'76'
p2362
aS'82'
p2363
aa(lp2364
(lp2365
I41
aS'ASP'
p2366
aS'N'
p2367
aF-30.291
aF1.459
aF16.773
aa(lp2368
I41
aS'ASP'
p2369
aS'CA'
p2370
aF-28.928
aF1.239
aF17.282
aa(lp2371
I41
aS'ASP'
p2372
aS'C'
p2373
aF-28.06
aF2.483
aF17.194
aa(lp2374
I41
aS'ASP'
p2375
aS'O'
p2376
aF-28.219
aF3.314
aF16.311
aa(lp2377
I41
aS'ASP'
p2378
aS'H'
p2379
aF-30.463
aF1.059
aF16.031
aa(lp2380
I42
aS'THR'
p2381
aS'N'
p2382
aF-27.114
aF2.589
aF18.126
aa(lp2383
I42
aS'THR'
p2384
aS'CA'
p2385
aF-26.123
aF3.634
aF18.122
aa(lp2386
I42
aS'THR'
p2387
aS'C'
p2388
aF-24.798
aF3.053
aF17.666
aa(lp2389
I42
aS'THR'
p2390
aS'O'
p2391
aF-24.401
aF1.975
aF18.118
aa(lp2392
I42
aS'THR'
p2393
aS'H'
p2394
aF-27.038
aF2.042
aF18.785
aa(lp2395
I43
aS'VAL'
p2396
aS'N'
p2397
aF-24.16
aF3.732
aF16.739
aa(lp2398
I43
aS'VAL'
p2399
aS'CA'
p2400
aF-22.847
aF3.332
aF16.223
aa(lp2401
I43
aS'VAL'
p2402
aS'C'
p2403
aF-21.876
aF4.335
aF16.762
aa(lp2404
I43
aS'VAL'
p2405
aS'O'
p2406
aF-22.168
aF5.548
aF16.754
aa(lp2407
I43
aS'VAL'
p2408
aS'H'
p2409
aF-24.471
aF4.449
aF16.38
aa(lp2410
I44
aS'THR'
p2411
aS'N'
p2412
aF-20.711
aF3.853
aF17.234
aa(lp2413
I44
aS'THR'
p2414
aS'CA'
p2415
aF-19.676
aF4.741
aF17.74
aa(lp2416
I44
aS'THR'
p2417
aS'C'
p2418
aF-18.368
aF4.558
aF16.951
aa(lp2419
I44
aS'THR'
p2420
aS'O'
p2421
aF-17.9
aF3.423
aF16.817
aa(lp2422
I44
aS'THR'
p2423
aS'H'
p2424
aF-20.512
aF3.017
aF17.265
aa(lp2425
I45
aS'TRP'
p2426
aS'N'
p2427
aF-17.828
aF5.658
aF16.439
aa(lp2428
I45
aS'TRP'
p2429
aS'CA'
p2430
aF-16.541
aF5.587
aF15.755
aa(lp2431
I45
aS'TRP'
p2432
aS'C'
p2433
aF-15.474
aF6.026
aF16.743
aa(lp2434
I45
aS'TRP'
p2435
aS'O'
p2436
aF-15.687
aF6.979
aF17.484
aa(lp2437
I45
aS'TRP'
p2438
aS'H'
p2439
aF-18.181
aF6.441
aF16.475
aa(lp2440
I46
aS'ILE'
p2441
aS'N'
p2442
aF-14.334
aF5.358
aF16.714
aa(lp2443
I46
aS'ILE'
p2444
aS'CA'
p2445
aF-13.232
aF5.743
aF17.591
aa(lp2446
I46
aS'ILE'
p2447
aS'C'
p2448
aF-11.985
aF5.875
aF16.742
aa(lp2449
I46
aS'ILE'
p2450
aS'O'
p2451
aF-11.618
aF4.92
aF16.055
aa(lp2452
I46
aS'ILE'
p2453
aS'H'
p2454
aF-14.174
aF4.686
aF16.202
aa(lp2455
I47
aS'ASN'
p2456
aS'N'
p2457
aF-11.368
aF7.052
aF16.796
aa(lp2458
I47
aS'ASN'
p2459
aS'CA'
p2460
aF-10.106
aF7.278
aF16.095
aa(lp2461
I47
aS'ASN'
p2462
aS'C'
p2463
aF-8.94
aF6.616
aF16.839
aa(lp2464
I47
aS'ASN'
p2465
aS'O'
p2466
aF-8.634
aF6.96
aF17.977
aa(lp2467
I47
aS'ASN'
p2468
aS'H'
p2469
aF-11.662
aF7.732
aF17.232
aaa(lp2470
(lp2471
I76
aS'GLN'
p2472
aS'N'
p2473
aF-10.437
aF9.62
aF20.627
aa(lp2474
I76
aS'GLN'
p2475
aS'CA'
p2476
aF-11.709
aF10.291
aF20.774
aa(lp2477
I76
aS'GLN'
p2478
aS'C'
p2479
aF-12.763
aF9.513
aF19.986
aa(lp2480
I76
aS'GLN'
p2481
aS'O'
p2482
aF-12.423
aF8.793
aF19.041
aa(lp2483
I76
aS'GLN'
p2484
aS'H'
p2485
aF-10.039
aF9.747
aF19.875
aa(lp2486
I77
aS'ALA'
p2487
aS'N'
p2488
aF-14.001
aF9.619
aF20.421
aa(lp2489
I77
aS'ALA'
p2490
aS'CA'
p2491
aF-15.119
aF8.855
aF19.847
aa(lp2492
I77
aS'ALA'
p2493
aS'C'
p2494
aF-16.237
aF9.804
aF19.459
aa(lp2495
I77
aS'ALA'
p2496
aS'O'
p2497
aF-16.31
aF10.945
aF19.936
aa(lp2498
I77
aS'ALA'
p2499
aS'H'
p2500
aF-14.232
aF10.14
aF21.065
aa(lp2501
I78
aS'TYR'
p2502
aS'N'
p2503
aF-17.126
aF9.321
aF18.599
aa(lp2504
I78
aS'TYR'
p2505
aS'CA'
p2506
aF-18.27
aF10.098
aF18.127
aa(lp2507
I78
aS'TYR'
p2508
aS'C'
p2509
aF-19.358
aF9.092
aF17.763
aa(lp2510
I78
aS'TYR'
p2511
aS'O'
p2512
aF-19.065
aF8.085
aF17.135
aa(lp2513
I78
aS'TYR'
p2514
aS'H'
p2515
aF-17.084
aF8.528
aF18.27
aa(lp2516
I79
aS'SER'
p2517
aS'N'
p2518
aF-20.596
aF9.383
aF18.159
aa(lp2519
I79
aS'SER'
p2520
aS'CA'
p2521
aF-21.701
aF8.436
aF18.011
aa(lp2522
I79
aS'SER'
p2523
aS'C'
p2524
aF-22.858
aF8.998
aF17.184
aa(lp2525
I79
aS'SER'
p2526
aS'O'
p2527
aF-23.121
aF10.2
aF17.182
aa(lp2528
I79
aS'SER'
p2529
aS'H'
p2530
aF-20.819
aF10.131
aF18.519
aa(lp2531
I80
aS'LEU'
p2532
aS'N'
p2533
aF-23.55
aF8.095
aF16.51
aa(lp2534
I80
aS'LEU'
p2535
aS'CA'
p2536
aF-24.784
aF8.451
aF15.803
aa(lp2537
I80
aS'LEU'
p2538
aS'C'
p2539
aF-25.805
aF7.371
aF16.093
aa(lp2540
I80
aS'LEU'
p2541
aS'O'
p2542
aF-25.479
aF6.201
aF16.106
aa(lp2543
I80
aS'LEU'
p2544
aS'H'
p2545
aF-23.327
aF7.267
aF16.445
aa(lp2546
I81
aS'THR'
p2547
aS'N'
p2548
aF-27.063
aF7.769
aF16.322
aa(lp2549
I81
aS'THR'
p2550
aS'CA'
p2551
aF-28.133
aF6.803
aF16.564
aa(lp2552
I81
aS'THR'
p2553
aS'C'
p2554
aF-29.044
aF6.794
aF15.332
aa(lp2555
I81
aS'THR'
p2556
aS'O'
p2557
aF-29.581
aF7.813
aF14.957
aa(lp2558
I81
aS'THR'
p2559
aS'H'
p2560
aF-27.313
aF8.592
aF16.341
aa(lp2561
I82
aS'PHE'
p2562
aS'N'
p2563
aF-29.154
aF5.637
aF14.687
aa(lp2564
I82
aS'PHE'
p2565
aS'CA'
p2566
aF-29.849
aF5.547
aF13.436
aa(lp2567
I82
aS'PHE'
p2568
aS'C'
p2569
aF-31.307
aF5.165
aF13.674
aa(lp2570
I82
aS'PHE'
p2571
aS'O'
p2572
aF-31.575
aF4.149
aF14.318
aa(lp2573
I82
aS'PHE'
p2574
aS'H'
p2575
aF-28.826
aF4.894
aF14.969
aaaaa(lp2576
g223
aS'DTVTWINQAYSLTF'
p2577
aF42.857142857142854
aF3.5
aa(lp2578
g226
aI20
aF55.00000000000001
aa(lp2579
g228
a(lp2580
(lp2581
I0
aF0.013686471243478803
a(lp2582
(lp2583
g233
(g237
S'\x8b#\xdb\xae+\xa2K@'
p2584
tp2585
Rp2586
ag233
(g237
S'\x14%\x9e\xaf\xa3\x1f=@'
p2587
tp2588
Rp2589
aa(lp2590
g233
(g237
S'\xc9\x7f\x9c#\x15\x88Z\xc0'
p2591
tp2592
Rp2593
ag233
(g237
S'\xf0\x1a.<9\xdcL\xc0'
p2594
tp2595
Rp2596
aaaa(lp2597
I1
aF0.001363028171728472
a(lp2598
(lp2599
g233
(g237
S'\xbc_\xe7\x9fM(W@'
p2600
tp2601
Rp2602
ag233
(g237
S'\xfc\xf8\xe5=U\xf3D@'
p2603
tp2604
Rp2605
aa(lp2606
g233
(g237
S'E\x99,\xda^\x94=@'
p2607
tp2608
Rp2609
ag233
(g237
S'Dw\xb9\x9a\xdf\x10\x06@'
p2610
tp2611
Rp2612
aaaaaa(lp2613
g270
a(lp2614
g272
ag274
aaaa(lp2615
(lp2616
(lp2617
(lp2618
S'1sf5A00'
p2619
aS'41'
p2620
aS'47'
p2621
aS'76'
p2622
aS'82'
p2623
aa(lp2624
(lp2625
I41
aS'ASP'
p2626
aS'N'
p2627
aF28.067
aF-17.526
aF7.176
aa(lp2628
I41
aS'ASP'
p2629
aS'CA'
p2630
aF27.82
aF-16.352
aF6.37
aa(lp2631
I41
aS'ASP'
p2632
aS'C'
p2633
aF27.542
aF-15.117
aF7.24
aa(lp2634
I41
aS'ASP'
p2635
aS'O'
p2636
aF26.91
aF-15.237
aF8.286
aa(lp2637
I41
aS'ASP'
p2638
aS'H'
p2639
aF27.425
aF-18.098
aF7.202
aa(lp2640
I42
aS'THR'
p2641
aS'N'
p2642
aF27.964
aF-13.996
aF6.712
aa(lp2643
I42
aS'THR'
p2644
aS'CA'
p2645
aF27.647
aF-12.691
aF7.289
aa(lp2646
I42
aS'THR'
p2647
aS'C'
p2648
aF26.532
aF-12.085
aF6.468
aa(lp2649
I42
aS'THR'
p2650
aS'O'
p2651
aF26.661
aF-11.944
aF5.258
aa(lp2652
I42
aS'THR'
p2653
aS'H'
p2654
aF28.448
aF-13.957
aF6.002
aa(lp2655
I43
aS'VAL'
p2656
aS'N'
p2657
aF25.437
aF-11.733
aF7.141
aa(lp2658
I43
aS'VAL'
p2659
aS'CA'
p2660
aF24.345
aF-10.997
aF6.546
aa(lp2661
I43
aS'VAL'
p2662
aS'C'
p2663
aF24.488
aF-9.541
aF6.938
aa(lp2664
I43
aS'VAL'
p2665
aS'O'
p2666
aF24.724
aF-9.241
aF8.099
aa(lp2667
I43
aS'VAL'
p2668
aS'H'
p2669
aF25.314
aF-11.923
aF7.971
aa(lp2670
I44
aS'THR'
p2671
aS'N'
p2672
aF24.321
aF-8.658
aF5.956
aa(lp2673
I44
aS'THR'
p2674
aS'CA'
p2675
aF24.421
aF-7.248
aF6.205
aa(lp2676
I44
aS'THR'
p2677
aS'C'
p2678
aF23.153
aF-6.533
aF5.696
aa(lp2679
I44
aS'THR'
p2680
aS'O'
p2681
aF22.827
aF-6.641
aF4.514
aa(lp2682
I44
aS'THR'
p2683
aS'H'
p2684
aF24.149
aF-8.868
aF5.14
aa(lp2685
I45
aS'TRP'
p2686
aS'N'
p2687
aF22.455
aF-5.885
aF6.619
aa(lp2688
I45
aS'TRP'
p2689
aS'CA'
p2690
aF21.319
aF-5.058
aF6.299
aa(lp2691
I45
aS'TRP'
p2692
aS'C'
p2693
aF21.813
aF-3.658
aF5.998
aa(lp2694
I45
aS'TRP'
p2695
aS'O'
p2696
aF22.72
aF-3.149
aF6.643
aa(lp2697
I45
aS'TRP'
p2698
aS'H'
p2699
aF22.636
aF-5.918
aF7.459
aa(lp2700
I46
aS'ILE'
p2701
aS'N'
p2702
aF21.231
aF-3.03
aF4.956
aa(lp2703
I46
aS'ILE'
p2704
aS'CA'
p2705
aF21.593
aF-1.657
aF4.587
aa(lp2706
I46
aS'ILE'
p2707
aS'C'
p2708
aF20.334
aF-0.818
aF4.51
aa(lp2709
I46
aS'ILE'
p2710
aS'O'
p2711
aF19.426
aF-1.126
aF3.724
aa(lp2712
I46
aS'ILE'
p2713
aS'H'
p2714
aF20.628
aF-3.385
aF4.457
aa(lp2715
I47
aS'ASN'
p2716
aS'N'
p2717
aF20.253
aF0.239
aF5.293
aa(lp2718
I47
aS'ASN'
p2719
aS'CA'
p2720
aF19.11
aF1.133
aF5.304
aa(lp2721
I47
aS'ASN'
p2722
aS'C'
p2723
aF19.23
aF2.158
aF4.174
aa(lp2724
I47
aS'ASN'
p2725
aS'O'
p2726
aF20.199
aF2.916
aF4.132
aa(lp2727
I47
aS'ASN'
p2728
aS'H'
p2729
aF20.873
aF0.464
aF5.845
aaa(lp2730
(lp2731
I76
aS'GLN'
p2732
aS'N'
p2733
aF23.422
aF3.576
aF6.162
aa(lp2734
I76
aS'GLN'
p2735
aS'CA'
p2736
aF24.166
aF2.794
aF7.114
aa(lp2737
I76
aS'GLN'
p2738
aS'C'
p2739
aF23.761
aF1.32
aF7.047
aa(lp2740
I76
aS'GLN'
p2741
aS'O'
p2742
aF22.708
aF0.977
aF6.537
aa(lp2743
I76
aS'GLN'
p2744
aS'H'
p2745
aF22.601
aF3.701
aF6.386
aa(lp2746
I77
aS'ALA'
p2747
aS'N'
p2748
aF24.633
aF0.513
aF7.62
aa(lp2749
I77
aS'ALA'
p2750
aS'CA'
p2751
aF24.606
aF-0.944
aF7.532
aa(lp2752
I77
aS'ALA'
p2753
aS'C'
p2754
aF24.926
aF-1.572
aF8.88
aa(lp2755
I77
aS'ALA'
p2756
aS'O'
p2757
aF25.523
aF-0.966
aF9.777
aa(lp2758
I77
aS'ALA'
p2759
aS'H'
p2760
aF25.288
aF0.807
aF8.093
aa(lp2761
I78
aS'TYR'
p2762
aS'N'
p2763
aF24.538
aF-2.817
aF9.02
aa(lp2764
I78
aS'TYR'
p2765
aS'CA'
p2766
aF24.733
aF-3.606
aF10.233
aa(lp2767
I78
aS'TYR'
p2768
aS'C'
p2769
aF24.777
aF-5.091
aF9.88
aa(lp2770
I78
aS'TYR'
p2771
aS'O'
p2772
aF23.995
aF-5.533
aF9.045
aa(lp2773
I78
aS'TYR'
p2774
aS'H'
p2775
aF24.138
aF-3.251
aF8.394
aa(lp2776
I79
aS'SER'
p2777
aS'N'
p2778
aF25.728
aF-5.801
aF10.465
aa(lp2779
I79
aS'SER'
p2780
aS'CA'
p2781
aF25.975
aF-7.174
aF10.141
aa(lp2782
I79
aS'SER'
p2783
aS'C'
p2784
aF25.769
aF-8.157
aF11.3
aa(lp2785
I79
aS'SER'
p2786
aS'O'
p2787
aF26.038
aF-7.835
aF12.47
aa(lp2788
I79
aS'SER'
p2789
aS'H'
p2790
aF26.251
aF-5.485
aF11.07
aa(lp2791
I80
aS'LEU'
p2792
aS'N'
p2793
aF25.369
aF-9.371
aF10.938
aa(lp2794
I80
aS'LEU'
p2795
aS'CA'
p2796
aF25.36
aF-10.513
aF11.832
aa(lp2797
I80
aS'LEU'
p2798
aS'C'
p2799
aF26.015
aF-11.695
aF11.106
aa(lp2800
I80
aS'LEU'
p2801
aS'O'
p2802
aF25.707
aF-11.972
aF9.937
aa(lp2803
I80
aS'LEU'
p2804
aS'H'
p2805
aF25.089
aF-9.554
aF10.146
aa(lp2806
I81
aS'THR'
p2807
aS'N'
p2808
aF26.89
aF-12.407
aF11.807
aa(lp2809
I81
aS'THR'
p2810
aS'CA'
p2811
aF27.532
aF-13.61
aF11.271
aa(lp2812
I81
aS'THR'
p2813
aS'C'
p2814
aF26.871
aF-14.821
aF11.908
aa(lp2815
I81
aS'THR'
p2816
aS'O'
p2817
aF26.953
aF-15.008
aF13.142
aa(lp2818
I81
aS'THR'
p2819
aS'H'
p2820
aF27.131
aF-12.209
aF12.608
aa(lp2821
I82
aS'PHE'
p2822
aS'N'
p2823
aF26.192
aF-15.62
aF11.104
aa(lp2824
I82
aS'PHE'
p2825
aS'CA'
p2826
aF25.406
aF-16.723
aF11.645
aa(lp2827
I82
aS'PHE'
p2828
aS'C'
p2829
aF26.308
aF-17.969
aF11.805
aa(lp2830
I82
aS'PHE'
p2831
aS'O'
p2832
aF26.988
aF-18.324
aF10.837
aa(lp2833
I82
aS'PHE'
p2834
aS'H'
p2835
aF26.17
aF-15.545
aF10.248
aaaaa(lp2836
g223
aS'DTVTWINQAYSLTF'
p2837
aF42.857142857142854
aF3.5
aa(lp2838
g226
aI20
aF55.00000000000001
aa(lp2839
g228
a(lp2840
(lp2841
I0
aF0.033660677812544997
a(lp2842
(lp2843
g233
(g237
S'\n\xd1cvH\xd81@'
p2844
tp2845
Rp2846
ag233
(g237
S'ZE^\xa1\xca\x1f#@'
p2847
tp2848
Rp2849
aa(lp2850
g233
(g237
S'r\xad\xe1\x83G\xdc=\xc0'
p2851
tp2852
Rp2853
ag233
(g237
S'\xe3L\x06\x8c\xe3;0\xc0'
p2854
tp2855
Rp2856
aaaa(lp2857
I1
aF0.0009453072532282953
a(lp2858
(lp2859
g233
(g237
S'\xfbh\xe5\x05\n\xc7#@'
p2860
tp2861
Rp2862
ag233
(g237
S'\xc9\xb2\x99\x89\xc8\x16\x13@'
p2863
tp2864
Rp2865
aa(lp2866
g233
(g237
S'JK\x85\xcc\x1bR\x1b@'
p2867
tp2868
Rp2869
ag233
(g237
S'\xc9V\x08\xc8\xb4\xa2\t@'
p2870
tp2871
Rp2872
aaaaaa(lp2873
g270
a(lp2874
g272
ag274
aaaa(lp2875
(lp2876
(lp2877
(lp2878
S'1sf3A00'
p2879
aS'41'
p2880
aS'47'
p2881
aS'76'
p2882
aS'82'
p2883
aa(lp2884
(lp2885
I41
aS'ASP'
p2886
aS'N'
p2887
aF27.964
aF-17.5
aF7.195
aa(lp2888
I41
aS'ASP'
p2889
aS'CA'
p2890
aF27.714
aF-16.34
aF6.36
aa(lp2891
I41
aS'ASP'
p2892
aS'C'
p2893
aF27.373
aF-15.123
aF7.234
aa(lp2894
I41
aS'ASP'
p2895
aS'O'
p2896
aF26.722
aF-15.218
aF8.269
aa(lp2897
I41
aS'ASP'
p2898
aS'H'
p2899
aF27.323
aF-18.073
aF7.2
aa(lp2900
I42
aS'THR'
p2901
aS'N'
p2902
aF27.82
aF-13.973
aF6.734
aa(lp2903
I42
aS'THR'
p2904
aS'CA'
p2905
aF27.48
aF-12.678
aF7.316
aa(lp2906
I42
aS'THR'
p2907
aS'C'
p2908
aF26.372
aF-12.071
aF6.45
aa(lp2909
I42
aS'THR'
p2910
aS'O'
p2911
aF26.528
aF-11.932
aF5.226
aa(lp2912
I42
aS'THR'
p2913
aS'H'
p2914
aF28.331
aF-13.923
aF6.044
aa(lp2915
I43
aS'VAL'
p2916
aS'N'
p2917
aF25.303
aF-11.665
aF7.102
aa(lp2918
I43
aS'VAL'
p2919
aS'CA'
p2920
aF24.209
aF-10.941
aF6.466
aa(lp2921
I43
aS'VAL'
p2922
aS'C'
p2923
aF24.354
aF-9.483
aF6.865
aa(lp2924
I43
aS'VAL'
p2925
aS'O'
p2926
aF24.575
aF-9.184
aF8.039
aa(lp2927
I43
aS'VAL'
p2928
aS'H'
p2929
aF25.184
aF-11.802
aF7.943
aa(lp2930
I44
aS'THR'
p2931
aS'N'
p2932
aF24.193
aF-8.589
aF5.884
aa(lp2933
I44
aS'THR'
p2934
aS'CA'
p2935
aF24.261
aF-7.183
aF6.137
aa(lp2936
I44
aS'THR'
p2937
aS'C'
p2938
aF22.992
aF-6.516
aF5.646
aa(lp2939
I44
aS'THR'
p2940
aS'O'
p2941
aF22.638
aF-6.616
aF4.471
aa(lp2942
I44
aS'THR'
p2943
aS'H'
p2944
aF24.043
aF-8.797
aF5.063
aa(lp2945
I45
aS'TRP'
p2946
aS'N'
p2947
aF22.297
aF-5.86
aF6.565
aa(lp2948
I45
aS'TRP'
p2949
aS'CA'
p2950
aF21.155
aF-5.035
aF6.23
aa(lp2951
I45
aS'TRP'
p2952
aS'C'
p2953
aF21.659
aF-3.617
aF5.942
aa(lp2954
I45
aS'TRP'
p2955
aS'O'
p2956
aF22.549
aF-3.117
aF6.637
aa(lp2957
I45
aS'TRP'
p2958
aS'H'
p2959
aF22.479
aF-5.883
aF7.405
aa(lp2960
I46
aS'ILE'
p2961
aS'N'
p2962
aF21.068
aF-2.984
aF4.93
aa(lp2963
I46
aS'ILE'
p2964
aS'CA'
p2965
aF21.418
aF-1.603
aF4.578
aa(lp2966
I46
aS'ILE'
p2967
aS'C'
p2968
aF20.135
aF-0.771
aF4.51
aa(lp2969
I46
aS'ILE'
p2970
aS'O'
p2971
aF19.256
aF-1.111
aF3.687
aa(lp2972
I46
aS'ILE'
p2973
aS'H'
p2974
aF20.461
aF-3.335
aF4.433
aa(lp2975
I47
aS'ASN'
p2976
aS'N'
p2977
aF20.039
aF0.268
aF5.326
aa(lp2978
I47
aS'ASN'
p2979
aS'CA'
p2980
aF18.882
aF1.15
aF5.316
aa(lp2981
I47
aS'ASN'
p2982
aS'C'
p2983
aF19.042
aF2.182
aF4.191
aa(lp2984
I47
aS'ASN'
p2985
aS'O'
p2986
aF19.989
aF2.937
aF4.169
aa(lp2987
I47
aS'ASN'
p2988
aS'H'
p2989
aF20.642
aF0.482
aF5.901
aaa(lp2990
(lp2991
I76
aS'GLN'
p2992
aS'N'
p2993
aF23.197
aF3.619
aF6.218
aa(lp2994
I76
aS'GLN'
p2995
aS'CA'
p2996
aF23.962
aF2.831
aF7.173
aa(lp2997
I76
aS'GLN'
p2998
aS'C'
p2999
aF23.568
aF1.37
aF7.098
aa(lp3000
I76
aS'GLN'
p3001
aS'O'
p3002
aF22.492
aF1.004
aF6.637
aa(lp3003
I76
aS'GLN'
p3004
aS'H'
p3005
aF22.368
aF3.698
aF6.434
aa(lp3006
I77
aS'ALA'
p3007
aS'N'
p3008
aF24.458
aF0.538
aF7.607
aa(lp3009
I77
aS'ALA'
p3010
aS'CA'
p3011
aF24.438
aF-0.89
aF7.525
aa(lp3012
I77
aS'ALA'
p3013
aS'C'
p3014
aF24.717
aF-1.522
aF8.874
aa(lp3015
I77
aS'ALA'
p3016
aS'O'
p3017
aF25.306
aF-0.914
aF9.771
aa(lp3018
I77
aS'ALA'
p3019
aS'H'
p3020
aF25.141
aF0.826
aF8.043
aa(lp3021
I78
aS'TYR'
p3022
aS'N'
p3023
aF24.32
aF-2.776
aF9.002
aa(lp3024
I78
aS'TYR'
p3025
aS'CA'
p3026
aF24.486
aF-3.562
aF10.214
aa(lp3027
I78
aS'TYR'
p3028
aS'C'
p3029
aF24.584
aF-5.026
aF9.835
aa(lp3030
I78
aS'TYR'
p3031
aS'O'
p3032
aF23.788
aF-5.478
aF9.013
aa(lp3033
I78
aS'TYR'
p3034
aS'H'
p3035
aF23.934
aF-3.209
aF8.367
aa(lp3036
I79
aS'SER'
p3037
aS'N'
p3038
aF25.511
aF-5.761
aF10.416
aa(lp3039
I79
aS'SER'
p3040
aS'CA'
p3041
aF25.761
aF-7.135
aF10.069
aa(lp3042
I79
aS'SER'
p3043
aS'C'
p3044
aF25.576
aF-8.105
aF11.247
aa(lp3045
I79
aS'SER'
p3046
aS'O'
p3047
aF25.834
aF-7.803
aF12.4
aa(lp3048
I79
aS'SER'
p3049
aS'H'
p3050
aF26.024
aF-5.464
aF11.039
aa(lp3051
I80
aS'LEU'
p3052
aS'N'
p3053
aF25.2
aF-9.334
aF10.877
aa(lp3054
I80
aS'LEU'
p3055
aS'CA'
p3056
aF25.204
aF-10.473
aF11.773
aa(lp3057
I80
aS'LEU'
p3058
aS'C'
p3059
aF25.832
aF-11.665
aF11.066
aa(lp3060
I80
aS'LEU'
p3061
aS'O'
p3062
aF25.516
aF-11.928
aF9.902
aa(lp3063
I80
aS'LEU'
p3064
aS'H'
p3065
aF24.932
aF-9.523
aF10.082
aa(lp3066
I81
aS'THR'
p3067
aS'N'
p3068
aF26.705
aF-12.379
aF11.773
aa(lp3069
I81
aS'THR'
p3070
aS'CA'
p3071
aF27.312
aF-13.587
aF11.278
aa(lp3072
I81
aS'THR'
p3073
aS'C'
p3074
aF26.642
aF-14.782
aF11.904
aa(lp3075
I81
aS'THR'
p3076
aS'O'
p3077
aF26.727
aF-14.96
aF13.127
aa(lp3078
I81
aS'THR'
p3079
aS'H'
p3080
aF26.959
aF-12.163
aF12.566
aa(lp3081
I82
aS'PHE'
p3082
aS'N'
p3083
aF25.984
aF-15.611
aF11.118
aa(lp3084
I82
aS'PHE'
p3085
aS'CA'
p3086
aF25.192
aF-16.714
aF11.663
aa(lp3087
I82
aS'PHE'
p3088
aS'C'
p3089
aF26.099
aF-17.935
aF11.806
aa(lp3090
I82
aS'PHE'
p3091
aS'O'
p3092
aF26.721
aF-18.364
aF10.859
aa(lp3093
I82
aS'PHE'
p3094
aS'H'
p3095
aF25.978
aF-15.558
aF10.26
aaaaa(lp3096
g223
aS'DTVTWINQAYSLTF'
p3097
aF42.857142857142854
aF3.5
aa(lp3098
g226
aI20
aF55.00000000000001
aa(lp3099
g228
a(lp3100
(lp3101
I0
aF0.030465033072280132
a(lp3102
(lp3103
g233
(g237
S'<Z;\xe9\x8c:(@'
p3104
tp3105
Rp3106
ag233
(g237
S'\x0b)8\xc1\x14+\x1e@'
p3107
tp3108
Rp3109
aa(lp3110
g233
(g237
S't\x13\xb3d\xd7D4\xc0'
p3111
tp3112
Rp3113
ag233
(g237
S'-\xea\xf2L\xd43)\xc0'
p3114
tp3115
Rp3116
aaaa(lp3117
I1
aF0.0009671519348731947
a(lp3118
(lp3119
g233
(g237
S't\x91\xe0MH\xe6#@'
p3120
tp3121
Rp3122
ag233
(g237
S'\x05\xd6_\xec\xb0V\x13@'
p3123
tp3124
Rp3125
aa(lp3126
g233
(g237
S'\xa8,\xedq\xf3\x82\x1b@'
p3127
tp3128
Rp3129
ag233
(g237
S'bvE%\x87\t\n@'
p3130
tp3131
Rp3132
aaaaaa(lp3133
g270
a(lp3134
g272
ag274
aaaa(lp3135
(lp3136
(lp3137
(lp3138
S'3plyA00'
p3139
aS'41'
p3140
aS'47'
p3141
aS'76'
p3142
aS'82'
p3143
aa(lp3144
(lp3145
I41
aS'ASP'
p3146
aS'N'
p3147
aF63.122
aF-8.543
aF-7.195
aa(lp3148
I41
aS'ASP'
p3149
aS'CA'
p3150
aF61.863
aF-9.212
aF-6.864
aa(lp3151
I41
aS'ASP'
p3152
aS'C'
p3153
aF60.831
aF-9.222
aF-8.001
aa(lp3154
I41
aS'ASP'
p3155
aS'O'
p3156
aF60.746
aF-8.274
aF-8.79
aa(lp3157
I41
aS'ASP'
p3158
aS'H'
p3159
aF63.222
aF-7.767
aF-6.839
aa(lp3160
I42
aS'THR'
p3161
aS'N'
p3162
aF60.054
aF-10.303
aF-8.076
aa(lp3163
I42
aS'THR'
p3164
aS'CA'
p3165
aF58.916
aF-10.371
aF-8.992
aa(lp3166
I42
aS'THR'
p3167
aS'C'
p3168
aF57.566
aF-10.029
aF-8.341
aa(lp3169
I42
aS'THR'
p3170
aS'O'
p3171
aF57.101
aF-10.695
aF-7.392
aa(lp3172
I42
aS'THR'
p3173
aS'H'
p3174
aF60.17
aF-11.011
aF-7.602
aa(lp3175
I43
aS'VAL'
p3176
aS'N'
p3177
aF56.921
aF-9.01
aF-8.882
aa(lp3178
I43
aS'VAL'
p3179
aS'CA'
p3180
aF55.613
aF-8.592
aF-8.406
aa(lp3181
I43
aS'VAL'
p3182
aS'C'
p3183
aF54.554
aF-9.127
aF-9.368
aa(lp3184
I43
aS'VAL'
p3185
aS'O'
p3186
aF54.704
aF-9.04
aF-10.584
aa(lp3187
I43
aS'VAL'
p3188
aS'H'
p3189
aF57.227
aF-8.541
aF-9.535
aa(lp3190
I44
aS'THR'
p3191
aS'N'
p3192
aF53.488
aF-9.693
aF-8.817
aa(lp3193
I44
aS'THR'
p3194
aS'CA'
p3195
aF52.398
aF-10.23
aF-9.625
aa(lp3196
I44
aS'THR'
p3197
aS'C'
p3198
aF51.065
aF-9.568
aF-9.266
aa(lp3199
I44
aS'THR'
p3200
aS'O'
p3201
aF50.622
aF-9.612
aF-8.118
aa(lp3202
I44
aS'THR'
p3203
aS'H'
p3204
aF53.375
aF-9.777
aF-7.969
aa(lp3205
I45
aS'TRP'
p3206
aS'N'
p3207
aF50.432
aF-8.942
aF-10.241
aa(lp3208
I45
aS'TRP'
p3209
aS'CA'
p3210
aF49.076
aF-8.445
aF-10.048
aa(lp3211
I45
aS'TRP'
p3212
aS'C'
p3213
aF48.123
aF-9.59
aF-10.349
aa(lp3214
I45
aS'TRP'
p3215
aS'O'
p3216
aF48.348
aF-10.378
aF-11.279
aa(lp3217
I45
aS'TRP'
p3218
aS'H'
p3219
aF50.764
aF-8.793
aF-11.02
aa(lp3220
I46
aS'ILE'
p3221
aS'N'
p3222
aF47.084
aF-9.714
aF-9.536
aa(lp3223
I46
aS'ILE'
p3224
aS'CA'
p3225
aF46.047
aF-10.698
aF-9.807
aa(lp3226
I46
aS'ILE'
p3227
aS'C'
p3228
aF44.69
aF-10.029
aF-9.792
aa(lp3229
I46
aS'ILE'
p3230
aS'O'
p3231
aF44.335
aF-9.367
aF-8.833
aa(lp3232
I46
aS'ILE'
p3233
aS'H'
p3234
aF46.96
aF-9.243
aF-8.827
aa(lp3235
I47
aS'ASN'
p3236
aS'N'
p3237
aF43.938
aF-10.207
aF-10.863
aa(lp3238
I47
aS'ASN'
p3239
aS'CA'
p3240
aF42.637
aF-9.589
aF-10.977
aa(lp3241
I47
aS'ASN'
p3242
aS'C'
p3243
aF41.614
aF-10.496
aF-10.337
aa(lp3244
I47
aS'ASN'
p3245
aS'O'
p3246
aF41.479
aF-11.644
aF-10.744
aa(lp3247
I47
aS'ASN'
p3248
aS'H'
p3249
aF44.167
aF-10.686
aF-11.539
aaa(lp3250
(lp3251
I76
aS'GLN'
p3252
aS'N'
p3253
aF43.057
aF-13.831
aF-13.509
aa(lp3254
I76
aS'GLN'
p3255
aS'CA'
p3256
aF44.267
aF-13.821
aF-14.319
aa(lp3257
I76
aS'GLN'
p3258
aS'C'
p3259
aF45.335
aF-12.964
aF-13.651
aa(lp3260
I76
aS'GLN'
p3261
aS'O'
p3262
aF45.028
aF-12.029
aF-12.894
aa(lp3263
I76
aS'GLN'
p3264
aS'H'
p3265
aF42.642
aF-13.079
aF-13.466
aa(lp3266
I77
aS'ALA'
p3267
aS'N'
p3268
aF46.587
aF-13.293
aF-13.94
aa(lp3269
I77
aS'ALA'
p3270
aS'CA'
p3271
aF47.719
aF-12.66
aF-13.294
aa(lp3272
I77
aS'ALA'
p3273
aS'C'
p3274
aF48.679
aF-12.101
aF-14.327
aa(lp3275
I77
aS'ALA'
p3276
aS'O'
p3277
aF48.717
aF-12.566
aF-15.469
aa(lp3278
I77
aS'ALA'
p3279
aS'H'
p3280
aF46.801
aF-13.892
aF-14.519
aa(lp3281
I78
aS'TYR'
p3282
aS'N'
p3283
aF49.462
aF-11.113
aF-13.912
aa(lp3284
I78
aS'TYR'
p3285
aS'CA'
p3286
aF50.521
aF-10.554
aF-14.745
aa(lp3287
I78
aS'TYR'
p3288
aS'C'
p3289
aF51.658
aF-10.144
aF-13.826
aa(lp3290
I78
aS'TYR'
p3291
aS'O'
p3292
aF51.43
aF-9.642
aF-12.725
aa(lp3293
I78
aS'TYR'
p3294
aS'H'
p3295
aF49.395
aF-10.746
aF-13.137
aa(lp3296
I79
aS'SER'
p3297
aS'N'
p3298
aF52.883
aF-10.353
aF-14.274
aa(lp3299
I79
aS'SER'
p3300
aS'CA'
p3301
aF54.02
aF-10.143
aF-13.396
aa(lp3302
I79
aS'SER'
p3303
aS'C'
p3304
aF55.042
aF-9.223
aF-14.023
aa(lp3305
I79
aS'SER'
p3306
aS'O'
p3307
aF55.185
aF-9.162
aF-15.237
aa(lp3308
I79
aS'SER'
p3309
aS'H'
p3310
aF53.078
aF-10.613
aF-15.07
aa(lp3311
I80
aS'LEU'
p3312
aS'N'
p3313
aF55.768
aF-8.513
aF-13.172
aa(lp3314
I80
aS'LEU'
p3315
aS'CA'
p3316
aF56.918
aF-7.763
aF-13.637
aa(lp3317
I80
aS'LEU'
p3318
aS'C'
p3319
aF58.005
aF-7.942
aF-12.617
aa(lp3320
I80
aS'LEU'
p3321
aS'O'
p3322
aF57.752
aF-7.877
aF-11.418
aa(lp3323
I80
aS'LEU'
p3324
aS'H'
p3325
aF55.612
aF-8.453
aF-12.328
aa(lp3326
I81
aS'THR'
p3327
aS'N'
p3328
aF59.213
aF-8.182
aF-13.111
aa(lp3329
I81
aS'THR'
p3330
aS'CA'
p3331
aF60.395
aF-8.291
aF-12.269
aa(lp3332
I81
aS'THR'
p3333
aS'C'
p3334
aF61.101
aF-6.935
aF-12.301
aa(lp3335
I81
aS'THR'
p3336
aS'O'
p3337
aF61.429
aF-6.414
aF-13.364
aa(lp3338
I81
aS'THR'
p3339
aS'H'
p3340
aF59.37
aF-8.287
aF-13.95
aa(lp3341
I82
aS'PHE'
p3342
aS'N'
p3343
aF61.308
aF-6.343
aF-11.141
aa(lp3344
I82
aS'PHE'
p3345
aS'CA'
p3346
aF61.98
aF-5.058
aF-11.085
aa(lp3347
I82
aS'PHE'
p3348
aS'C'
p3349
aF63.477
aF-5.209
aF-10.904
aa(lp3350
I82
aS'PHE'
p3351
aS'O'
p3352
aF63.942
aF-5.919
aF-10.011
aa(lp3353
I82
aS'PHE'
p3354
aS'H'
p3355
aF61.07
aF-6.663
aF-10.379
aaaaa(lp3356
g223
aS'DTVTWINQAYSLTF'
p3357
aF42.857142857142854
aF3.5
aa(lp3358
g226
aI20
aF55.00000000000001
aa(lp3359
g228
a(lp3360
(lp3361
I0
aF0.025379008161766695
a(lp3362
(lp3363
g233
(g237
S'\x84;t\xd0\x06\xe5C@'
p3364
tp3365
Rp3366
ag233
(g237
S'H\x9a\xad%\xbb\x90/@'
p3367
tp3368
Rp3369
aa(lp3370
g233
(g237
S'\x1a\x84\x92\x0e~TR\xc0'
p3371
tp3372
Rp3373
ag233
(g237
S'5}\xf4f\xf2\xa5>\xc0'
p3374
tp3375
Rp3376
aaaa(lp3377
I1
aF0.0010102238031614173
a(lp3378
(lp3379
g233
(g237
S'zjO\xc1\xe9\x17\x1f@'
p3380
tp3381
Rp3382
ag233
(g237
S'*F\xf6Q\xd0w\r@'
p3383
tp3384
Rp3385
aa(lp3386
g233
(g237
S'\x0f1KT_k\x16@'
p3387
tp3388
Rp3389
ag233
(g237
S'\x1f\n@\x08\x90@\x05@'
p3390
tp3391
Rp3392
aaaaaa(lp3393
g270
a(lp3394
g272
ag274
aaaa.