(lp0
(lp1
(lp2
(lp3
(lp4
S'3lx2B00'
p5
aS'154'
p6
aS'160'
p7
aS'163'
p8
aS'169'
p9
aa(lp10
(lp11
I154
aS'SER'
p12
aS'N'
p13
aF42.076
aF18.41
aF6.985
aa(lp14
I154
aS'SER'
p15
aS'CA'
p16
aF41.332
aF17.622
aF7.963
aa(lp17
I154
aS'SER'
p18
aS'C'
p19
aF42.195
aF17.003
aF9.06
aa(lp20
I154
aS'SER'
p21
aS'O'
p22
aF43.389
aF16.752
aF8.875
aa(lp23
I154
aS'SER'
p24
aS'H'
p25
aF42.747
aF18.005
aF6.631
aa(lp26
I155
aS'ILE'
p27
aS'N'
p28
aF41.558
aF16.76
aF10.197
aa(lp29
I155
aS'ILE'
p30
aS'CA'
p31
aF42.234
aF16.283
aF11.393
aa(lp32
I155
aS'ILE'
p33
aS'C'
p34
aF41.555
aF15.018
aF11.879
aa(lp35
I155
aS'ILE'
p36
aS'O'
p37
aF40.344
aF14.96
aF11.94
aa(lp38
I155
aS'ILE'
p39
aS'H'
p40
aF40.711
aF16.869
aF10.297
aa(lp41
I156
aS'TYR'
p42
aS'N'
p43
aF42.337
aF14.005
aF12.245
aa(lp44
I156
aS'TYR'
p45
aS'CA'
p46
aF41.786
aF12.779
aF12.848
aa(lp47
I156
aS'TYR'
p48
aS'C'
p49
aF41.68
aF12.864
aF14.339
aa(lp50
I156
aS'TYR'
p51
aS'O'
p52
aF42.644
aF13.232
aF14.991
aa(lp53
I156
aS'TYR'
p54
aS'H'
p55
aF43.192
aF14.002
aF12.155
aa(lp56
I157
aS'PHE'
p57
aS'N'
p58
aF40.518
aF12.5
aF14.88
aa(lp59
I157
aS'PHE'
p60
aS'CA'
p61
aF40.352
aF12.259
aF16.303
aa(lp62
I157
aS'PHE'
p63
aS'C'
p64
aF40.541
aF10.762
aF16.598
aa(lp65
I157
aS'PHE'
p66
aS'O'
p67
aF39.817
aF9.922
aF16.07
aa(lp68
I157
aS'PHE'
p69
aS'H'
p70
aF39.799
aF12.386
aF14.422
aa(lp71
I158
aS'MET'
p72
aS'N'
p73
aF41.503
aF10.431
aF17.452
aa(lp74
I158
aS'MET'
p75
aS'CA'
p76
aF41.856
aF9.05
aF17.781
aa(lp77
I158
aS'MET'
p78
aS'C'
p79
aF41.951
aF8.887
aF19.288
aa(lp80
I158
aS'MET'
p81
aS'O'
p82
aF42.437
aF9.783
aF19.973
aa(lp83
I158
aS'MET'
p84
aS'H'
p85
aF41.98
aF11.014
aF17.867
aa(lp86
I159
aS'ALA'
p87
aS'N'
p88
aF41.502
aF7.74
aF19.789
aa(lp89
I159
aS'ALA'
p90
aS'CA'
p91
aF41.535
aF7.432
aF21.21
aa(lp92
I159
aS'ALA'
p93
aS'C'
p94
aF41.951
aF6.004
aF21.463
aa(lp95
I159
aS'ALA'
p96
aS'O'
p97
aF41.592
aF5.107
aF20.697
aa(lp98
I159
aS'ALA'
p99
aS'H'
p100
aF41.166
aF7.113
aF19.306
aa(lp101
I160
aS'THR'
p102
aS'N'
p103
aF42.725
aF5.816
aF22.529
aa(lp104
I160
aS'THR'
p105
aS'CA'
p106
aF43.056
aF4.503
aF23.116
aa(lp107
I160
aS'THR'
p108
aS'C'
p109
aF42.558
aF4.673
aF24.551
aa(lp110
I160
aS'THR'
p111
aS'O'
p112
aF42.175
aF5.79
aF24.902
aa(lp113
I160
aS'THR'
p114
aS'H'
p115
aF43.089
aF6.471
aF22.951
aaa(lp116
(lp117
I163
aS'LYS'
p118
aS'N'
p119
aF44.707
aF7.326
aF25.877
aa(lp120
I163
aS'LYS'
p121
aS'CA'
p122
aF44.915
aF8.673
aF25.298
aa(lp123
I163
aS'LYS'
p124
aS'C'
p125
aF44.114
aF9.16
aF24.093
aa(lp126
I163
aS'LYS'
p127
aS'O'
p128
aF43.686
aF8.384
aF23.244
aa(lp129
I163
aS'LYS'
p130
aS'H'
p131
aF44.417
aF6.728
aF25.331
aa(lp132
I164
aS'LEU'
p133
aS'N'
p134
aF43.961
aF10.48
aF24.026
aa(lp135
I164
aS'LEU'
p136
aS'CA'
p137
aF43.339
aF11.143
aF22.924
aa(lp138
I164
aS'LEU'
p139
aS'C'
p140
aF44.444
aF11.707
aF22.08
aa(lp141
I164
aS'LEU'
p142
aS'O'
p143
aF45.352
aF12.355
aF22.593
aa(lp144
I164
aS'LEU'
p145
aS'H'
p146
aF44.228
aF11.015
aF24.644
aa(lp147
I165
aS'THR'
p148
aS'N'
p149
aF44.385
aF11.447
aF20.785
aa(lp150
I165
aS'THR'
p151
aS'CA'
p152
aF45.337
aF12.058
aF19.917
aa(lp153
I165
aS'THR'
p154
aS'C'
p155
aF44.64
aF12.706
aF18.717
aa(lp156
I165
aS'THR'
p157
aS'O'
p158
aF43.583
aF12.249
aF18.287
aa(lp159
I165
aS'THR'
p160
aS'H'
p161
aF43.811
aF10.93
aF20.406
aa(lp162
I166
aS'PHE'
p163
aS'N'
p164
aF45.186
aF13.814
aF18.232
aa(lp165
I166
aS'PHE'
p166
aS'CA'
p167
aF44.64
aF14.535
aF17.055
aa(lp168
I166
aS'PHE'
p169
aS'C'
p170
aF45.738
aF14.524
aF16.02
aa(lp171
I166
aS'PHE'
p172
aS'O'
p173
aF46.794
aF15.078
aF16.285
aa(lp174
I166
aS'PHE'
p175
aS'H'
p176
aF45.887
aF14.181
aF18.569
aa(lp177
I167
aS'LYS'
p178
aS'N'
p179
aF45.549
aF13.801
aF14.908
aa(lp180
I167
aS'LYS'
p181
aS'CA'
p182
aF46.593
aF13.738
aF13.866
aa(lp183
I167
aS'LYS'
p184
aS'C'
p185
aF46.204
aF14.269
aF12.481
aa(lp186
I167
aS'LYS'
p187
aS'O'
p188
aF45.022
aF14.45
aF12.154
aa(lp189
I167
aS'LYS'
p190
aS'H'
p191
aF44.839
aF13.347
aF14.737
aa(lp192
I168
aS'ALA'
p193
aS'N'
p194
aF47.224
aF14.537
aF11.685
aa(lp195
I168
aS'ALA'
p196
aS'CA'
p197
aF47.026
aF15.038
aF10.34
aa(lp198
I168
aS'ALA'
p199
aS'C'
p200
aF48.225
aF14.666
aF9.485
aa(lp201
I168
aS'ALA'
p202
aS'O'
p203
aF49.368
aF14.753
aF9.931
aa(lp204
I168
aS'ALA'
p205
aS'H'
p206
aF48.048
aF14.434
aF11.908
aa(lp207
I169
aS'GLU'
p208
aS'N'
p209
aF47.937
aF14.198
aF8.277
aa(lp210
I169
aS'GLU'
p211
aS'CA'
p212
aF48.954
aF13.745
aF7.332
aa(lp213
I169
aS'GLU'
p214
aS'C'
p215
aF48.569
aF14.517
aF6.11
aa(lp216
I169
aS'GLU'
p217
aS'O'
p218
aF47.388
aF14.673
aF5.808
aa(lp219
I169
aS'GLU'
p220
aS'H'
p221
aF47.134
aF14.133
aF7.977
aaaaa(lp222
S'seq_filter'
p223
aS'SIYFMATKLTFKAE'
p224
aF42.857142857142854
aF4.0
aa(lp225
S'contacts_filter'
p226
aI23
aF65.21739130434783
aa(lp227
S'PCS_filter'
p228
a(lp229
(lp230
I0
aF0.028043401580984954
a(lp231
(lp232
cnumpy.core.multiarray
scalar
p233
(cnumpy
dtype
p234
(S'f8'
p235
I0
I1
tp236
Rp237
(I3
S'<'
p238
NNNI-1
I-1
I0
tp239
bS'F\xe9E\x0cg\x81%@'
p240
tp241
Rp242
ag233
(g237
S'y\xa4&ss\xe2\x16@'
p243
tp244
Rp245
aa(lp246
g233
(g237
S'f\xf5\xee\x87gO3@'
p247
tp248
Rp249
ag233
(g237
S'\x84\xd1!\x7f(D)@'
p250
tp251
Rp252
aaaa(lp253
I1
aF0.000699464468184204
a(lp254
(lp255
g233
(g237
S'\xae]\xfeM\xd8\xbfT@'
p256
tp257
Rp258
ag233
(g237
S'3\x9c\xd7\x18\xccQD@'
p259
tp260
Rp261
aa(lp262
g233
(g237
S'\x18\xc3\x966y\x8cW@'
p263
tp264
Rp265
ag233
(g237
S'\xd1vG4\xc42J@'
p266
tp267
Rp268
aaaaaa(lp269
S'smotif_def'
p270
a(lp271
(lp272
S'strand'
p273
aI7
aI5
aI5
aI90
aI96
aa(lp274
g273
aI7
aI4
aI6
aI102
aI108
aaaaa(lp275
(lp276
(lp277
(lp278
S'2a0aA00'
p279
aS'102'
p280
aS'108'
p281
aS'112'
p282
aS'118'
p283
aa(lp284
(lp285
I102
aS'VAL'
p286
aS'N'
p287
aF5.198
aF8.655
aF-6.394
aa(lp288
I102
aS'VAL'
p289
aS'CA'
p290
aF5.775
aF7.697
aF-5.434
aa(lp291
I102
aS'VAL'
p292
aS'C'
p293
aF5.718
aF6.278
aF-6.027
aa(lp294
I102
aS'VAL'
p295
aS'O'
p296
aF4.762
aF5.936
aF-6.727
aa(lp297
I102
aS'VAL'
p298
aS'H'
p299
aF4.341
aF8.716
aF-6.427
aa(lp300
I103
aS'LYS'
p301
aS'N'
p302
aF6.682
aF5.431
aF-5.667
aa(lp303
I103
aS'LYS'
p304
aS'CA'
p305
aF6.797
aF4.019
aF-6.053
aa(lp306
I103
aS'LYS'
p307
aS'C'
p308
aF6.932
aF3.183
aF-4.795
aa(lp309
I103
aS'LYS'
p310
aS'O'
p311
aF7.9
aF3.335
aF-4.062
aa(lp312
I103
aS'LYS'
p313
aS'H'
p314
aF7.34
aF5.741
aF-5.208
aa(lp315
I104
aS'ILE'
p316
aS'N'
p317
aF5.971
aF2.305
aF-4.526
aa(lp318
I104
aS'ILE'
p319
aS'CA'
p320
aF6.009
aF1.352
aF-3.414
aa(lp321
I104
aS'ILE'
p322
aS'C'
p323
aF6.217
aF-0.046
aF-3.999
aa(lp324
I104
aS'ILE'
p325
aS'O'
p326
aF5.621
aF-0.422
aF-5.008
aa(lp327
I104
aS'ILE'
p328
aS'H'
p329
aF5.354
aF2.215
aF-5.118
aa(lp330
I105
aS'ILE'
p331
aS'N'
p332
aF7.032
aF-0.832
aF-3.31
aa(lp333
I105
aS'ILE'
p334
aS'CA'
p335
aF7.343
aF-2.229
aF-3.591
aa(lp336
I105
aS'ILE'
p337
aS'C'
p338
aF7.02
aF-3.019
aF-2.321
aa(lp339
I105
aS'ILE'
p340
aS'O'
p341
aF7.274
aF-2.527
aF-1.221
aa(lp342
I105
aS'ILE'
p343
aS'H'
p344
aF7.471
aF-0.48
aF-2.66
aa(lp345
I106
aS'ARG'
p346
aS'N'
p347
aF6.468
aF-4.224
aF-2.478
aa(lp348
I106
aS'ARG'
p349
aS'CA'
p350
aF6.06
aF-5.148
aF-1.412
aa(lp351
I106
aS'ARG'
p352
aS'C'
p353
aF6.433
aF-6.567
aF-1.84
aa(lp354
I106
aS'ARG'
p355
aS'O'
p356
aF6.008
aF-6.989
aF-2.902
aa(lp357
I106
aS'ARG'
p358
aS'H'
p359
aF6.283
aF-4.456
aF-3.285
aa(lp360
I107
aS'GLU'
p361
aS'N'
p362
aF7.217
aF-7.315
aF-1.057
aa(lp363
I107
aS'GLU'
p364
aS'CA'
p365
aF7.633
aF-8.681
aF-1.442
aa(lp366
I107
aS'GLU'
p367
aS'C'
p368
aF7.283
aF-9.694
aF-0.347
aa(lp369
I107
aS'GLU'
p370
aS'O'
p371
aF7.746
aF-9.588
aF0.784
aa(lp372
I107
aS'GLU'
p373
aS'H'
p374
aF7.546
aF-6.964
aF-0.344
aa(lp375
I108
aS'PHE'
p376
aS'N'
p377
aF6.412
aF-10.647
aF-0.689
aa(lp378
I108
aS'PHE'
p379
aS'CA'
p380
aF5.861
aF-11.713
aF0.141
aa(lp381
I108
aS'PHE'
p382
aS'C'
p383
aF6.889
aF-12.774
aF0.566
aa(lp384
I108
aS'PHE'
p385
aS'O'
p386
aF6.976
aF-13.839
aF-0.039
aa(lp387
I108
aS'PHE'
p388
aS'H'
p389
aF6.179
aF-10.675
aF-1.516
aaa(lp390
(lp391
I112
aS'GLU'
p392
aS'N'
p393
aF5.612
aF-12.435
aF6.468
aa(lp394
I112
aS'GLU'
p395
aS'CA'
p396
aF5.678
aF-10.974
aF6.429
aa(lp397
I112
aS'GLU'
p398
aS'C'
p399
aF5.948
aF-10.491
aF4.995
aa(lp400
I112
aS'GLU'
p401
aS'O'
p402
aF6.237
aF-11.285
aF4.096
aa(lp403
I112
aS'GLU'
p404
aS'H'
p405
aF6.088
aF-12.831
aF5.871
aa(lp406
I113
aS'VAL'
p407
aS'N'
p408
aF5.883
aF-9.173
aF4.79
aa(lp409
I113
aS'VAL'
p410
aS'CA'
p411
aF6.091
aF-8.486
aF3.507
aa(lp412
I113
aS'VAL'
p413
aS'C'
p414
aF7.052
aF-7.318
aF3.7
aa(lp415
I113
aS'VAL'
p416
aS'O'
p417
aF6.781
aF-6.439
aF4.505
aa(lp418
I113
aS'VAL'
p419
aS'H'
p420
aF5.65
aF-8.678
aF5.454
aa(lp421
I114
aS'VAL'
p422
aS'N'
p423
aF8.163
aF-7.276
aF2.96
aa(lp424
I114
aS'VAL'
p425
aS'CA'
p426
aF9.099
aF-6.132
aF2.977
aa(lp427
I114
aS'VAL'
p428
aS'C'
p429
aF8.581
aF-4.996
aF2.09
aa(lp430
I114
aS'VAL'
p431
aS'O'
p432
aF8.428
aF-5.178
aF0.888
aa(lp433
I114
aS'VAL'
p434
aS'H'
p435
aF8.307
aF-7.908
aF2.395
aa(lp436
I115
aS'VAL'
p437
aS'N'
p438
aF8.297
aF-3.828
aF2.675
aa(lp439
I115
aS'VAL'
p440
aS'CA'
p441
aF7.92
aF-2.618
aF1.932
aa(lp442
I115
aS'VAL'
p443
aS'C'
p444
aF9.149
aF-1.775
aF1.64
aa(lp445
I115
aS'VAL'
p446
aS'O'
p447
aF10.003
aF-1.578
aF2.503
aa(lp448
I115
aS'VAL'
p449
aS'H'
p450
aF8.358
aF-3.753
aF3.53
aa(lp451
I116
aS'THR'
p452
aS'N'
p453
aF9.173
aF-1.206
aF0.437
aa(lp454
I116
aS'THR'
p455
aS'CA'
p456
aF10.196
aF-0.291
aF-0.091
aa(lp457
I116
aS'THR'
p458
aS'C'
p459
aF9.457
aF0.826
aF-0.836
aa(lp460
I116
aS'THR'
p461
aS'O'
p462
aF9.024
aF0.667
aF-1.973
aa(lp463
I116
aS'THR'
p464
aS'H'
p465
aF8.542
aF-1.453
aF-0.092
aa(lp466
I117
aS'ALA'
p467
aS'N'
p468
aF9.216
aF1.944
aF-0.145
aa(lp469
I117
aS'ALA'
p470
aS'CA'
p471
aF8.691
aF3.147
aF-0.78
aa(lp472
I117
aS'ALA'
p473
aS'C'
p474
aF9.834
aF4.028
aF-1.294
aa(lp475
I117
aS'ALA'
p476
aS'O'
p477
aF10.855
aF4.142
aF-0.62
aa(lp478
I117
aS'ALA'
p479
aS'H'
p480
aF9.546
aF2.037
aF0.644
aa(lp481
I118
aS'SER'
p482
aS'N'
p483
aF9.648
aF4.713
aF-2.423
aa(lp484
I118
aS'SER'
p485
aS'CA'
p486
aF10.6
aF5.684
aF-2.974
aa(lp487
I118
aS'SER'
p488
aS'C'
p489
aF9.887
aF6.706
aF-3.88
aa(lp490
I118
aS'SER'
p491
aS'O'
p492
aF9.167
aF6.345
aF-4.803
aa(lp493
I118
aS'SER'
p494
aS'H'
p495
aF8.984
aF4.51
aF-2.93
aaaaa(lp496
g223
aS'VKIIREFEVVVTAS'
p497
aF42.857142857142854
aF2.0
aa(lp498
g226
aI23
aF82.6086956521739
aa(lp499
g228
a(lp500
(lp501
I0
aF0.025570494857711467
a(lp502
(lp503
g233
(g237
S'\xb0fe\xfd\xe4\\Q@'
p504
tp505
Rp506
ag233
(g237
S'\t\x03\xb91\\[8@'
p507
tp508
Rp509
aa(lp510
g233
(g237
S"'\xbb\xc2\x1f\xb6B^\xc0"
p511
tp512
Rp513
ag233
(g237
S'\x96@\xc1\xe4\x9asE\xc0'
p514
tp515
Rp516
aaaa(lp517
I1
aF0.001003064097992318
a(lp518
(lp519
g233
(g237
S'\xdb\xd81/\x06\xd08@'
p520
tp521
Rp522
ag233
(g237
S'~\xc4\xf3\x0e\x8e:(@'
p523
tp524
Rp525
aa(lp526
g233
(g237
S'(\xb4\xfbo\xcbM1@'
p527
tp528
Rp529
ag233
(g237
S'\xde\xcb5&\xe1\x9e!@'
p530
tp531
Rp532
aaaaaa(lp533
g270
a(lp534
g272
ag274
aaaa.