(lp0
(lp1
(lp2
(lp3
(lp4
S'1x8mA02'
p5
aS'1163'
p6
aS'1169'
p7
aS'1180'
p8
aS'1186'
p9
aa(lp10
(lp11
I1163
aS'ARG'
p12
aS'N'
p13
aF24.678
aF44.289
aF97.841
aa(lp14
I1163
aS'ARG'
p15
aS'CA'
p16
aF25.135
aF43.582
aF96.674
aa(lp17
I1163
aS'ARG'
p18
aS'C'
p19
aF24.742
aF42.127
aF96.85
aa(lp20
I1163
aS'ARG'
p21
aS'O'
p22
aF24.546
aF41.674
aF97.98
aa(lp23
I1163
aS'ARG'
p24
aS'H'
p25
aF24.748
aF43.852
aF98.578
aa(lp26
I1164
aS'THR'
p27
aS'N'
p28
aF24.591
aF41.406
aF95.743
aa(lp29
I1164
aS'THR'
p30
aS'CA'
p31
aF24.257
aF39.989
aF95.814
aa(lp32
I1164
aS'THR'
p33
aS'C'
p34
aF25.506
aF39.237
aF95.393
aa(lp35
I1164
aS'THR'
p36
aS'O'
p37
aF26.039
aF39.468
aF94.311
aa(lp38
I1164
aS'THR'
p39
aS'H'
p40
aF24.677
aF41.717
aF94.946
aa(lp41
I1165
aS'ILE'
p42
aS'N'
p43
aF25.989
aF38.364
aF96.269
aa(lp44
I1165
aS'ILE'
p45
aS'CA'
p46
aF27.18
aF37.581
aF95.983
aa(lp47
I1165
aS'ILE'
p48
aS'C'
p49
aF26.811
aF36.174
aF95.517
aa(lp50
I1165
aS'ILE'
p51
aS'O'
p52
aF26.161
aF35.412
aF96.236
aa(lp53
I1165
aS'ILE'
p54
aS'H'
p55
aF25.638
aF38.211
aF97.039
aa(lp56
I1166
aS'ASN'
p57
aS'N'
p58
aF27.221
aF35.84
aF94.298
aa(lp59
I1166
aS'ASN'
p60
aS'CA'
p61
aF26.936
aF34.524
aF93.73
aa(lp62
I1166
aS'ASN'
p63
aS'C'
p64
aF28.228
aF33.727
aF93.653
aa(lp65
I1166
aS'ASN'
p66
aS'O'
p67
aF29.097
aF34.02
aF92.835
aa(lp68
I1166
aS'ASN'
p69
aS'H'
p70
aF27.667
aF36.362
aF93.781
aa(lp71
I1167
aS'LYS'
p72
aS'N'
p73
aF28.361
aF32.727
aF94.517
aa(lp74
I1167
aS'LYS'
p75
aS'CA'
p76
aF29.567
aF31.904
aF94.542
aa(lp77
I1167
aS'LYS'
p78
aS'C'
p79
aF29.456
aF30.733
aF93.56
aa(lp80
I1167
aS'LYS'
p81
aS'O'
p82
aF28.692
aF29.801
aF93.795
aa(lp83
I1167
aS'LYS'
p84
aS'H'
p85
aF27.765
aF32.508
aF95.097
aa(lp86
I1168
aS'TYR'
p87
aS'N'
p88
aF30.204
aF30.795
aF92.454
aa(lp89
I1168
aS'TYR'
p90
aS'CA'
p91
aF30.18
aF29.731
aF91.455
aa(lp92
I1168
aS'TYR'
p93
aS'C'
p94
aF31.083
aF28.585
aF91.82
aa(lp95
I1168
aS'TYR'
p96
aS'O'
p97
aF30.62
aF27.451
aF91.882
aa(lp98
I1168
aS'TYR'
p99
aS'H'
p100
aF30.732
aF31.448
aF92.266
aa(lp101
I1169
aS'PHE'
p102
aS'N'
p103
aF32.368
aF28.87
aF92.036
aa(lp104
I1169
aS'PHE'
p105
aS'CA'
p106
aF33.336
aF27.833
aF92.408
aa(lp107
I1169
aS'PHE'
p108
aS'C'
p109
aF33.785
aF27.935
aF93.872
aa(lp110
I1169
aS'PHE'
p111
aS'O'
p112
aF34.636
aF28.761
aF94.203
aa(lp113
I1169
aS'PHE'
p114
aS'H'
p115
aF32.701
aF29.66
aF91.972
aaa(lp116
(lp117
I1180
aS'SER'
p118
aS'N'
p119
aF38.873
aF29.719
aF93.652
aa(lp120
I1180
aS'SER'
p121
aS'CA'
p122
aF37.578
aF30.048
aF94.246
aa(lp123
I1180
aS'SER'
p124
aS'C'
p125
aF37.168
aF31.284
aF93.475
aa(lp126
I1180
aS'SER'
p127
aS'O'
p128
aF37.905
aF32.263
aF93.441
aa(lp129
I1180
aS'SER'
p130
aS'H'
p131
aF39.368
aF30.407
aF93.504
aa(lp132
I1181
aS'MET'
p133
aS'N'
p134
aF36.01
aF31.246
aF92.838
aa(lp135
I1181
aS'MET'
p136
aS'CA'
p137
aF35.573
aF32.392
aF92.059
aa(lp138
I1181
aS'MET'
p139
aS'C'
p140
aF34.104
aF32.681
aF92.284
aa(lp141
I1181
aS'MET'
p142
aS'O'
p143
aF33.324
aF31.786
aF92.639
aa(lp144
I1181
aS'MET'
p145
aS'H'
p146
aF35.469
aF30.578
aF92.842
aa(lp147
I1182
aS'GLY'
p148
aS'N'
p149
aF33.73
aF33.94
aF92.068
aa(lp150
I1182
aS'GLY'
p151
aS'CA'
p152
aF32.349
aF34.319
aF92.233
aa(lp153
I1182
aS'GLY'
p154
aS'C'
p155
aF31.997
aF35.566
aF91.464
aa(lp156
I1182
aS'GLY'
p157
aS'O'
p158
aF32.854
aF36.227
aF90.878
aa(lp159
I1182
aS'GLY'
p160
aS'H'
p161
aF34.258
aF34.575
aF91.829
aa(lp162
I1183
aS'LEU'
p163
aS'N'
p164
aF30.708
aF35.878
aF91.475
aa(lp165
I1183
aS'LEU'
p166
aS'CA'
p167
aF30.181
aF37.051
aF90.807
aa(lp168
I1183
aS'LEU'
p169
aS'C'
p170
aF29.323
aF37.834
aF91.813
aa(lp171
I1183
aS'LEU'
p172
aS'O'
p173
aF28.33
aF37.311
aF92.364
aa(lp174
I1183
aS'LEU'
p175
aS'H'
p176
aF30.11
aF35.407
aF91.876
aa(lp177
I1184
aS'THR'
p178
aS'N'
p179
aF29.72
aF39.084
aF92.046
aa(lp180
I1184
aS'THR'
p181
aS'CA'
p182
aF29.016
aF39.964
aF92.98
aa(lp183
I1184
aS'THR'
p184
aS'C'
p185
aF28.403
aF41.144
aF92.237
aa(lp186
I1184
aS'THR'
p187
aS'O'
p188
aF29.079
aF41.799
aF91.451
aa(lp189
I1184
aS'THR'
p190
aS'H'
p191
aF30.403
aF39.446
aF91.669
aa(lp192
I1185
aS'GLU'
p193
aS'N'
p194
aF27.124
aF41.406
aF92.474
aa(lp195
I1185
aS'GLU'
p196
aS'CA'
p197
aF26.479
aF42.522
aF91.795
aa(lp198
I1185
aS'GLU'
p199
aS'C'
p200
aF25.909
aF43.52
aF92.791
aa(lp201
I1185
aS'GLU'
p202
aS'O'
p203
aF25.137
aF43.158
aF93.681
aa(lp204
I1185
aS'GLU'
p205
aS'H'
p206
aF26.621
aF40.961
aF93.012
aa(lp207
I1186
aS'LEU'
p208
aS'N'
p209
aF26.315
aF44.776
aF92.643
aa(lp210
I1186
aS'LEU'
p211
aS'CA'
p212
aF25.838
aF45.843
aF93.502
aa(lp213
I1186
aS'LEU'
p214
aS'C'
p215
aF24.471
aF46.31
aF93.038
aa(lp216
I1186
aS'LEU'
p217
aS'O'
p218
aF24.275
aF46.559
aF91.847
aa(lp219
I1186
aS'LEU'
p220
aS'H'
p221
aF26.874
aF45.03
aF92.041
aaaaa(lp222
S'seq_filter'
p223
aS'RTINKYFSMGLTEL'
p224
aF42.857142857142854
aF6.0
aa(lp225
S'contacts_filter'
p226
aI22
aF77.27272727272727
aa(lp227
S'PCS_filter'
p228
a(lp229
(lp230
I0
aF0.035839161553310774
a(lp231
(lp232
cnumpy.core.multiarray
scalar
p233
(cnumpy
dtype
p234
(S'f8'
p235
I0
I1
tp236
Rp237
(I3
S'<'
p238
NNNI-1
I-1
I0
tp239
bS'\x80\xfcu%\xde\xacT@'
p240
tp241
Rp242
ag233
(g237
S'm[\x16\x93\xe8\x9fG@'
p243
tp244
Rp245
aa(lp246
g233
(g237
S'\xdc\x87\xb38\x98\xc9X@'
p247
tp248
Rp249
ag233
(g237
S'\x8b\xbcf\x84i\xaeD@'
p250
tp251
Rp252
aaaa(lp253
I1
aF0.0007065088916538963
a(lp254
(lp255
g233
(g237
S'\xff\xfd\xf7oK$\x04@'
p256
tp257
Rp258
ag233
(g237
S'|\xca\xc9.\x1a\xf3\xc5?'
p259
tp260
Rp261
aa(lp262
g233
(g237
S'\x8ei3\x0e\x92\x02\x01@'
p263
tp264
Rp265
ag233
(g237
S'\n\xa9\xcf\xc3\xfd\x9e\xd9?'
p266
tp267
Rp268
aaaaaa(lp269
S'smotif_def'
p270
a(lp271
(lp272
S'strand'
p273
aI7
aI5
aI5
aI90
aI96
aa(lp274
g273
aI7
aI6
aI4
aI104
aI110
aaaaa(lp275
(lp276
(lp277
(lp278
S'1sr3A00'
p279
aS'79'
p280
aS'85'
p281
aS'90'
p282
aS'96'
p283
aa(lp284
(lp285
I79
aS'LYS'
p286
aS'N'
p287
aF1.197
aF14.376
aF6.46
aa(lp288
I79
aS'LYS'
p289
aS'CA'
p290
aF0.077
aF13.46
aF6.617
aa(lp291
I79
aS'LYS'
p292
aS'C'
p293
aF-0.756
aF13.483
aF5.348
aa(lp294
I79
aS'LYS'
p295
aS'O'
p296
aF-0.943
aF14.539
aF4.739
aa(lp297
I79
aS'LYS'
p298
aS'H'
p299
aF1.239
aF15.058
aF6.983
aa(lp300
I80
aS'VAL'
p301
aS'N'
p302
aF-1.273
aF12.32
aF4.993
aa(lp303
I80
aS'VAL'
p304
aS'CA'
p305
aF-2.214
aF12.123
aF3.918
aa(lp306
I80
aS'VAL'
p307
aS'C'
p308
aF-3.34
aF11.261
aF4.45
aa(lp309
I80
aS'VAL'
p310
aS'O'
p311
aF-3.166
aF10.438
aF5.357
aa(lp312
I80
aS'VAL'
p313
aS'H'
p314
aF-1.059
aF11.606
aF5.421
aa(lp315
I81
aS'THR'
p316
aS'N'
p317
aF-4.481
aF11.401
aF3.802
aa(lp318
I81
aS'THR'
p319
aS'CA'
p320
aF-5.557
aF10.443
aF3.853
aa(lp321
I81
aS'THR'
p322
aS'C'
p323
aF-6.071
aF10.317
aF2.423
aa(lp324
I81
aS'THR'
p325
aS'O'
p326
aF-6.411
aF11.326
aF1.811
aa(lp327
I81
aS'THR'
p328
aS'H'
p329
aF-4.537
aF11.996
aF3.184
aa(lp330
I82
aS'PHE'
p331
aS'N'
p332
aF-6.039
aF9.121
aF1.841
aa(lp333
I82
aS'PHE'
p334
aS'CA'
p335
aF-6.649
aF8.829
aF0.549
aa(lp336
I82
aS'PHE'
p337
aS'C'
p338
aF-7.423
aF7.521
aF0.603
aa(lp339
I82
aS'PHE'
p340
aS'O'
p341
aF-7.27
aF6.741
aF1.537
aa(lp342
I82
aS'PHE'
p343
aS'H'
p344
aF-5.745
aF8.452
aF2.295
aa(lp345
I83
aS'THR'
p346
aS'N'
p347
aF-8.189
aF7.239
aF-0.444
aa(lp348
I83
aS'THR'
p349
aS'CA'
p350
aF-8.868
aF5.971
aF-0.648
aa(lp351
I83
aS'THR'
p352
aS'C'
p353
aF-8.294
aF5.374
aF-1.934
aa(lp354
I83
aS'THR'
p355
aS'O'
p356
aF-7.951
aF6.111
aF-2.864
aa(lp357
I83
aS'THR'
p358
aS'H'
p359
aF-8.25
aF7.791
aF-1.101
aa(lp360
I84
aS'ILE'
p361
aS'N'
p362
aF-8.175
aF4.052
aF-2.005
aa(lp363
I84
aS'ILE'
p364
aS'CA'
p365
aF-7.743
aF3.315
aF-3.18
aa(lp366
I84
aS'ILE'
p367
aS'C'
p368
aF-8.821
aF2.28
aF-3.46
aa(lp369
I84
aS'ILE'
p370
aS'O'
p371
aF-9.365
aF1.68
aF-2.536
aa(lp372
I84
aS'ILE'
p373
aS'H'
p374
aF-8.441
aF3.557
aF-1.354
aa(lp375
I85
aS'TYR'
p376
aS'N'
p377
aF-9.14
aF2.086
aF-4.73
aa(lp378
I85
aS'TYR'
p379
aS'CA'
p380
aF-10.19
aF1.214
aF-5.21
aa(lp381
I85
aS'TYR'
p382
aS'C'
p383
aF-9.657
aF0.404
aF-6.383
aa(lp384
I85
aS'TYR'
p385
aS'O'
p386
aF-8.521
aF0.58
aF-6.818
aa(lp387
I85
aS'TYR'
p388
aS'H'
p389
aF-8.701
aF2.495
aF-5.346
aaa(lp390
(lp391
I90
aS'SER'
p392
aS'N'
p393
aF-13.157
aF-0.85
aF-2.338
aa(lp394
I90
aS'SER'
p395
aS'CA'
p396
aF-12.162
aF0.149
aF-1.965
aa(lp397
I90
aS'SER'
p398
aS'C'
p399
aF-11.698
aF0.007
aF-0.511
aa(lp400
I90
aS'SER'
p401
aS'O'
p402
aF-12.396
aF-0.599
aF0.31
aa(lp403
I90
aS'SER'
p404
aS'H'
p405
aF-13.637
aF-1.191
aF-1.711
aa(lp406
I91
aS'VAL'
p407
aS'N'
p408
aF-10.539
aF0.591
aF-0.194
aa(lp409
I91
aS'VAL'
p410
aS'CA'
p411
aF-9.901
aF0.638
aF1.121
aa(lp412
I91
aS'VAL'
p413
aS'C'
p414
aF-9.383
aF2.049
aF1.346
aa(lp415
I91
aS'VAL'
p416
aS'O'
p417
aF-9.09
aF2.762
aF0.381
aa(lp418
I91
aS'VAL'
p419
aS'H'
p420
aF-10.12
aF1.032
aF-0.802
aa(lp421
I92
aS'ASP'
p422
aS'N'
p423
aF-9.258
aF2.444
aF2.608
aa(lp424
I92
aS'ASP'
p425
aS'CA'
p426
aF-8.688
aF3.735
aF2.962
aa(lp427
I92
aS'ASP'
p428
aS'C'
p429
aF-7.201
aF3.566
aF3.241
aa(lp430
I92
aS'ASP'
p431
aS'O'
p432
aF-6.726
aF2.47
aF3.56
aa(lp433
I92
aS'ASP'
p434
aS'H'
p435
aF-9.428
aF1.885
aF3.239
aa(lp436
I93
aS'VAL'
p437
aS'N'
p438
aF-6.455
aF4.661
aF3.148
aa(lp439
I93
aS'VAL'
p440
aS'CA'
p441
aF-5.036
aF4.734
aF3.42
aa(lp442
I93
aS'VAL'
p443
aS'C'
p444
aF-4.767
aF6.025
aF4.188
aa(lp445
I93
aS'VAL'
p446
aS'O'
p447
aF-4.963
aF7.125
aF3.668
aa(lp448
I93
aS'VAL'
p449
aS'H'
p450
aF-6.817
aF5.404
aF2.909
aa(lp451
I94
aS'SER'
p452
aS'N'
p453
aF-4.233
aF5.884
aF5.394
aa(lp454
I94
aS'SER'
p455
aS'CA'
p456
aF-3.43
aF6.896
aF6.043
aa(lp457
I94
aS'SER'
p458
aS'C'
p459
aF-1.997
aF6.645
aF5.589
aa(lp460
I94
aS'SER'
p461
aS'O'
p462
aF-1.516
aF5.514
aF5.67
aa(lp463
I94
aS'SER'
p464
aS'H'
p465
aF-4.064
aF5.084
aF5.66
aa(lp466
I95
aS'TYR'
p467
aS'N'
p468
aF-1.315
aF7.671
aF5.091
aa(lp469
I95
aS'TYR'
p470
aS'CA'
p471
aF0.131
aF7.694
aF5.005
aa(lp472
I95
aS'TYR'
p473
aS'C'
p474
aF0.564
aF8.958
aF5.728
aa(lp475
I95
aS'TYR'
p476
aS'O'
p477
aF-0.22
aF9.895
aF5.87
aa(lp478
I95
aS'TYR'
p479
aS'H'
p480
aF-1.648
aF8.464
aF5.084
aa(lp481
I96
aS'GLU'
p482
aS'N'
p483
aF1.823
aF9.045
aF6.115
aa(lp484
I96
aS'GLU'
p485
aS'CA'
p486
aF2.404
aF10.271
aF6.598
aa(lp487
I96
aS'GLU'
p488
aS'C'
p489
aF3.85
aF10.25
aF6.152
aa(lp490
I96
aS'GLU'
p491
aS'O'
p492
aF4.64
aF9.421
aF6.612
aa(lp493
I96
aS'GLU'
p494
aS'H'
p495
aF2.367
aF8.387
aF6.01
aaaaa(lp496
g223
aS'KVTFTIYSVDVSYE'
p497
aF42.857142857142854
aF1.5
aa(lp498
g226
aI22
aF86.36363636363636
aa(lp499
g228
a(lp500
(lp501
I0
aF0.023419571289036854
a(lp502
(lp503
g233
(g237
S'\xa0R\xa4"\xa7\x9c7@'
p504
tp505
Rp506
ag233
(g237
S'\xab\xa0\xb2\x0b1\xa6\x1e@'
p507
tp508
Rp509
aa(lp510
g233
(g237
S'\xf6\xbfG\x0f\\\x05C\xc0'
p511
tp512
Rp513
ag233
(g237
S'Z\x04\x93Lcs(\xc0'
p514
tp515
Rp516
aaaa(lp517
I1
aF0.0008081545637865957
a(lp518
(lp519
g233
(g237
S'\xce\x1fm%`\xd1G@'
p520
tp521
Rp522
ag233
(g237
S'\x8eh\x0e\xd0\xd5"5@'
p523
tp524
Rp525
aa(lp526
g233
(g237
S'\xfa\xde\xa32\xcf\xedH@'
p527
tp528
Rp529
ag233
(g237
S'\x80h\x86\x9b\xacn:@'
p530
tp531
Rp532
aaaaaa(lp533
g270
a(lp534
g272
ag274
aaaa.