(lp0
(lp1
(lp2
(lp3
(lp4
S'4h1zF01'
p5
aS'5'
p6
aS'14'
p7
aS'51'
p8
aS'59'
p9
aa(lp10
(lp11
I5
aS'VAL'
p12
aS'N'
p13
aF-2.867
aF-16.1
aF-80.351
aa(lp14
I5
aS'VAL'
p15
aS'CA'
p16
aF-1.541
aF-16.33
aF-79.791
aa(lp17
I5
aS'VAL'
p18
aS'C'
p19
aF-0.819
aF-17.338
aF-80.674
aa(lp20
I5
aS'VAL'
p21
aS'O'
p22
aF-1.369
aF-18.399
aF-81.019
aa(lp23
I5
aS'VAL'
p24
aS'H'
p25
aF-3.516
aF-16.364
aF-79.852
aa(lp26
I6
aS'LYS'
p27
aS'N'
p28
aF0.412
aF-17.003
aF-81.03
aa(lp29
I6
aS'LYS'
p30
aS'CA'
p31
aF1.228
aF-17.856
aF-81.898
aa(lp32
I6
aS'LYS'
p33
aS'C'
p34
aF2.41
aF-18.502
aF-81.181
aa(lp35
I6
aS'LYS'
p36
aS'O'
p37
aF2.655
aF-19.695
aF-81.352
aa(lp38
I6
aS'LYS'
p39
aS'H'
p40
aF0.802
aF-16.279
aF-80.779
aa(lp41
I7
aS'LYS'
p42
aS'N'
p43
aF3.164
aF-17.718
aF-80.406
aa(lp44
I7
aS'LYS'
p45
aS'CA'
p46
aF4.288
aF-18.277
aF-79.633
aa(lp47
I7
aS'LYS'
p48
aS'C'
p49
aF4.429
aF-17.661
aF-78.244
aa(lp50
I7
aS'LYS'
p51
aS'O'
p52
aF4.018
aF-16.518
aF-78.013
aa(lp53
I7
aS'LYS'
p54
aS'H'
p55
aF3.047
aF-16.871
aF-80.312
aa(lp56
I8
aS'ILE'
p57
aS'N'
p58
aF5.039
aF-18.426
aF-77.346
aa(lp59
I8
aS'ILE'
p60
aS'CA'
p61
aF5.262
aF-18.014
aF-75.966
aa(lp62
I8
aS'ILE'
p63
aS'C'
p64
aF6.674
aF-18.39
aF-75.542
aa(lp65
I8
aS'ILE'
p66
aS'O'
p67
aF7.107
aF-19.511
aF-75.754
aa(lp68
I8
aS'ILE'
p69
aS'H'
p70
aF5.34
aF-19.212
aF-77.524
aa(lp71
I9
aS'GLU'
p72
aS'N'
p73
aF7.397
aF-17.452
aF-74.947
aa(lp74
I9
aS'GLU'
p75
aS'CA'
p76
aF8.775
aF-17.704
aF-74.534
aa(lp77
I9
aS'GLU'
p78
aS'C'
p79
aF8.934
aF-17.192
aF-73.13
aa(lp80
I9
aS'GLU'
p81
aS'O'
p82
aF8.356
aF-16.172
aF-72.784
aa(lp83
I9
aS'GLU'
p84
aS'H'
p85
aF7.11
aF-16.66
aF-74.772
aa(lp86
I10
aS'SER'
p87
aS'N'
p88
aF9.74
aF-17.873
aF-72.323
aa(lp89
I10
aS'SER'
p90
aS'CA'
p91
aF9.996
aF-17.392
aF-70.971
aa(lp92
I10
aS'SER'
p93
aS'C'
p94
aF11.491
aF-17.189
aF-70.672
aa(lp95
I10
aS'SER'
p96
aS'O'
p97
aF12.355
aF-17.868
aF-71.24
aa(lp98
I10
aS'SER'
p99
aS'H'
p100
aF10.142
aF-18.603
aF-72.534
aa(lp101
I11
aS'PHE'
p102
aS'N'
p103
aF11.781
aF-16.238
aF-69.786
aa(lp104
I11
aS'PHE'
p105
aS'CA'
p106
aF13.138
aF-15.817
aF-69.507
aa(lp107
I11
aS'PHE'
p108
aS'C'
p109
aF13.257
aF-15.481
aF-68.042
aa(lp110
I11
aS'PHE'
p111
aS'O'
p112
aF12.252
aF-15.186
aF-67.396
aa(lp113
I11
aS'PHE'
p114
aS'H'
p115
aF11.185
aF-15.819
aF-69.329
aa(lp116
I12
aS'THR'
p117
aS'N'
p118
aF14.489
aF-15.5
aF-67.525
aa(lp119
I12
aS'THR'
p120
aS'CA'
p121
aF14.785
aF-14.838
aF-66.253
aa(lp122
I12
aS'THR'
p123
aS'C'
p124
aF15.54
aF-13.556
aF-66.556
aa(lp125
I12
aS'THR'
p126
aS'O'
p127
aF16.166
aF-13.405
aF-67.614
aa(lp128
I12
aS'THR'
p129
aS'H'
p130
aF15.162
aF-15.888
aF-67.893
aa(lp131
I13
aS'LEU'
p132
aS'N'
p133
aF15.45
aF-12.628
aF-65.62
aa(lp134
I13
aS'LEU'
p135
aS'CA'
p136
aF16.156
aF-11.371
aF-65.704
aa(lp137
I13
aS'LEU'
p138
aS'C'
p139
aF16.793
aF-11.156
aF-64.346
aa(lp140
I13
aS'LEU'
p141
aS'O'
p142
aF16.109
aF-11.219
aF-63.315
aa(lp143
I13
aS'LEU'
p144
aS'H'
p145
aF14.971
aF-12.714
aF-64.911
aa(lp146
I14
aS'THR'
p147
aS'N'
p148
aF18.101
aF-10.919
aF-64.335
aa(lp149
I14
aS'THR'
p150
aS'CA'
p151
aF18.832
aF-10.779
aF-63.079
aa(lp152
I14
aS'THR'
p153
aS'C'
p154
aF19.409
aF-9.388
aF-62.846
aa(lp155
I14
aS'THR'
p156
aS'O'
p157
aF19.996
aF-8.789
aF-63.74
aa(lp158
I14
aS'THR'
p159
aS'H'
p160
aF18.583
aF-10.836
aF-65.042
aaa(lp161
(lp162
I51
aS'ARG'
p163
aS'N'
p164
aF15.994
aF-11.308
aF-59.063
aa(lp165
I51
aS'ARG'
p166
aS'CA'
p167
aF15.687
aF-12.083
aF-60.256
aa(lp168
I51
aS'ARG'
p169
aS'C'
p170
aF14.182
aF-12.258
aF-60.422
aa(lp171
I51
aS'ARG'
p172
aS'O'
p173
aF13.454
aF-12.495
aF-59.447
aa(lp174
I51
aS'ARG'
p175
aS'H'
p176
aF15.342
aF-11.241
aF-58.506
aa(lp177
I52
aS'SER'
p178
aS'N'
p179
aF13.707
aF-12.141
aF-61.653
aa(lp180
I52
aS'SER'
p181
aS'CA'
p182
aF12.3
aF-12.388
aF-61.926
aa(lp183
I52
aS'SER'
p184
aS'C'
p185
aF12.126
aF-13.134
aF-63.245
aa(lp186
I52
aS'SER'
p187
aS'O'
p188
aF13.069
aF-13.264
aF-64.013
aa(lp189
I52
aS'SER'
p190
aS'H'
p191
aF14.177
aF-11.922
aF-62.339
aa(lp192
I53
aS'VAL'
p193
aS'N'
p194
aF10.919
aF-13.643
aF-63.476
aa(lp195
I53
aS'VAL'
p196
aS'CA'
p197
aF10.601
aF-14.424
aF-64.65
aa(lp198
I53
aS'VAL'
p199
aS'C'
p200
aF9.701
aF-13.619
aF-65.562
aa(lp201
I53
aS'VAL'
p202
aS'O'
p203
aF8.675
aF-13.086
aF-65.115
aa(lp204
I53
aS'VAL'
p205
aS'H'
p206
aF10.254
aF-13.538
aF-62.941
aa(lp207
I54
aS'LEU'
p208
aS'N'
p209
aF10.078
aF-13.522
aF-66.84
aa(lp210
I54
aS'LEU'
p211
aS'CA'
p212
aF9.276
aF-12.776
aF-67.809
aa(lp213
I54
aS'LEU'
p214
aS'C'
p215
aF8.769
aF-13.7
aF-68.891
aa(lp216
I54
aS'LEU'
p217
aS'O'
p218
aF9.412
aF-14.694
aF-69.226
aa(lp219
I54
aS'LEU'
p220
aS'H'
p221
aF10.791
aF-13.879
aF-67.163
aa(lp222
I55
aS'VAL'
p223
aS'N'
p224
aF7.619
aF-13.352
aF-69.452
aa(lp225
I55
aS'VAL'
p226
aS'CA'
p227
aF7.05
aF-14.128
aF-70.523
aa(lp228
I55
aS'VAL'
p229
aS'C'
p230
aF6.81
aF-13.192
aF-71.692
aa(lp231
I55
aS'VAL'
p232
aS'O'
p233
aF6.368
aF-12.059
aF-71.509
aa(lp234
I55
aS'VAL'
p235
aS'H'
p236
aF7.156
aF-12.665
aF-69.221
aa(lp237
I56
aS'ARG'
p238
aS'N'
p239
aF7.138
aF-13.662
aF-72.882
aa(lp240
I56
aS'ARG'
p241
aS'CA'
p242
aF6.892
aF-12.889
aF-74.082
aa(lp243
I56
aS'ARG'
p244
aS'C'
p245
aF5.893
aF-13.691
aF-74.887
aa(lp246
I56
aS'ARG'
p247
aS'O'
p248
aF6.152
aF-14.854
aF-75.228
aa(lp249
I56
aS'ARG'
p250
aS'H'
p251
aF7.505
aF-14.428
aF-73.016
aa(lp252
I57
aS'ILE'
p253
aS'N'
p254
aF4.742
aF-13.08
aF-75.167
aa(lp255
I57
aS'ILE'
p256
aS'CA'
p257
aF3.731
aF-13.725
aF-75.976
aa(lp258
I57
aS'ILE'
p259
aS'C'
p260
aF3.54
aF-12.966
aF-77.277
aa(lp261
I57
aS'ILE'
p262
aS'O'
p263
aF3.249
aF-11.769
aF-77.278
aa(lp264
I57
aS'ILE'
p265
aS'H'
p266
aF4.534
aF-12.291
aF-74.894
aa(lp267
I58
aS'GLU'
p268
aS'N'
p269
aF3.698
aF-13.671
aF-78.39
aa(lp270
I58
aS'GLU'
p271
aS'CA'
p272
aF3.486
aF-13.057
aF-79.692
aa(lp273
I58
aS'GLU'
p274
aS'C'
p275
aF2.295
aF-13.674
aF-80.407
aa(lp276
I58
aS'GLU'
p277
aS'O'
p278
aF2.075
aF-14.887
aF-80.35
aa(lp279
I58
aS'GLU'
p280
aS'H'
p281
aF3.926
aF-14.5
aF-78.413
aa(lp282
I59
aS'THR'
p283
aS'N'
p284
aF1.525
aF-12.829
aF-81.082
aa(lp285
I59
aS'THR'
p286
aS'CA'
p287
aF0.351
aF-13.292
aF-81.79
aa(lp288
I59
aS'THR'
p289
aS'C'
p290
aF0.658
aF-13.518
aF-83.256
aa(lp291
I59
aS'THR'
p292
aS'O'
p293
aF1.697
aF-13.118
aF-83.744
aa(lp294
I59
aS'THR'
p295
aS'H'
p296
aF1.669
aF-11.983
aF-81.14
aaaaa(lp297
S'seq_filter'
p298
aS'VKKIESFTLTRSVLVRIET'
p299
aF42.10526315789473
aF2.0
aa(lp300
S'contacts_filter'
p301
aI32
aF81.25
aa(lp302
S'PCS_filter'
p303
a(lp304
(lp305
I0
aF0.045643464321957115
a(lp306
(lp307
cnumpy.core.multiarray
scalar
p308
(cnumpy
dtype
p309
(S'f8'
p310
I0
I1
tp311
Rp312
(I3
S'<'
p313
NNNI-1
I-1
I0
tp314
bS'"\xd5\xfcV\x80\xdcC@'
p315
tp316
Rp317
ag308
(g312
S'\x14\xbdb\x8b\xe3:.@'
p318
tp319
Rp320
aa(lp321
g308
(g312
S'\xffaJ/\x82\x16R\xc0'
p322
tp323
Rp324
ag308
(g312
S'\x82J\x03\xbc\xdf\xcb<\xc0'
p325
tp326
Rp327
aaaa(lp328
I1
aF0.0014014033802969659
a(lp329
(lp330
g308
(g312
S'\x02\x9a\xc3\xfc\xd0\x11W@'
p331
tp332
Rp333
ag308
(g312
S'\xd4>\xf6\xbfZ]F@'
p334
tp335
Rp336
aa(lp337
g308
(g312
S'\x8e\x80\xbe\xd4\xde\xf1M@'
p338
tp339
Rp340
ag308
(g312
S'\x97z\xef\xe1R>9@'
p341
tp342
Rp343
aaaaaa(lp344
S'smotif_def'
p345
a(lp346
(lp347
S'strand'
p348
aI10
aI4
aI3
aI89
aI98
aa(lp349
g348
aI9
aI4
aI4
aI102
aI110
aaaaa(lp350
(lp351
(lp352
(lp353
S'2ppgC01'
p354
ag6
aS'14'
p355
aS'51'
p356
aS'59'
p357
aa(lp358
(lp359
I5
aS'VAL'
p360
aS'N'
p361
aF-20.887
aF12.437
aF-2.67
aa(lp362
I5
aS'VAL'
p363
aS'CA'
p364
aF-21.887
aF13.505
aF-2.767
aa(lp365
I5
aS'VAL'
p366
aS'C'
p367
aF-22.112
aF13.943
aF-4.217
aa(lp368
I5
aS'VAL'
p369
aS'O'
p370
aF-21.174
aF14.345
aF-4.909
aa(lp371
I5
aS'VAL'
p372
aS'H'
p373
aF-20.169
aF12.666
aF-2.256
aa(lp374
I6
aS'LYS'
p375
aS'N'
p376
aF-23.361
aF13.847
aF-4.67
aa(lp377
I6
aS'LYS'
p378
aS'CA'
p379
aF-23.719
aF14.22
aF-6.039
aa(lp380
I6
aS'LYS'
p381
aS'C'
p382
aF-24.293
aF15.638
aF-6.109
aa(lp383
I6
aS'LYS'
p384
aS'O'
p385
aF-23.88
aF16.441
aF-6.947
aa(lp386
I6
aS'LYS'
p387
aS'H'
p388
aF-24.021
aF13.566
aF-4.196
aa(lp389
I7
aS'LYS'
p390
aS'N'
p391
aF-25.219
aF15.942
aF-5.202
aa(lp392
I7
aS'LYS'
p393
aS'CA'
p394
aF-26.028
aF17.156
aF-5.289
aa(lp395
I7
aS'LYS'
p396
aS'C'
p397
aF-26.353
aF17.766
aF-3.908
aa(lp398
I7
aS'LYS'
p399
aS'O'
p400
aF-26.614
aF17.04
aF-2.947
aa(lp401
I7
aS'LYS'
p402
aS'H'
p403
aF-25.396
aF15.45
aF-4.519
aa(lp404
I8
aS'ILE'
p405
aS'N'
p406
aF-26.329
aF19.094
aF-3.816
aa(lp407
I8
aS'ILE'
p408
aS'CA'
p409
aF-26.722
aF19.803
aF-2.594
aa(lp410
I8
aS'ILE'
p411
aS'C'
p412
aF-27.714
aF20.903
aF-2.922
aa(lp413
I8
aS'ILE'
p414
aS'O'
p415
aF-27.432
aF21.747
aF-3.771
aa(lp416
I8
aS'ILE'
p417
aS'H'
p418
aF-26.085
aF19.611
aF-4.458
aa(lp419
I9
aS'GLU'
p420
aS'N'
p421
aF-28.858
aF20.919
aF-2.24
aa(lp422
I9
aS'GLU'
p423
aS'CA'
p424
aF-29.827
aF22.007
aF-2.411
aa(lp425
I9
aS'GLU'
p426
aS'C'
p427
aF-30.165
aF22.705
aF-1.096
aa(lp428
I9
aS'GLU'
p429
aS'O'
p430
aF-30.136
aF22.082
aF-0.044
aa(lp431
I9
aS'GLU'
p432
aS'H'
p433
aF-29.093
aF20.314
aF-1.676
aa(lp434
I10
aS'SER'
p435
aS'N'
p436
aF-30.512
aF23.988
aF-1.169
aa(lp437
I10
aS'SER'
p438
aS'CA'
p439
aF-30.964
aF24.753
aF-0.001
aa(lp440
I10
aS'SER'
p441
aS'C'
p442
aF-32.422
aF25.216
aF-0.15
aa(lp443
I10
aS'SER'
p444
aS'O'
p445
aF-32.883
aF25.524
aF-1.256
aa(lp446
I10
aS'SER'
p447
aS'H'
p448
aF-30.493
aF24.443
aF-1.898
aa(lp449
I11
aS'PHE'
p450
aS'N'
p451
aF-33.136
aF25.259
aF0.968
aa(lp452
I11
aS'PHE'
p453
aS'CA'
p454
aF-34.537
aF25.668
aF0.993
aa(lp455
I11
aS'PHE'
p456
aS'C'
p457
aF-34.755
aF26.488
aF2.241
aa(lp458
I11
aS'PHE'
p459
aS'O'
p460
aF-34.001
aF26.359
aF3.203
aa(lp461
I11
aS'PHE'
p462
aS'H'
p463
aF-32.82
aF25.05
aF1.74
aa(lp464
I12
aS'THR'
p465
aS'N'
p466
aF-35.782
aF27.33
aF2.24
aa(lp467
I12
aS'THR'
p468
aS'CA'
p469
aF-36.301
aF27.826
aF3.496
aa(lp470
I12
aS'THR'
p471
aS'C'
p472
aF-37.59
aF27.081
aF3.746
aa(lp473
I12
aS'THR'
p474
aS'O'
p475
aF-38.164
aF26.493
aF2.831
aa(lp476
I12
aS'THR'
p477
aS'H'
p478
aF-36.182
aF27.619
aF1.536
aa(lp479
I13
aS'LEU'
p480
aS'N'
p481
aF-38.02
aF27.111
aF4.998
aa(lp482
I13
aS'LEU'
p483
aS'CA'
p484
aF-39.202
aF26.425
aF5.455
aa(lp485
I13
aS'LEU'
p486
aS'C'
p487
aF-39.798
aF27.291
aF6.54
aa(lp488
I13
aS'LEU'
p489
aS'O'
p490
aF-39.142
aF27.582
aF7.534
aa(lp491
I13
aS'LEU'
p492
aS'H'
p493
aF-37.616
aF27.546
aF5.62
aa(lp494
I14
aS'THR'
p495
aS'N'
p496
aF-41.038
aF27.714
aF6.352
aa(lp497
I14
aS'THR'
p498
aS'CA'
p499
aF-41.681
aF28.581
aF7.331
aa(lp500
I14
aS'THR'
p501
aS'C'
p502
aF-42.322
aF27.746
aF8.432
aa(lp503
I14
aS'THR'
p504
aS'O'
p505
aF-43.006
aF26.773
aF8.154
aa(lp506
I14
aS'THR'
p507
aS'H'
p508
aF-41.523
aF27.514
aF5.671
aaa(lp509
(lp510
I51
aS'ARG'
p511
aS'N'
p512
aF-38.692
aF30.623
aF10.865
aa(lp513
I51
aS'ARG'
p514
aS'CA'
p515
aF-38.194
aF30.245
aF9.569
aa(lp516
I51
aS'ARG'
p517
aS'C'
p518
aF-36.831
aF29.594
aF9.75
aa(lp519
I51
aS'ARG'
p520
aS'O'
p521
aF-36.025
aF30.041
aF10.576
aa(lp522
I51
aS'ARG'
p523
aS'H'
p524
aF-38.088
aF30.671
aF11.475
aa(lp525
I52
aS'SER'
p526
aS'N'
p527
aF-36.568
aF28.529
aF9.002
aa(lp528
I52
aS'SER'
p529
aS'CA'
p530
aF-35.229
aF27.953
aF9.003
aa(lp531
I52
aS'SER'
p532
aS'C'
p533
aF-34.764
aF27.564
aF7.622
aa(lp534
I52
aS'SER'
p535
aS'O'
p536
aF-35.559
aF27.48
aF6.676
aa(lp537
I52
aS'SER'
p538
aS'H'
p539
aF-37.138
aF28.131
aF8.496
aa(lp540
I53
aS'VAL'
p541
aS'N'
p542
aF-33.456
aF27.344
aF7.53
aa(lp543
I53
aS'VAL'
p544
aS'CA'
p545
aF-32.799
aF26.949
aF6.302
aa(lp546
I53
aS'VAL'
p547
aS'C'
p548
aF-32.537
aF25.459
aF6.357
aa(lp549
I53
aS'VAL'
p550
aS'O'
p551
aF-32.0
aF24.934
aF7.344
aa(lp552
I53
aS'VAL'
p553
aS'H'
p554
aF-32.919
aF27.423
aF8.197
aa(lp555
I54
aS'LEU'
p556
aS'N'
p557
aF-32.939
aF24.773
aF5.295
aa(lp558
I54
aS'LEU'
p559
aS'CA'
p560
aF-32.731
aF23.356
aF5.212
aa(lp561
I54
aS'LEU'
p562
aS'C'
p563
aF-31.907
aF23.025
aF3.998
aa(lp564
I54
aS'LEU'
p565
aS'O'
p566
aF-32.047
aF23.638
aF2.937
aa(lp567
I54
aS'LEU'
p568
aS'H'
p569
aF-33.335
aF25.12
aF4.615
aa(lp570
I55
aS'VAL'
p571
aS'N'
p572
aF-31.04
aF22.042
aF4.179
aa(lp573
I55
aS'VAL'
p574
aS'CA'
p575
aF-30.142
aF21.587
aF3.153
aa(lp576
I55
aS'VAL'
p577
aS'C'
p578
aF-30.372
aF20.093
aF2.926
aa(lp579
I55
aS'VAL'
p580
aS'O'
p581
aF-30.393
aF19.304
aF3.88
aa(lp582
I55
aS'VAL'
p583
aS'H'
p584
aF-30.961
aF21.615
aF4.921
aa(lp585
I56
aS'ARG'
p586
aS'N'
p587
aF-30.559
aF19.723
aF1.66
aa(lp588
I56
aS'ARG'
p589
aS'CA'
p590
aF-30.766
aF18.342
aF1.261
aa(lp591
I56
aS'ARG'
p592
aS'C'
p593
aF-29.563
aF17.887
aF0.444
aa(lp594
I56
aS'ARG'
p595
aS'O'
p596
aF-29.231
aF18.511
aF-0.553
aa(lp597
I56
aS'ARG'
p598
aS'H'
p599
aF-30.569
aF20.278
aF1.003
aa(lp600
I57
aS'ILE'
p601
aS'N'
p602
aF-28.893
aF16.822
aF0.871
aa(lp603
I57
aS'ILE'
p604
aS'CA'
p605
aF-27.72
aF16.336
aF0.147
aa(lp606
I57
aS'ILE'
p607
aS'C'
p608
aF-27.954
aF14.931
aF-0.382
aa(lp609
I57
aS'ILE'
p610
aS'O'
p611
aF-28.156
aF13.98
aF0.385
aa(lp612
I57
aS'ILE'
p613
aS'H'
p614
aF-29.098
aF16.368
aF1.572
aa(lp615
I58
aS'GLU'
p616
aS'N'
p617
aF-27.916
aF14.8
aF-1.7
aa(lp618
I58
aS'GLU'
p619
aS'CA'
p620
aF-28.076
aF13.506
aF-2.31
aa(lp621
I58
aS'GLU'
p622
aS'C'
p623
aF-26.733
aF12.974
aF-2.773
aa(lp624
I58
aS'GLU'
p625
aS'O'
p626
aF-25.909
aF13.709
aF-3.332
aa(lp627
I58
aS'GLU'
p628
aS'H'
p629
aF-27.799
aF15.449
aF-2.252
aa(lp630
I59
aS'THR'
p631
aS'N'
p632
aF-26.514
aF11.693
aF-2.521
aa(lp633
I59
aS'THR'
p634
aS'CA'
p635
aF-25.31
aF11.04
aF-2.992
aa(lp636
I59
aS'THR'
p637
aS'C'
p638
aF-25.565
aF10.462
aF-4.374
aa(lp639
I59
aS'THR'
p640
aS'O'
p641
aF-26.697
aF10.485
aF-4.874
aa(lp642
I59
aS'THR'
p643
aS'H'
p644
aF-27.05
aF11.186
aF-2.079
aaaaa(lp645
g298
aS'VKKIESFTLTRSVLVRIET'
p646
aF42.10526315789473
aF2.0
aa(lp647
g301
aI32
aF81.25
aa(lp648
g303
a(lp649
(lp650
I0
aF0.11904993938947371
a(lp651
(lp652
g308
(g312
S'\x99\x97D\xde`\x07P@'
p653
tp654
Rp655
ag308
(g312
S'W]\x9f\xd1\x8f\x999@'
p656
tp657
Rp658
aa(lp659
g308
(g312
S'25\xa9\xfa\xa2\x8f\\\xc0'
p660
tp661
Rp662
ag308
(g312
S"u\xd8\xdd'\xac\x9aG\xc0"
p663
tp664
Rp665
aaaa(lp666
I1
aF0.001426481602241049
a(lp667
(lp668
g308
(g312
S'D!\xbe5\x11\xa2b@'
p669
tp670
Rp671
ag308
(g312
S'a&M":\xc0P@'
p672
tp673
Rp674
aa(lp675
g308
(g312
S'\xe0\xd6S\xda4-W@'
p676
tp677
Rp678
ag308
(g312
S'\x8bi\x8e\xb9\xe0\xccB@'
p679
tp680
Rp681
aaaaaa(lp682
g345
a(lp683
g347
ag349
aaaa(lp684
(lp685
(lp686
(lp687
S'2ppgD01'
p688
ag6
aS'14'
p689
aS'51'
p690
aS'59'
p691
aa(lp692
(lp693
I5
aS'VAL'
p694
aS'N'
p695
aF-8.664
aF80.059
aF13.958
aa(lp696
I5
aS'VAL'
p697
aS'CA'
p698
aF-8.594
aF80.752
aF15.24
aa(lp699
I5
aS'VAL'
p700
aS'C'
p701
aF-7.719
aF81.986
aF15.087
aa(lp702
I5
aS'VAL'
p703
aS'O'
p704
aF-6.595
aF81.902
aF14.575
aa(lp705
I5
aS'VAL'
p706
aS'H'
p707
aF-8.366
aF79.253
aF13.982
aa(lp708
I6
aS'LYS'
p709
aS'N'
p710
aF-8.24
aF83.13
aF15.518
aa(lp711
I6
aS'LYS'
p712
aS'CA'
p713
aF-7.499
aF84.386
aF15.444
aa(lp714
I6
aS'LYS'
p715
aS'C'
p716
aF-7.116
aF84.935
aF16.821
aa(lp717
I6
aS'LYS'
p718
aS'O'
p719
aF-6.012
aF85.442
aF17.016
aa(lp720
I6
aS'LYS'
p721
aS'H'
p722
aF-9.026
aF83.201
aF15.859
aa(lp723
I7
aS'LYS'
p724
aS'N'
p725
aF-8.047
aF84.843
aF17.762
aa(lp726
I7
aS'LYS'
p727
aS'CA'
p728
aF-7.886
aF85.465
aF19.063
aa(lp729
I7
aS'LYS'
p730
aS'C'
p731
aF-8.348
aF84.543
aF20.184
aa(lp732
I7
aS'LYS'
p733
aS'O'
p734
aF-9.396
aF83.888
aF20.083
aa(lp735
I7
aS'LYS'
p736
aS'H'
p737
aF-8.788
aF84.418
aF17.662
aa(lp738
I8
aS'ILE'
p739
aS'N'
p740
aF-7.55
aF84.509
aF21.251
aa(lp741
I8
aS'ILE'
p742
aS'CA'
p743
aF-7.886
aF83.777
aF22.467
aa(lp744
I8
aS'ILE'
p745
aS'C'
p746
aF-7.696
aF84.655
aF23.701
aa(lp747
I8
aS'ILE'
p748
aS'O'
p749
aF-6.603
aF85.171
aF23.948
aa(lp750
I8
aS'ILE'
p751
aS'H'
p752
aF-6.792
aF84.914
aF21.287
aa(lp753
I9
aS'GLU'
p754
aS'N'
p755
aF-8.765
aF84.838
aF24.464
aa(lp756
I9
aS'GLU'
p757
aS'CA'
p758
aF-8.685
aF85.558
aF25.73
aa(lp759
I9
aS'GLU'
p760
aS'C'
p761
aF-9.219
aF84.664
aF26.849
aa(lp762
I9
aS'GLU'
p763
aS'O'
p764
aF-10.181
aF83.922
aF26.649
aa(lp765
I9
aS'GLU'
p766
aS'H'
p767
aF-9.552
aF84.552
aF24.266
aa(lp768
I10
aS'SER'
p769
aS'N'
p770
aF-8.603
aF84.754
aF28.024
aa(lp771
I10
aS'SER'
p772
aS'CA'
p773
aF-9.081
aF84.036
aF29.198
aa(lp774
I10
aS'SER'
p775
aS'C'
p776
aF-9.548
aF84.97
aF30.311
aa(lp777
I10
aS'SER'
p778
aS'O'
p779
aF-9.018
aF86.072
aF30.48
aa(lp780
I10
aS'SER'
p781
aS'H'
p782
aF-7.9
aF85.23
aF28.162
aa(lp783
I11
aS'PHE'
p784
aS'N'
p785
aF-10.552
aF84.509
aF31.059
aa(lp786
I11
aS'PHE'
p787
aS'CA'
p788
aF-11.194
aF85.28
aF32.114
aa(lp789
I11
aS'PHE'
p790
aS'C'
p791
aF-11.423
aF84.414
aF33.339
aa(lp792
I11
aS'PHE'
p793
aS'O'
p794
aF-11.459
aF83.192
aF33.237
aa(lp795
I11
aS'PHE'
p796
aS'H'
p797
aF-10.883
aF83.721
aF30.962
aa(lp798
I12
aS'THR'
p799
aS'N'
p800
aF-11.61
aF85.051
aF34.495
aa(lp801
I12
aS'THR'
p802
aS'CA'
p803
aF-12.263
aF84.382
aF35.634
aa(lp804
I12
aS'THR'
p805
aS'C'
p806
aF-13.689
aF84.873
aF35.771
aa(lp807
I12
aS'THR'
p808
aS'O'
p809
aF-14.018
aF85.984
aF35.369
aa(lp810
I12
aS'THR'
p811
aS'H'
p812
aF-11.37
aF85.863
aF34.645
aa(lp813
I13
aS'LEU'
p814
aS'N'
p815
aF-14.532
aF84.02
aF36.331
aa(lp816
I13
aS'LEU'
p817
aS'CA'
p818
aF-15.885
aF84.389
aF36.682
aa(lp819
I13
aS'LEU'
p820
aS'C'
p821
aF-16.16
aF83.9
aF38.091
aa(lp822
I13
aS'LEU'
p823
aS'O'
p824
aF-15.834
aF82.754
aF38.436
aa(lp825
I13
aS'LEU'
p826
aS'H'
p827
aF-14.331
aF83.205
aF36.518
aa(lp828
I14
aS'THR'
p829
aS'N'
p830
aF-16.753
aF84.776
aF38.902
aa(lp831
I14
aS'THR'
p832
aS'CA'
p833
aF-17.169
aF84.415
aF40.252
aa(lp834
I14
aS'THR'
p835
aS'C'
p836
aF-18.631
aF83.993
aF40.268
aa(lp837
I14
aS'THR'
p838
aS'O'
p839
aF-19.52
aF84.766
aF39.906
aa(lp840
I14
aS'THR'
p841
aS'H'
p842
aF-16.924
aF85.59
aF38.685
aaa(lp843
(lp844
I51
aS'ARG'
p845
aS'N'
p846
aF-14.998
aF80.139
aF41.953
aa(lp847
I51
aS'ARG'
p848
aS'CA'
p849
aF-14.525
aF80.678
aF40.672
aa(lp850
I51
aS'ARG'
p851
aS'C'
p852
aF-14.358
aF79.6
aF39.598
aa(lp853
I51
aS'ARG'
p854
aS'O'
p855
aF-14.048
aF78.445
aF39.892
aa(lp856
I51
aS'ARG'
p857
aS'H'
p858
aF-14.526
aF79.484
aF42.249
aa(lp859
I52
aS'SER'
p860
aS'N'
p861
aF-14.552
aF79.995
aF38.345
aa(lp862
I52
aS'SER'
p863
aS'CA'
p864
aF-14.166
aF79.167
aF37.203
aa(lp865
I52
aS'SER'
p866
aS'C'
p867
aF-13.421
aF80.027
aF36.192
aa(lp868
I52
aS'SER'
p869
aS'O'
p870
aF-13.516
aF81.263
aF36.228
aa(lp871
I52
aS'SER'
p872
aS'H'
p873
aF-14.91
aF80.747
aF38.131
aa(lp874
I53
aS'VAL'
p875
aS'N'
p876
aF-12.669
aF79.373
aF35.307
aa(lp877
I53
aS'VAL'
p878
aS'CA'
p879
aF-11.927
aF80.061
aF34.253
aa(lp880
I53
aS'VAL'
p881
aS'C'
p882
aF-12.604
aF79.883
aF32.896
aa(lp883
I53
aS'VAL'
p884
aS'O'
p885
aF-12.903
aF78.756
aF32.501
aa(lp886
I53
aS'VAL'
p887
aS'H'
p888
aF-12.575
aF78.518
aF35.302
aa(lp889
I54
aS'LEU'
p890
aS'N'
p891
aF-12.852
aF80.985
aF32.184
aa(lp892
I54
aS'LEU'
p893
aS'CA'
p894
aF-13.446
aF80.892
aF30.84
aa(lp895
I54
aS'LEU'
p896
aS'C'
p897
aF-12.49
aF81.232
aF29.729
aa(lp898
I54
aS'LEU'
p899
aS'O'
p900
aF-11.589
aF82.063
aF29.882
aa(lp901
I54
aS'LEU'
p902
aS'H'
p903
aF-12.688
aF81.785
aF32.453
aa(lp904
I55
aS'VAL'
p905
aS'N'
p906
aF-12.692
aF80.587
aF28.593
aa(lp907
I55
aS'VAL'
p908
aS'CA'
p909
aF-11.881
aF80.881
aF27.431
aa(lp910
I55
aS'VAL'
p911
aS'C'
p912
aF-12.785
aF81.311
aF26.291
aa(lp913
I55
aS'VAL'
p914
aS'O'
p915
aF-13.773
aF80.648
aF25.99
aa(lp916
I55
aS'VAL'
p917
aS'H'
p918
aF-13.29
aF79.98
aF28.475
aa(lp919
I56
aS'ARG'
p920
aS'N'
p921
aF-12.465
aF82.456
aF25.697
aa(lp922
I56
aS'ARG'
p923
aS'CA'
p924
aF-13.182
aF82.933
aF24.535
aa(lp925
I56
aS'ARG'
p926
aS'C'
p927
aF-12.265
aF82.893
aF23.326
aa(lp928
I56
aS'ARG'
p929
aS'O'
p930
aF-11.241
aF83.59
aF23.277
aa(lp931
I56
aS'ARG'
p932
aS'H'
p933
aF-11.829
aF82.972
aF25.959
aa(lp934
I57
aS'ILE'
p935
aS'N'
p936
aF-12.645
aF82.065
aF22.357
aa(lp937
I57
aS'ILE'
p938
aS'CA'
p939
aF-11.913
aF81.944
aF21.108
aa(lp940
I57
aS'ILE'
p941
aS'C'
p942
aF-12.717
aF82.521
aF19.941
aa(lp943
I57
aS'ILE'
p944
aS'O'
p945
aF-13.871
aF82.159
aF19.721
aa(lp946
I57
aS'ILE'
p947
aS'H'
p948
aF-13.337
aF81.557
aF22.409
aa(lp949
I58
aS'GLU'
p950
aS'N'
p951
aF-12.09
aF83.432
aF19.211
aa(lp952
I58
aS'GLU'
p953
aS'CA'
p954
aF-12.695
aF84.058
aF18.049
aa(lp955
I58
aS'GLU'
p956
aS'C'
p957
aF-11.911
aF83.694
aF16.813
aa(lp958
I58
aS'GLU'
p959
aS'O'
p960
aF-10.682
aF83.692
aF16.823
aa(lp961
I58
aS'GLU'
p962
aS'H'
p963
aF-11.292
aF83.706
aF19.379
aa(lp964
I59
aS'THR'
p965
aS'N'
p966
aF-12.627
aF83.398
aF15.74
aa(lp967
I59
aS'THR'
p968
aS'CA'
p969
aF-11.985
aF83.07
aF14.484
aa(lp970
I59
aS'THR'
p971
aS'C'
p972
aF-11.812
aF84.335
aF13.64
aa(lp973
I59
aS'THR'
p974
aS'O'
p975
aF-12.449
aF85.35
aF13.919
aa(lp976
I59
aS'THR'
p977
aS'H'
p978
aF-13.487
aF83.382
aF15.72
aaaaa(lp979
g298
aS'VKKIESFTLTRSVLVRIET'
p980
aF42.10526315789473
aF2.0
aa(lp981
g301
aI32
aF81.25
aa(lp982
g303
a(lp983
(lp984
I0
aF0.021645890514661106
a(lp985
(lp986
g308
(g312
S'P\x0c\xdf\xc1B\xd6O@'
p987
tp988
Rp989
ag308
(g312
S'0\xd5\x93g.\xd32@'
p990
tp991
Rp992
aa(lp993
g308
(g312
S'VaP\xa2\x92\xc4Z\xc0'
p994
tp995
Rp996
ag308
(g312
S'\x9amm\xff<z?\xc0'
p997
tp998
Rp999
aaaa(lp1000
I1
aF0.00147653474419382
a(lp1001
(lp1002
g308
(g312
S'\\\xa4\x81\xd4\xe4\x14_@'
p1003
tp1004
Rp1005
ag308
(g312
S'\xf9xw=!\xf1N@'
p1006
tp1007
Rp1008
aa(lp1009
g308
(g312
S'J\x80\xf4\x87`:T@'
p1010
tp1011
Rp1012
ag308
(g312
S'?\xdc1=\xaf\xe3A@'
p1013
tp1014
Rp1015
aaaaaa(lp1016
g345
a(lp1017
g347
ag349
aaaa.