(lp0
(lp1
(lp2
(lp3
(lp4
(lp5
S'2gbaA00'
p6
aS'41'
p7
aS'47'
p8
aS'76'
p9
aS'82'
p10
aa(lp11
(lp12
I41
aS'ASP'
p13
aS'N'
p14
aF28.117
aF-17.694
aF7.215
aa(lp15
I41
aS'ASP'
p16
aS'CA'
p17
aF27.961
aF-16.517
aF6.398
aa(lp18
I41
aS'ASP'
p19
aS'C'
p20
aF27.583
aF-15.288
aF7.214
aa(lp21
I41
aS'ASP'
p22
aS'O'
p23
aF26.841
aF-15.344
aF8.178
aa(lp24
I41
aS'ASP'
p25
aS'H'
p26
aF27.464
aF-18.253
aF7.177
aa(lp27
I42
aS'THR'
p28
aS'N'
p29
aF28.116
aF-14.155
aF6.732
aa(lp30
I42
aS'THR'
p31
aS'CA'
p32
aF27.748
aF-12.838
aF7.239
aa(lp33
I42
aS'THR'
p34
aS'C'
p35
aF26.691
aF-12.225
aF6.322
aa(lp36
I42
aS'THR'
p37
aS'O'
p38
aF26.879
aF-12.148
aF5.11
aa(lp39
I42
aS'THR'
p40
aS'H'
p41
aF28.701
aF-14.136
aF6.102
aa(lp42
I43
aS'VAL'
p43
aS'N'
p44
aF25.602
aF-11.765
aF6.94
aa(lp45
I43
aS'VAL'
p46
aS'CA'
p47
aF24.56
aF-11.029
aF6.222
aa(lp48
I43
aS'VAL'
p49
aS'C'
p50
aF24.704
aF-9.577
aF6.623
aa(lp51
I43
aS'VAL'
p52
aS'O'
p53
aF24.929
aF-9.243
aF7.782
aa(lp54
I43
aS'VAL'
p55
aS'H'
p56
aF25.447
aF-11.87
aF7.779
aa(lp57
I44
aS'THR'
p58
aS'N'
p59
aF24.544
aF-8.677
aF5.615
aa(lp60
I44
aS'THR'
p61
aS'CA'
p62
aF24.605
aF-7.266
aF5.855
aa(lp63
I44
aS'THR'
p64
aS'C'
p65
aF23.332
aF-6.611
aF5.379
aa(lp66
I44
aS'THR'
p67
aS'O'
p68
aF22.965
aF-6.739
aF4.176
aa(lp69
I44
aS'THR'
p70
aS'H'
p71
aF24.4
aF-8.893
aF4.795
aa(lp72
I45
aS'TRP'
p73
aS'N'
p74
aF22.646
aF-5.915
aF6.259
aa(lp75
I45
aS'TRP'
p76
aS'CA'
p77
aF21.519
aF-5.093
aF5.897
aa(lp78
I45
aS'TRP'
p79
aS'C'
p80
aF22.031
aF-3.706
aF5.566
aa(lp81
I45
aS'TRP'
p82
aS'O'
p83
aF22.906
aF-3.2
aF6.298
aa(lp84
I45
aS'TRP'
p85
aS'H'
p86
aF22.826
aF-5.907
aF7.1
aa(lp87
I46
aS'ILE'
p88
aS'N'
p89
aF21.463
aF-3.084
aF4.54
aa(lp90
I46
aS'ILE'
p91
aS'CA'
p92
aF21.836
aF-1.703
aF4.189
aa(lp93
I46
aS'ILE'
p94
aS'C'
p95
aF20.532
aF-0.926
aF4.044
aa(lp96
I46
aS'ILE'
p97
aS'O'
p98
aF19.667
aF-1.225
aF3.238
aa(lp99
I46
aS'ILE'
p100
aS'H'
p101
aF20.863
aF-3.434
aF4.033
aa(lp102
I47
aS'ASN'
p103
aS'N'
p104
aF20.396
aF0.128
aF4.881
aa(lp105
I47
aS'ASN'
p106
aS'CA'
p107
aF19.276
aF1.03
aF4.782
aa(lp108
I47
aS'ASN'
p109
aS'C'
p110
aF19.486
aF1.98
aF3.609
aa(lp111
I47
aS'ASN'
p112
aS'O'
p113
aF20.448
aF2.72
aF3.601
aa(lp114
I47
aS'ASN'
p115
aS'H'
p116
aF20.954
aF0.32
aF5.507
aaa(lp117
(lp118
I76
aS'GLN'
p119
aS'N'
p120
aF23.509
aF3.52
aF5.787
aa(lp121
I76
aS'GLN'
p122
aS'CA'
p123
aF24.217
aF2.785
aF6.81
aa(lp124
I76
aS'GLN'
p125
aS'C'
p126
aF23.849
aF1.299
aF6.748
aa(lp127
I76
aS'GLN'
p128
aS'O'
p129
aF22.798
aF0.914
aF6.276
aa(lp130
I76
aS'GLN'
p131
aS'H'
p132
aF22.662
aF3.572
aF5.924
aa(lp133
I77
aS'ALA'
p134
aS'N'
p135
aF24.765
aF0.524
aF7.283
aa(lp136
I77
aS'ALA'
p137
aS'CA'
p138
aF24.765
aF-0.927
aF7.194
aa(lp139
I77
aS'ALA'
p140
aS'C'
p141
aF25.014
aF-1.543
aF8.556
aa(lp142
I77
aS'ALA'
p143
aS'O'
p144
aF25.564
aF-0.924
aF9.466
aa(lp145
I77
aS'ALA'
p146
aS'H'
p147
aF25.433
aF0.835
aF7.727
aa(lp148
I78
aS'TYR'
p149
aS'N'
p150
aF24.615
aF-2.816
aF8.69
aa(lp151
I78
aS'TYR'
p152
aS'CA'
p153
aF24.803
aF-3.579
aF9.891
aa(lp154
I78
aS'TYR'
p155
aS'C'
p156
aF24.877
aF-5.066
aF9.524
aa(lp157
I78
aS'TYR'
p158
aS'O'
p159
aF24.081
aF-5.525
aF8.721
aa(lp160
I78
aS'TYR'
p161
aS'H'
p162
aF24.221
aF-3.253
aF8.063
aa(lp163
I79
aS'SER'
p164
aS'N'
p165
aF25.83
aF-5.781
aF10.118
aa(lp166
I79
aS'SER'
p167
aS'CA'
p168
aF26.082
aF-7.178
aF9.785
aa(lp169
I79
aS'SER'
p170
aS'C'
p171
aF25.863
aF-8.107
aF10.968
aa(lp172
I79
aS'SER'
p173
aS'O'
p174
aF26.131
aF-7.766
aF12.148
aa(lp175
I79
aS'SER'
p176
aS'H'
p177
aF26.349
aF-5.467
aF10.727
aa(lp178
I80
aS'LEU'
p179
aS'N'
p180
aF25.49
aF-9.335
aF10.647
aa(lp181
I80
aS'LEU'
p182
aS'CA'
p183
aF25.437
aF-10.442
aF11.589
aa(lp184
I80
aS'LEU'
p185
aS'C'
p186
aF26.037
aF-11.665
aF10.917
aa(lp187
I80
aS'LEU'
p188
aS'O'
p189
aF25.759
aF-11.951
aF9.735
aa(lp190
I80
aS'LEU'
p191
aS'H'
p192
aF25.253
aF-9.555
aF9.85
aa(lp193
I81
aS'THR'
p194
aS'N'
p195
aF26.866
aF-12.418
aF11.642
aa(lp196
I81
aS'THR'
p197
aS'CA'
p198
aF27.463
aF-13.647
aF11.145
aa(lp199
I81
aS'THR'
p200
aS'C'
p201
aF26.752
aF-14.81
aF11.829
aa(lp202
I81
aS'THR'
p203
aS'O'
p204
aF26.772
aF-14.927
aF13.057
aa(lp205
I81
aS'THR'
p206
aS'H'
p207
aF27.097
aF-12.222
aF12.447
aa(lp208
I82
aS'PHE'
p209
aS'N'
p210
aF26.093
aF-15.656
aF11.036
aa(lp211
I82
aS'PHE'
p212
aS'CA'
p213
aF25.257
aF-16.745
aF11.55
aa(lp214
I82
aS'PHE'
p215
aS'C'
p216
aF26.097
aF-18.016
aF11.717
aa(lp217
I82
aS'PHE'
p218
aS'O'
p219
aF26.753
aF-18.426
aF10.75
aa(lp220
I82
aS'PHE'
p221
aS'H'
p222
aF26.118
aF-15.614
aF10.177
aaaaa(lp223
S'seq_filter'
p224
aS'DTVTWINQAYSLTF'
p225
aF42.857142857142854
aF2.5
aa(lp226
S'contacts_filter'
p227
aI23
aF82.6086956521739
aa(lp228
S'PCS_filter'
p229
a(lp230
(lp231
I0
aF0.002814823022860078
a(lp232
(lp233
cnumpy.core.multiarray
scalar
p234
(cnumpy
dtype
p235
(S'f8'
p236
I0
I1
tp237
Rp238
(I3
S'<'
p239
NNNI-1
I-1
I0
tp240
bS'\xef\x1e\xc8\xa3M01@'
p241
tp242
Rp243
ag234
(g238
S'\xb1\xccv\xc4\xc3*\x14@'
p244
tp245
Rp246
aa(lp247
g234
(g238
S'\xbc\x18\x1e\x8b*\xfd>\xc0'
p248
tp249
Rp250
ag234
(g238
S'\xbd )\xed\xe0\x9b#\xc0'
p251
tp252
Rp253
aaaa(lp254
I1
aF0.0010328464450974574
a(lp255
(lp256
g234
(g238
S'\xb3\xe1\xf0\xef\xaaIB@'
p257
tp258
Rp259
ag234
(g238
S'\xc8a$\x90\xc9\xf1*@'
p260
tp261
Rp262
aa(lp263
g234
(g238
S'\xb2v#<\xf4\xe0@@'
p264
tp265
Rp266
ag234
(g238
S'\xe8n\xe9\xa4!d+@'
p267
tp268
Rp269
aaaaaa(lp270
S'smotif_def'
p271
a(lp272
(lp273
S'strand'
p274
aI7
aI4
aI6
aI89
aI95
aa(lp275
g274
aI7
aI6
aI4
aI104
aI110
aaaaaa(lp276
(lp277
(lp278
(lp279
(lp280
S'1y4wA01'
p281
aS'212'
p282
aS'218'
p283
aS'224'
p284
aS'230'
p285
aa(lp286
(lp287
I212
aS'LYS'
p288
aS'N'
p289
aF-10.394
aF11.858
aF16.717
aa(lp290
I212
aS'LYS'
p291
aS'CA'
p292
aF-10.754
aF11.189
aF15.48
aa(lp293
I212
aS'LYS'
p294
aS'C'
p295
aF-9.533
aF10.441
aF14.983
aa(lp296
I212
aS'LYS'
p297
aS'O'
p298
aF-8.419
aF10.974
aF15.032
aa(lp299
I212
aS'LYS'
p300
aS'H'
p301
aF-9.601
aF12.191
aF16.714
aa(lp302
I213
aS'LEU'
p303
aS'N'
p304
aF-9.745
aF9.215
aF14.512
aa(lp305
I213
aS'LEU'
p306
aS'CA'
p307
aF-8.66
aF8.445
aF13.917
aa(lp308
I213
aS'LEU'
p309
aS'C'
p310
aF-8.755
aF8.476
aF12.395
aa(lp311
I213
aS'LEU'
p312
aS'O'
p313
aF-9.858
aF8.518
aF11.839
aa(lp314
I213
aS'LEU'
p315
aS'H'
p316
aF-10.506
aF8.814
aF14.528
aa(lp317
I214
aS'ALA'
p318
aS'N'
p319
aF-7.6
aF8.492
aF11.733
aa(lp320
I214
aS'ALA'
p321
aS'CA'
p322
aF-7.546
aF8.403
aF10.284
aa(lp323
I214
aS'ALA'
p324
aS'C'
p325
aF-6.831
aF7.119
aF9.879
aa(lp326
I214
aS'ALA'
p327
aS'O'
p328
aF-5.735
aF6.828
aF10.381
aa(lp329
I214
aS'ALA'
p330
aS'H'
p331
aF-6.831
aF8.555
aF12.113
aa(lp332
I215
aS'ILE'
p333
aS'N'
p334
aF-7.461
aF6.36
aF8.983
aa(lp335
I215
aS'ILE'
p336
aS'CA'
p337
aF-6.96
aF5.052
aF8.553
aa(lp338
I215
aS'ILE'
p339
aS'C'
p340
aF-6.503
aF5.127
aF7.097
aa(lp341
I215
aS'ILE'
p342
aS'O'
p343
aF-7.232
aF5.631
aF6.234
aa(lp344
I215
aS'ILE'
p345
aS'H'
p346
aF-8.198
aF6.591
aF8.604
aa(lp347
I216
aS'TYR'
p348
aS'N'
p349
aF-5.293
aF4.636
aF6.838
aa(lp350
I216
aS'TYR'
p351
aS'CA'
p352
aF-4.729
aF4.625
aF5.486
aa(lp353
I216
aS'TYR'
p354
aS'C'
p355
aF-4.333
aF3.207
aF5.111
aa(lp356
I216
aS'TYR'
p357
aS'O'
p358
aF-4.093
aF2.371
aF5.992
aa(lp359
I216
aS'TYR'
p360
aS'H'
p361
aF-4.776
aF4.301
aF7.438
aa(lp362
I217
aS'THR'
p363
aS'N'
p364
aF-4.228
aF2.952
aF3.806
aa(lp365
I217
aS'THR'
p366
aS'CA'
p367
aF-3.703
aF1.669
aF3.324
aa(lp368
I217
aS'THR'
p369
aS'C'
p370
aF-2.503
aF1.858
aF2.395
aa(lp371
I217
aS'THR'
p372
aS'O'
p373
aF-2.298
aF2.935
aF1.84
aa(lp374
I217
aS'THR'
p375
aS'H'
p376
aF-4.453
aF3.503
aF3.186
aa(lp377
I218
aS'SER'
p378
aS'N'
p379
aF-1.716
aF0.794
aF2.231
aa(lp380
I218
aS'SER'
p381
aS'CA'
p382
aF-0.537
aF0.839
aF1.372
aa(lp383
I218
aS'SER'
p384
aS'C'
p385
aF-0.175
aF-0.547
aF0.871
aa(lp386
I218
aS'SER'
p387
aS'O'
p388
aF-0.411
aF-1.538
aF1.554
aa(lp389
I218
aS'SER'
p390
aS'H'
p391
aF-1.85
aF0.034
aF2.611
aaa(lp392
(lp393
I224
aS'TRP'
p394
aS'N'
p395
aF0.815
aF5.97
aF0.828
aa(lp396
I224
aS'TRP'
p397
aS'CA'
p398
aF-0.364
aF5.778
aF1.662
aa(lp399
I224
aS'TRP'
p400
aS'C'
p401
aF-1.599
aF6.472
aF1.093
aa(lp402
I224
aS'TRP'
p403
aS'O'
p404
aF-1.505
aF7.582
aF0.573
aa(lp405
I224
aS'TRP'
p406
aS'H'
p407
aF1.063
aF6.79
aF0.752
aa(lp408
I225
aS'LYS'
p409
aS'N'
p410
aF-2.741
aF5.801
aF1.199
aa(lp411
I225
aS'LYS'
p412
aS'CA'
p413
aF-4.024
aF6.326
aF0.725
aa(lp414
I225
aS'LYS'
p415
aS'C'
p416
aF-4.993
aF6.36
aF1.901
aa(lp417
I225
aS'LYS'
p418
aS'O'
p419
aF-5.16
aF5.354
aF2.596
aa(lp420
I225
aS'LYS'
p421
aS'H'
p422
aF-2.796
aF5.019
aF1.552
aa(lp423
I226
aS'LEU'
p424
aS'N'
p425
aF-5.623
aF7.514
aF2.129
aa(lp426
I226
aS'LEU'
p427
aS'CA'
p428
aF-6.643
aF7.636
aF3.177
aa(lp429
I226
aS'LEU'
p430
aS'C'
p431
aF-7.874
aF6.842
aF2.777
aa(lp432
I226
aS'LEU'
p433
aS'O'
p434
aF-8.374
aF7.002
aF1.65
aa(lp435
I226
aS'LEU'
p436
aS'H'
p437
aF-5.475
aF8.238
aF1.689
aa(lp438
I227
aS'VAL'
p439
aS'N'
p440
aF-8.364
aF5.992
aF3.686
aa(lp441
I227
aS'VAL'
p442
aS'CA'
p443
aF-9.537
aF5.166
aF3.395
aa(lp444
I227
aS'VAL'
p445
aS'C'
p446
aF-10.753
aF5.388
aF4.294
aa(lp447
I227
aS'VAL'
p448
aS'O'
p449
aF-11.881
aF5.15
aF3.865
aa(lp450
I227
aS'VAL'
p451
aS'H'
p452
aF-8.033
aF5.881
aF4.472
aa(lp453
I228
aS'SER'
p454
aS'N'
p455
aF-10.533
aF5.826
aF5.531
aa(lp456
I228
aS'SER'
p457
aS'CA'
p458
aF-11.656
aF6.116
aF6.428
aa(lp459
I228
aS'SER'
p460
aS'C'
p461
aF-11.219
aF6.913
aF7.64
aa(lp462
I228
aS'SER'
p463
aS'O'
p464
aF-10.028
aF7.048
aF7.912
aa(lp465
I228
aS'SER'
p466
aS'H'
p467
aF-9.754
aF5.961
aF5.869
aa(lp468
I229
aS'GLU'
p469
aS'N'
p470
aF-12.209
aF7.416
aF8.372
aa(lp471
I229
aS'GLU'
p472
aS'CA'
p473
aF-11.981
aF8.059
aF9.658
aa(lp474
I229
aS'GLU'
p475
aS'C'
p476
aF-12.953
aF7.511
aF10.684
aa(lp477
I229
aS'GLU'
p478
aS'O'
p479
aF-14.092
aF7.171
aF10.349
aa(lp480
I229
aS'GLU'
p481
aS'H'
p482
aF-13.035
aF7.393
aF8.134
aa(lp483
I230
aS'PHE'
p484
aS'N'
p485
aF-12.492
aF7.421
aF11.927
aa(lp486
I230
aS'PHE'
p487
aS'CA'
p488
aF-13.297
aF6.864
aF13.005
aa(lp489
I230
aS'PHE'
p490
aS'C'
p491
aF-13.369
aF7.805
aF14.195
aa(lp492
I230
aS'PHE'
p493
aS'O'
p494
aF-12.341
aF8.284
aF14.696
aa(lp495
I230
aS'PHE'
p496
aS'H'
p497
aF-11.708
aF7.68
aF12.167
aaaaa(lp498
g224
aS'KLAIYTSWKLVSEF'
p499
aF42.857142857142854
aF8.0
aa(lp500
g227
aI23
aF91.30434782608695
aa(lp501
g229
a(lp502
(lp503
I0
aF0.0032991792715419614
a(lp504
(lp505
g234
(g238
S'\xd5\xf2[\xaa\xba\xe6I@'
p506
tp507
Rp508
ag234
(g238
S'9\x13\xcfu\xbe\xe53@'
p509
tp510
Rp511
aa(lp512
g234
(g238
S'\xd8c\xe4a\xfe\xd2X\xc0'
p513
tp514
Rp515
ag234
(g238
S'J\x92to\x89\xd4B\xc0'
p516
tp517
Rp518
aaaa(lp519
I1
aF0.0006639764659129762
a(lp520
(lp521
g234
(g238
S'\xe02\x18\xb4\x99tX@'
p522
tp523
Rp524
ag234
(g238
S'\xb6\xac\xd3\x9ad0B@'
p525
tp526
Rp527
aa(lp528
g234
(g238
S'I\x9e\xd6\x18\xcceP@'
p529
tp530
Rp531
ag234
(g238
S'\xb6\xcd\x05\x11\xb4\xa8=@'
p532
tp533
Rp534
aaaaaa(lp535
g271
a(lp536
g273
ag275
aaaaa(lp537
(lp538
(lp539
(lp540
(lp541
S'2h1pL02'
p542
aS'163'
p543
aS'169'
p544
aS'178'
p545
aS'187'
p546
aa(lp547
(lp548
I163
aS'GLY'
p549
aS'N'
p550
aF-20.299
aF-12.785
aF-10.26
aa(lp551
I163
aS'GLY'
p552
aS'CA'
p553
aF-18.959
aF-12.218
aF-10.248
aa(lp554
I163
aS'GLY'
p555
aS'C'
p556
aF-18.87
aF-10.88
aF-9.536
aa(lp557
I163
aS'GLY'
p558
aS'O'
p559
aF-18.614
aF-9.857
aF-10.165
aa(lp560
I163
aS'GLY'
p561
aS'H'
p562
aF-20.763
aF-12.589
aF-10.957
aa(lp563
I164
aS'VAL'
p564
aS'N'
p565
aF-19.232
aF-10.866
aF-8.265
aa(lp566
I164
aS'VAL'
p567
aS'CA'
p568
aF-19.093
aF-9.665
aF-7.458
aa(lp569
I164
aS'VAL'
p570
aS'C'
p571
aF-17.743
aF-9.685
aF-6.676
aa(lp572
I164
aS'VAL'
p573
aS'O'
p574
aF-17.426
aF-10.651
aF-5.988
aa(lp575
I164
aS'VAL'
p576
aS'H'
p577
aF-19.561
aF-11.542
aF-7.848
aa(lp578
I165
aS'LEU'
p579
aS'N'
p580
aF-16.863
aF-8.745
aF-7.013
aa(lp581
I165
aS'LEU'
p582
aS'CA'
p583
aF-15.582
aF-8.541
aF-6.341
aa(lp584
I165
aS'LEU'
p585
aS'C'
p586
aF-15.672
aF-7.234
aF-5.6
aa(lp587
I165
aS'LEU'
p588
aS'O'
p589
aF-15.768
aF-6.206
aF-6.234
aa(lp590
I165
aS'LEU'
p591
aS'H'
p592
aF-16.999
aF-8.192
aF-7.658
aa(lp593
I166
aS'ASN'
p594
aS'N'
p595
aF-15.476
aF-7.229
aF-4.293
aa(lp596
I166
aS'ASN'
p597
aS'CA'
p598
aF-15.475
aF-5.959
aF-3.594
aa(lp599
I166
aS'ASN'
p600
aS'C'
p601
aF-14.115
aF-5.508
aF-3.277
aa(lp602
I166
aS'ASN'
p603
aS'O'
p604
aF-13.245
aF-6.336
aF-3.061
aa(lp605
I166
aS'ASN'
p606
aS'H'
p607
aF-15.346
aF-7.925
aF-3.805
aa(lp608
I167
aS'SER'
p609
aS'N'
p610
aF-13.952
aF-4.199
aF-3.104
aa(lp611
I167
aS'SER'
p612
aS'CA'
p613
aF-12.64
aF-3.67
aF-2.766
aa(lp614
I167
aS'SER'
p615
aS'C'
p616
aF-12.631
aF-2.41
aF-1.942
aa(lp617
I167
aS'SER'
p618
aS'O'
p619
aF-13.259
aF-1.391
aF-2.255
aa(lp620
I167
aS'SER'
p621
aS'H'
p622
aF-14.576
aF-3.612
aF-3.177
aa(lp623
I168
aS'TRP'
p624
aS'N'
p625
aF-11.833
aF-2.502
aF-0.897
aa(lp626
I168
aS'TRP'
p627
aS'CA'
p628
aF-11.66
aF-1.436
aF0.054
aa(lp629
I168
aS'TRP'
p630
aS'C'
p631
aF-10.386
aF-0.659
aF0.097
aa(lp632
I168
aS'TRP'
p633
aS'O'
p634
aF-9.332
aF-1.167
aF0.46
aa(lp635
I168
aS'TRP'
p636
aS'H'
p637
aF-11.368
aF-3.203
aF-0.72
aa(lp638
I169
aS'THR'
p639
aS'N'
p640
aF-10.581
aF0.633
aF0.086
aa(lp641
I169
aS'THR'
p642
aS'CA'
p643
aF-9.498
aF1.546
aF0.264
aa(lp644
I169
aS'THR'
p645
aS'C'
p646
aF-9.316
aF1.556
aF1.791
aa(lp647
I169
aS'THR'
p648
aS'O'
p649
aF-10.223
aF1.174
aF2.526
aa(lp650
I169
aS'THR'
p651
aS'H'
p652
aF-11.348
aF1.005
aF-0.025
aaa(lp653
(lp654
I178
aS'TYR'
p655
aS'N'
p656
aF-13.473
aF6.378
aF4.507
aa(lp657
I178
aS'TYR'
p658
aS'CA'
p659
aF-13.268
aF5.154
aF3.741
aa(lp660
I178
aS'TYR'
p661
aS'C'
p662
aF-14.019
aF5.203
aF2.393
aa(lp663
I178
aS'TYR'
p664
aS'O'
p665
aF-15.026
aF5.91
aF2.256
aa(lp666
I178
aS'TYR'
p667
aS'H'
p668
aF-14.285
aF6.474
aF4.773
aa(lp669
I179
aS'SER'
p670
aS'N'
p671
aF-13.627
aF4.315
aF1.482
aa(lp672
I179
aS'SER'
p673
aS'CA'
p674
aF-14.239
aF4.186
aF0.16
aa(lp675
I179
aS'SER'
p676
aS'C'
p677
aF-14.23
aF2.728
aF-0.264
aa(lp678
I179
aS'SER'
p679
aS'O'
p680
aF-13.362
aF1.995
aF0.12
aa(lp681
I179
aS'SER'
p682
aS'H'
p683
aF-12.985
aF3.759
aF1.617
aa(lp684
I180
aS'MET'
p685
aS'N'
p686
aF-15.145
aF2.344
aF-1.138
aa(lp687
I180
aS'MET'
p688
aS'CA'
p689
aF-15.163
aF0.987
aF-1.656
aa(lp690
I180
aS'MET'
p691
aS'C'
p692
aF-15.783
aF0.889
aF-3.062
aa(lp693
I180
aS'MET'
p694
aS'O'
p695
aF-16.636
aF1.704
aF-3.473
aa(lp696
I180
aS'MET'
p697
aS'H'
p698
aF-15.766
aF2.854
aF-1.445
aa(lp699
I181
aS'SER'
p700
aS'N'
p701
aF-15.373
aF-0.162
aF-3.774
aa(lp702
I181
aS'SER'
p703
aS'CA'
p704
aF-15.923
aF-0.405
aF-5.1
aa(lp705
I181
aS'SER'
p706
aS'C'
p707
aF-16.251
aF-1.85
aF-5.195
aa(lp708
I181
aS'SER'
p709
aS'O'
p710
aF-15.485
aF-2.715
aF-4.768
aa(lp711
I181
aS'SER'
p712
aS'H'
p713
aF-14.788
aF-0.735
aF-3.51
aa(lp714
I182
aS'SER'
p715
aS'N'
p716
aF-17.358
aF-2.056
aF-5.881
aa(lp717
I182
aS'SER'
p718
aS'CA'
p719
aF-17.935
aF-3.343
aF-6.119
aa(lp720
I182
aS'SER'
p721
aS'C'
p722
aF-18.182
aF-3.451
aF-7.617
aa(lp723
I182
aS'SER'
p724
aS'O'
p725
aF-18.833
aF-2.592
aF-8.237
aa(lp726
I182
aS'SER'
p727
aS'H'
p728
aF-17.809
aF-1.414
aF-6.234
aa(lp729
I183
aS'THR'
p730
aS'N'
p731
aF-17.775
aF-4.582
aF-8.169
aa(lp732
I183
aS'THR'
p733
aS'CA'
p734
aF-17.902
aF-4.816
aF-9.586
aa(lp735
I183
aS'THR'
p736
aS'C'
p737
aF-18.604
aF-6.124
aF-9.864
aa(lp738
I183
aS'THR'
p739
aS'O'
p740
aF-18.277
aF-7.163
aF-9.29
aa(lp741
I183
aS'THR'
p742
aS'H'
p743
aF-17.419
aF-5.231
aF-7.731
aa(lp744
I184
aS'LEU'
p745
aS'N'
p746
aF-19.624
aF-6.059
aF-10.706
aa(lp747
I184
aS'LEU'
p748
aS'CA'
p749
aF-20.302
aF-7.276
aF-11.127
aa(lp750
I184
aS'LEU'
p751
aS'C'
p752
aF-19.994
aF-7.521
aF-12.584
aa(lp753
I184
aS'LEU'
p754
aS'O'
p755
aF-20.359
aF-6.738
aF-13.435
aa(lp756
I184
aS'LEU'
p757
aS'H'
p758
aF-19.937
aF-5.332
aF-11.042
aa(lp759
I185
aS'THR'
p760
aS'N'
p761
aF-19.206
aF-8.553
aF-12.823
aa(lp762
I185
aS'THR'
p763
aS'CA'
p764
aF-18.845
aF-9.021
aF-14.151
aa(lp765
I185
aS'THR'
p766
aS'C'
p767
aF-19.889
aF-10.057
aF-14.6
aa(lp768
I185
aS'THR'
p769
aS'O'
p770
aF-20.324
aF-10.895
aF-13.816
aa(lp771
I185
aS'THR'
p772
aS'H'
p773
aF-18.852
aF-9.02
aF-12.193
aa(lp774
I186
aS'LEU'
p775
aS'N'
p776
aF-20.247
aF-10.029
aF-15.875
aa(lp777
I186
aS'LEU'
p778
aS'CA'
p779
aF-21.245
aF-10.942
aF-16.426
aa(lp780
I186
aS'LEU'
p781
aS'C'
p782
aF-20.717
aF-11.218
aF-17.814
aa(lp783
I186
aS'LEU'
p784
aS'O'
p785
aF-19.847
aF-10.476
aF-18.285
aa(lp786
I186
aS'LEU'
p787
aS'H'
p788
aF-19.919
aF-9.48
aF-16.449
aa(lp789
I187
aS'THR'
p790
aS'N'
p791
aF-21.249
aF-12.234
aF-18.5
aa(lp792
I187
aS'THR'
p793
aS'CA'
p794
aF-20.883
aF-12.435
aF-19.916
aa(lp795
I187
aS'THR'
p796
aS'C'
p797
aF-21.575
aF-11.296
aF-20.633
aa(lp798
I187
aS'THR'
p799
aS'O'
p800
aF-22.434
aF-10.665
aF-20.056
aa(lp801
I187
aS'THR'
p802
aS'H'
p803
aF-21.807
aF-12.805
aF-18.18
aaaaa(lp804
S'seq_filter'
p805
aS'GVLNSWTYSMSSTLTLT'
p806
aF41.17647058823529
aF5.5
aa(lp807
S'contacts_filter'
p808
aI26
aF69.23076923076923
aa(lp809
S'PCS_filter'
p810
a(lp811
(lp812
I0
aF0.0035903921921986636
a(lp813
(lp814
g234
(g238
S'2Q\x18\x9e.04@'
p815
tp816
Rp817
ag234
(g238
S'\xe4n\xb6\xa6\xc0\xad)@'
p818
tp819
Rp820
aa(lp821
g234
(g238
S'P5<\x86\xbb\xf3@\xc0'
p822
tp823
Rp824
ag234
(g238
S'\x9c\x08\xf3\xb0/q3\xc0'
p825
tp826
Rp827
aaaa(lp828
I1
aF0.0012697417670845962
a(lp829
(lp830
g234
(g238
S'\xb3\x0c\xbd\x07\xc5\x9d2@'
p831
tp832
Rp833
ag234
(g238
S'\xa9{1\x800\xea"@'
p834
tp835
Rp836
aa(lp837
g234
(g238
S'2N\x1e\xda\x04u-@'
p838
tp839
Rp840
ag234
(g238
S'y\xe2ld}\xdd\x1a@'
p841
tp842
Rp843
aaaaaa(lp844
S'smotif_def'
p845
a(lp846
(lp847
S'strand'
p848
aI7
aI4
aI6
aI89
aI95
aa(lp849
g848
aI10
aI4
aI3
aI102
aI111
aaaaaa(lp850
(lp851
(lp852
(lp853
(lp854
S'2pm7D01'
p855
aS'182'
p856
aS'188'
p857
aS'193'
p858
aS'200'
p859
aa(lp860
(lp861
I182
aS'VAL'
p862
aS'N'
p863
aF-95.49
aF92.616
aF109.205
aa(lp864
I182
aS'VAL'
p865
aS'CA'
p866
aF-95.113
aF92.134
aF107.896
aa(lp867
I182
aS'VAL'
p868
aS'C'
p869
aF-94.661
aF90.702
aF108.228
aa(lp870
I182
aS'VAL'
p871
aS'O'
p872
aF-93.857
aF90.492
aF109.146
aa(lp873
I182
aS'VAL'
p874
aS'H'
p875
aF-94.831
aF92.66
aF109.756
aa(lp876
I183
aS'LYS'
p877
aS'N'
p878
aF-95.19
aF89.71
aF107.515
aa(lp879
I183
aS'LYS'
p880
aS'CA'
p881
aF-94.818
aF88.324
aF107.806
aa(lp882
I183
aS'LYS'
p883
aS'C'
p884
aF-94.294
aF87.553
aF106.607
aa(lp885
I183
aS'LYS'
p886
aS'O'
p887
aF-94.635
aF87.857
aF105.461
aa(lp888
I183
aS'LYS'
p889
aS'H'
p890
aF-95.753
aF89.812
aF106.873
aa(lp891
I184
aS'ILE'
p892
aS'N'
p893
aF-93.441
aF86.569
aF106.885
aa(lp894
I184
aS'ILE'
p895
aS'CA'
p896
aF-92.851
aF85.75
aF105.844
aa(lp897
I184
aS'ILE'
p898
aS'C'
p899
aF-93.215
aF84.274
aF106.039
aa(lp900
I184
aS'ILE'
p901
aS'O'
p902
aF-93.017
aF83.692
aF107.107
aa(lp903
I184
aS'ILE'
p904
aS'H'
p905
aF-93.192
aF86.362
aF107.682
aa(lp906
I185
aS'TRP'
p907
aS'N'
p908
aF-93.784
aF83.687
aF104.995
aa(lp909
I185
aS'TRP'
p910
aS'CA'
p911
aF-94.233
aF82.306
aF105.049
aa(lp912
I185
aS'TRP'
p913
aS'C'
p914
aF-93.503
aF81.405
aF104.071
aa(lp915
I185
aS'TRP'
p916
aS'O'
p917
aF-93.201
aF81.812
aF102.95
aa(lp918
I185
aS'TRP'
p919
aS'H'
p920
aF-93.92
aF84.076
aF104.24
aa(lp921
I186
aS'LYS'
p922
aS'N'
p923
aF-93.198
aF80.186
aF104.516
aa(lp924
I186
aS'LYS'
p925
aS'CA'
p926
aF-92.511
aF79.204
aF103.67
aa(lp927
I186
aS'LYS'
p928
aS'C'
p929
aF-93.268
aF77.886
aF103.672
aa(lp930
I186
aS'LYS'
p931
aS'O'
p932
aF-93.8
aF77.459
aF104.705
aa(lp933
I186
aS'LYS'
p934
aS'H'
p935
aF-93.38
aF79.905
aF105.308
aa(lp936
I187
aS'TYR'
p937
aS'N'
p938
aF-93.331
aF77.252
aF102.51
aa(lp939
I187
aS'TYR'
p940
aS'CA'
p941
aF-94.018
aF75.976
aF102.401
aa(lp942
I187
aS'TYR'
p943
aS'C'
p944
aF-93.211
aF74.898
aF103.106
aa(lp945
I187
aS'TYR'
p946
aS'O'
p947
aF-91.989
aF74.827
aF102.955
aa(lp948
I187
aS'TYR'
p949
aS'H'
p950
aF-92.985
aF77.541
aF101.778
aa(lp951
I188
aS'ASN'
p952
aS'N'
p953
aF-93.911
aF74.074
aF103.876
aa(lp954
I188
aS'ASN'
p955
aS'CA'
p956
aF-93.304
aF72.967
aF104.605
aa(lp957
I188
aS'ASN'
p958
aS'C'
p959
aF-94.012
aF71.647
aF104.224
aa(lp960
I188
aS'ASN'
p961
aS'O'
p962
aF-95.222
aF71.511
aF104.416
aa(lp963
I188
aS'ASN'
p964
aS'H'
p965
aF-94.76
aF74.142
aF103.991
aaa(lp966
(lp967
I193
aS'THR'
p968
aS'N'
p969
aF-98.395
aF72.728
aF104.192
aa(lp970
I193
aS'THR'
p971
aS'CA'
p972
aF-98.875
aF74.098
aF104.018
aa(lp973
I193
aS'THR'
p974
aS'C'
p975
aF-97.784
aF75.148
aF104.231
aa(lp976
I193
aS'THR'
p977
aS'O'
p978
aF-96.602
aF74.821
aF104.364
aa(lp979
I193
aS'THR'
p980
aS'H'
p981
aF-97.605
aF72.658
aF104.525
aa(lp982
I194
aS'TYR'
p983
aS'N'
p984
aF-98.18
aF76.416
aF104.238
aa(lp985
I194
aS'TYR'
p986
aS'CA'
p987
aF-97.221
aF77.49
aF104.446
aa(lp988
I194
aS'TYR'
p989
aS'C'
p990
aF-97.096
aF77.828
aF105.919
aa(lp991
I194
aS'TYR'
p992
aS'O'
p993
aF-98.097
aF77.974
aF106.639
aa(lp994
I194
aS'TYR'
p995
aS'H'
p996
aF-98.993
aF76.673
aF104.125
aa(lp997
I195
aS'VAL'
p998
aS'N'
p999
aF-95.859
aF77.916
aF106.383
aa(lp1000
I195
aS'VAL'
p1001
aS'CA'
p1002
aF-95.646
aF78.226
aF107.794
aa(lp1003
I195
aS'VAL'
p1004
aS'C'
p1005
aF-94.835
aF79.495
aF107.993
aa(lp1006
I195
aS'VAL'
p1007
aS'O'
p1008
aF-94.001
aF79.867
aF107.164
aa(lp1009
I195
aS'VAL'
p1010
aS'H'
p1011
aF-95.146
aF77.804
aF105.916
aa(lp1012
I196
aS'LEU'
p1013
aS'N'
p1014
aF-95.081
aF80.119
aF109.134
aa(lp1015
I196
aS'LEU'
p1016
aS'CA'
p1017
aF-94.436
aF81.348
aF109.55
aa(lp1018
I196
aS'LEU'
p1019
aS'C'
p1020
aF-92.922
aF81.225
aF109.652
aa(lp1021
I196
aS'LEU'
p1022
aS'O'
p1023
aF-92.433
aF80.412
aF110.414
aa(lp1024
I196
aS'LEU'
p1025
aS'H'
p1026
aF-95.65
aF79.826
aF109.708
aa(lp1027
I197
aS'GLU'
p1028
aS'N'
p1029
aF-92.198
aF82.035
aF108.872
aa(lp1030
I197
aS'GLU'
p1031
aS'CA'
p1032
aF-90.733
aF82.076
aF108.875
aa(lp1033
I197
aS'GLU'
p1034
aS'C'
p1035
aF-90.266
aF83.253
aF109.751
aa(lp1036
I197
aS'GLU'
p1037
aS'O'
p1038
aF-89.344
aF83.114
aF110.559
aa(lp1039
I197
aS'GLU'
p1040
aS'H'
p1041
aF-92.553
aF82.586
aF108.316
aa(lp1042
I198
aS'SER'
p1043
aS'N'
p1044
aF-90.883
aF84.422
aF109.569
aa(lp1045
I198
aS'SER'
p1046
aS'CA'
p1047
aF-90.501
aF85.593
aF110.341
aa(lp1048
I198
aS'SER'
p1049
aS'C'
p1050
aF-91.626
aF86.582
aF110.505
aa(lp1051
I198
aS'SER'
p1052
aS'O'
p1053
aF-92.59
aF86.575
aF109.748
aa(lp1054
I198
aS'SER'
p1055
aS'H'
p1056
aF-91.52
aF84.553
aF109.006
aa(lp1057
I199
aS'THR'
p1058
aS'N'
p1059
aF-91.496
aF87.426
aF111.518
aa(lp1060
I199
aS'THR'
p1061
aS'CA'
p1062
aF-92.453
aF88.487
aF111.767
aa(lp1063
I199
aS'THR'
p1064
aS'C'
p1065
aF-91.564
aF89.73
aF111.784
aa(lp1066
I199
aS'THR'
p1067
aS'O'
p1068
aF-90.558
aF89.766
aF112.495
aa(lp1069
I199
aS'THR'
p1070
aS'H'
p1071
aF-90.847
aF87.398
aF112.082
aa(lp1072
I200
aS'LEU'
p1073
aS'N'
p1074
aF-91.911
aF90.726
aF110.973
aa(lp1075
I200
aS'LEU'
p1076
aS'CA'
p1077
aF-91.127
aF91.956
aF110.869
aa(lp1078
I200
aS'LEU'
p1079
aS'C'
p1080
aF-91.865
aF93.159
aF111.444
aa(lp1081
I200
aS'LEU'
p1082
aS'O'
p1083
aF-92.832
aF93.645
aF110.866
aa(lp1084
I200
aS'LEU'
p1085
aS'H'
p1086
aF-92.607
aF90.709
aF110.468
aaaaa(lp1087
S'seq_filter'
p1088
aS'VKIWKYNTYVLESTL'
p1089
aF53.333333333333336
aF14.0
aa(lp1090
S'contacts_filter'
p1091
aI23
aF69.56521739130434
aa(lp1092
S'PCS_filter'
p1093
a(lp1094
(lp1095
I0
aF0.012984075447606087
a(lp1096
(lp1097
g234
(g238
S'\xb4\x95X}\x96\x00?@'
p1098
tp1099
Rp1100
ag234
(g238
S'~rp<\xcf//@'
p1101
tp1102
Rp1103
aa(lp1104
g234
(g238
S"\xb0\xa8'\x98\r\xd3L\xc0"
p1105
tp1106
Rp1107
ag234
(g238
S'\xb9r\x1ck\x94\xe8=\xc0'
p1108
tp1109
Rp1110
aaaa(lp1111
I1
aF0.001168168017216852
a(lp1112
(lp1113
g234
(g238
S'\x16}U\x025\xc1T@'
p1114
tp1115
Rp1116
ag234
(g238
S'\x84\xfd\xfe\xe9\xc0H3@'
p1117
tp1118
Rp1119
aa(lp1120
g234
(g238
S'\x8c\xa9\xe9a\xf4~F@'
p1121
tp1122
Rp1123
ag234
(g238
S'pb\x94\xe8\xfbX6@'
p1124
tp1125
Rp1126
aaaaaa(lp1127
S'smotif_def'
p1128
a(lp1129
(lp1130
S'strand'
p1131
aI7
aI4
aI6
aI89
aI95
aa(lp1132
g1131
aI8
aI4
aI5
aI102
aI109
aaaaaa(lp1133
(lp1134
(lp1135
(lp1136
(lp1137
S'1ln3B00'
p1138
aS'85'
p1139
aS'93'
p1140
aS'96'
p1141
aS'103'
p1142
aa(lp1143
(lp1144
I85
aS'VAL'
p1145
aS'N'
p1146
aF80.301
aF126.81
aF40.694
aa(lp1147
I85
aS'VAL'
p1148
aS'CA'
p1149
aF81.301
aF127.82
aF41.019
aa(lp1150
I85
aS'VAL'
p1151
aS'C'
p1152
aF80.602
aF129.132
aF41.373
aa(lp1153
I85
aS'VAL'
p1154
aS'O'
p1155
aF79.932
aF129.735
aF40.537
aa(lp1156
I85
aS'VAL'
p1157
aS'H'
p1158
aF80.111
aF126.749
aF39.858
aa(lp1159
I86
aS'LYS'
p1160
aS'N'
p1161
aF80.755
aF129.564
aF42.618
aa(lp1162
I86
aS'LYS'
p1163
aS'CA'
p1164
aF80.144
aF130.8
aF43.075
aa(lp1165
I86
aS'LYS'
p1166
aS'C'
p1167
aF81.016
aF131.979
aF42.704
aa(lp1168
I86
aS'LYS'
p1169
aS'O'
p1170
aF80.518
aF133.019
aF42.308
aa(lp1171
I86
aS'LYS'
p1172
aS'H'
p1173
aF81.213
aF129.151
aF43.217
aa(lp1174
I87
aS'GLU'
p1175
aS'N'
p1176
aF82.321
aF131.804
aF42.867
aa(lp1177
I87
aS'GLU'
p1178
aS'CA'
p1179
aF83.287
aF132.827
aF42.545
aa(lp1180
I87
aS'GLU'
p1181
aS'C'
p1182
aF84.634
aF132.137
aF42.321
aa(lp1183
I87
aS'GLU'
p1184
aS'O'
p1185
aF85.038
aF131.28
aF43.111
aa(lp1186
I87
aS'GLU'
p1187
aS'H'
p1188
aF82.668
aF131.078
aF43.171
aa(lp1189
I88
aS'LEU'
p1190
aS'N'
p1191
aF85.311
aF132.501
aF41.232
aa(lp1192
I88
aS'LEU'
p1193
aS'CA'
p1194
aF86.594
aF131.896
aF40.901
aa(lp1195
I88
aS'LEU'
p1196
aS'C'
p1197
aF87.601
aF132.816
aF40.198
aa(lp1198
I88
aS'LEU'
p1199
aS'O'
p1200
aF87.315
aF133.369
aF39.155
aa(lp1201
I88
aS'LEU'
p1202
aS'H'
p1203
aF85.042
aF133.097
aF40.673
aa(lp1204
I89
aS'TYR'
p1205
aS'N'
p1206
aF88.791
aF132.956
aF40.776
aa(lp1207
I89
aS'TYR'
p1208
aS'CA'
p1209
aF89.851
aF133.766
aF40.187
aa(lp1210
I89
aS'TYR'
p1211
aS'C'
p1212
aF91.263
aF133.34
aF40.637
aa(lp1213
I89
aS'TYR'
p1214
aS'O'
p1215
aF91.437
aF132.797
aF41.73
aa(lp1216
I89
aS'TYR'
p1217
aS'H'
p1218
aF89.006
aF132.584
aF41.521
aa(lp1219
I90
aS'GLU'
p1220
aS'N'
p1221
aF92.258
aF133.568
aF39.772
aa(lp1222
I90
aS'GLU'
p1223
aS'CA'
p1224
aF93.67
aF133.209
aF40.016
aa(lp1225
I90
aS'GLU'
p1226
aS'C'
p1227
aF94.561
aF134.426
aF40.303
aa(lp1228
I90
aS'GLU'
p1229
aS'O'
p1230
aF94.171
aF135.556
aF40.039
aa(lp1231
I90
aS'GLU'
p1232
aS'H'
p1233
aF92.132
aF133.944
aF39.009
aa(lp1234
I91
aS'GLN'
p1235
aS'N'
p1236
aF95.764
aF134.191
aF40.828
aa(lp1237
I91
aS'GLN'
p1238
aS'CA'
p1239
aF96.709
aF135.282
aF41.106
aa(lp1240
I91
aS'GLN'
p1241
aS'C'
p1242
aF98.122
aF134.773
aF41.41
aa(lp1243
I91
aS'GLN'
p1244
aS'O'
p1245
aF98.297
aF133.615
aF41.752
aa(lp1246
I91
aS'GLN'
p1247
aS'H'
p1248
aF96.055
aF133.408
aF41.032
aa(lp1249
I92
aS'GLU'
p1250
aS'N'
p1251
aF99.128
aF135.638
aF41.281
aa(lp1252
I92
aS'GLU'
p1253
aS'CA'
p1254
aF100.508
aF135.254
aF41.573
aa(lp1255
I92
aS'GLU'
p1256
aS'C'
p1257
aF100.902
aF135.634
aF43.001
aa(lp1258
I92
aS'GLU'
p1259
aS'O'
p1260
aF100.542
aF136.694
aF43.502
aa(lp1261
I92
aS'GLU'
p1262
aS'H'
p1263
aF99.032
aF136.453
aF41.025
aa(lp1264
I93
aS'CYS'
p1265
aS'N'
p1266
aF101.644
aF134.758
aF43.658
aa(lp1267
I93
aS'CYS'
p1268
aS'CA'
p1269
aF102.109
aF135.007
aF45.017
aa(lp1270
I93
aS'CYS'
p1271
aS'C'
p1272
aF103.471
aF134.344
aF44.979
aa(lp1273
I93
aS'CYS'
p1274
aS'O'
p1275
aF103.549
aF133.116
aF44.918
aa(lp1276
I93
aS'CYS'
p1277
aS'H'
p1278
aF101.894
aF134.002
aF43.332
aaa(lp1279
(lp1280
I96
aS'GLU'
p1281
aS'N'
p1282
aF104.665
aF131.432
aF42.298
aa(lp1283
I96
aS'GLU'
p1284
aS'CA'
p1285
aF103.463
aF130.639
aF42.13
aa(lp1286
I96
aS'GLU'
p1287
aS'C'
p1288
aF102.143
aF131.368
aF41.838
aa(lp1289
I96
aS'GLU'
p1290
aS'O'
p1291
aF102.044
aF132.583
aF41.925
aa(lp1292
I96
aS'GLU'
p1293
aS'H'
p1294
aF104.955
aF131.454
aF43.107
aa(lp1295
I97
aS'THR'
p1296
aS'N'
p1297
aF101.139
aF130.582
aF41.465
aa(lp1298
I97
aS'THR'
p1299
aS'CA'
p1300
aF99.789
aF131.057
aF41.185
aa(lp1301
I97
aS'THR'
p1302
aS'C'
p1303
aF98.894
aF130.506
aF42.275
aa(lp1304
I97
aS'THR'
p1305
aS'O'
p1306
aF98.92
aF129.315
aF42.545
aa(lp1307
I97
aS'THR'
p1308
aS'H'
p1309
aF101.227
aF129.732
aF41.365
aa(lp1310
I98
aS'VAL'
p1311
aS'N'
p1312
aF98.098
aF131.359
aF42.891
aa(lp1313
I98
aS'VAL'
p1314
aS'CA'
p1315
aF97.195
aF130.896
aF43.914
aa(lp1316
I98
aS'VAL'
p1317
aS'C'
p1318
aF95.779
aF131.091
aF43.391
aa(lp1319
I98
aS'VAL'
p1320
aS'O'
p1321
aF95.459
aF132.135
aF42.82
aa(lp1322
I98
aS'VAL'
p1323
aS'H'
p1324
aF98.067
aF132.203
aF42.731
aa(lp1325
I99
aS'VAL'
p1326
aS'N'
p1327
aF94.957
aF130.054
aF43.561
aa(lp1328
I99
aS'VAL'
p1329
aS'CA'
p1330
aF93.576
aF130.055
aF43.119
aa(lp1331
I99
aS'VAL'
p1332
aS'C'
p1333
aF92.611
aF130.158
aF44.28
aa(lp1334
I99
aS'VAL'
p1335
aS'O'
p1336
aF92.858
aF129.647
aF45.379
aa(lp1337
I99
aS'VAL'
p1338
aS'H'
p1339
aF95.197
aF129.322
aF43.943
aa(lp1340
I100
aS'TYR'
p1341
aS'N'
p1342
aF91.51
aF130.852
aF44.026
aa(lp1343
I100
aS'TYR'
p1344
aS'CA'
p1345
aF90.482
aF131.039
aF45.031
aa(lp1346
I100
aS'TYR'
p1347
aS'C'
p1348
aF89.257
aF130.419
aF44.424
aa(lp1349
I100
aS'TYR'
p1350
aS'O'
p1351
aF88.906
aF130.793
aF43.318
aa(lp1352
I100
aS'TYR'
p1353
aS'H'
p1354
aF91.341
aF131.225
aF43.27
aa(lp1355
I101
aS'TRP'
p1356
aS'N'
p1357
aF88.589
aF129.507
aF45.134
aa(lp1358
I101
aS'TRP'
p1359
aS'CA'
p1360
aF87.412
aF128.842
aF44.565
aa(lp1361
I101
aS'TRP'
p1362
aS'C'
p1363
aF86.245
aF128.641
aF45.559
aa(lp1364
I101
aS'TRP'
p1365
aS'O'
p1366
aF86.408
aF127.957
aF46.554
aa(lp1367
I101
aS'TRP'
p1368
aS'H'
p1369
aF88.795
aF129.262
aF45.932
aa(lp1370
I102
aS'GLU'
p1371
aS'N'
p1372
aF85.081
aF129.213
aF45.274
aa(lp1373
I102
aS'GLU'
p1374
aS'CA'
p1375
aF83.961
aF129.104
aF46.163
aa(lp1376
I102
aS'GLU'
p1377
aS'C'
p1378
aF83.045
aF128.123
aF45.543
aa(lp1379
I102
aS'GLU'
p1380
aS'O'
p1381
aF82.688
aF128.267
aF44.37
aa(lp1382
I102
aS'GLU'
p1383
aS'H'
p1384
aF84.929
aF129.67
aF44.562
aa(lp1385
I103
aS'VAL'
p1386
aS'N'
p1387
aF82.691
aF127.1
aF46.315
aa(lp1388
I103
aS'VAL'
p1389
aS'CA'
p1390
aF81.716
aF126.123
aF45.837
aa(lp1391
I103
aS'VAL'
p1392
aS'C'
p1393
aF80.266
aF126.216
aF46.421
aa(lp1394
I103
aS'VAL'
p1395
aS'O'
p1396
aF80.108
aF126.164
aF47.624
aa(lp1397
I103
aS'VAL'
p1398
aS'H'
p1399
aF82.997
aF126.954
aF47.105
aaaaa(lp1400
S'seq_filter'
p1401
aS'VKELYEQECETVVYWEV'
p1402
aF47.05882352941176
aF12.5
aa(lp1403
S'contacts_filter'
p1404
aI29
aF86.20689655172413
aa(lp1405
S'PCS_filter'
p1406
a(lp1407
(lp1408
I0
aF0.015295900258816181
a(lp1409
(lp1410
g234
(g238
S'$\xe1\xff\xbb\xea\xbaP@'
p1411
tp1412
Rp1413
ag234
(g238
S'\\\x8c\xda\x0c\xb0\xa18@'
p1414
tp1415
Rp1416
aa(lp1417
g234
(g238
S'c\xf9\xe2\x9a\xa0\xfaP@'
p1418
tp1419
Rp1420
ag234
(g238
S'\x17\x18\x8c/\xda{A@'
p1421
tp1422
Rp1423
aaaa(lp1424
I1
aF0.001450834059879086
a(lp1425
(lp1426
g234
(g238
S'\xc78)\xfe\x90\x10Y@'
p1427
tp1428
Rp1429
ag234
(g238
S'\x0bp j\xf4\x07E@'
p1430
tp1431
Rp1432
aa(lp1433
g234
(g238
S'\x94ETM!=W@'
p1434
tp1435
Rp1436
ag234
(g238
S')-\x1a\xec\xa4KG@'
p1437
tp1438
Rp1439
aaaaaa(lp1440
S'smotif_def'
p1441
a(lp1442
(lp1443
S'strand'
p1444
aI9
aI4
aI4
aI89
aI97
aa(lp1445
g1444
aI8
aI4
aI5
aI102
aI109
aaaaaa(lp1446
(lp1447
(lp1448
(lp1449
(lp1450
S'3lx2B00'
p1451
aS'154'
p1452
aS'160'
p1453
aS'163'
p1454
aS'169'
p1455
aa(lp1456
(lp1457
I154
aS'SER'
p1458
aS'N'
p1459
aF42.076
aF18.41
aF6.985
aa(lp1460
I154
aS'SER'
p1461
aS'CA'
p1462
aF41.332
aF17.622
aF7.963
aa(lp1463
I154
aS'SER'
p1464
aS'C'
p1465
aF42.195
aF17.003
aF9.06
aa(lp1466
I154
aS'SER'
p1467
aS'O'
p1468
aF43.389
aF16.752
aF8.875
aa(lp1469
I154
aS'SER'
p1470
aS'H'
p1471
aF42.747
aF18.005
aF6.631
aa(lp1472
I155
aS'ILE'
p1473
aS'N'
p1474
aF41.558
aF16.76
aF10.197
aa(lp1475
I155
aS'ILE'
p1476
aS'CA'
p1477
aF42.234
aF16.283
aF11.393
aa(lp1478
I155
aS'ILE'
p1479
aS'C'
p1480
aF41.555
aF15.018
aF11.879
aa(lp1481
I155
aS'ILE'
p1482
aS'O'
p1483
aF40.344
aF14.96
aF11.94
aa(lp1484
I155
aS'ILE'
p1485
aS'H'
p1486
aF40.711
aF16.869
aF10.297
aa(lp1487
I156
aS'TYR'
p1488
aS'N'
p1489
aF42.337
aF14.005
aF12.245
aa(lp1490
I156
aS'TYR'
p1491
aS'CA'
p1492
aF41.786
aF12.779
aF12.848
aa(lp1493
I156
aS'TYR'
p1494
aS'C'
p1495
aF41.68
aF12.864
aF14.339
aa(lp1496
I156
aS'TYR'
p1497
aS'O'
p1498
aF42.644
aF13.232
aF14.991
aa(lp1499
I156
aS'TYR'
p1500
aS'H'
p1501
aF43.192
aF14.002
aF12.155
aa(lp1502
I157
aS'PHE'
p1503
aS'N'
p1504
aF40.518
aF12.5
aF14.88
aa(lp1505
I157
aS'PHE'
p1506
aS'CA'
p1507
aF40.352
aF12.259
aF16.303
aa(lp1508
I157
aS'PHE'
p1509
aS'C'
p1510
aF40.541
aF10.762
aF16.598
aa(lp1511
I157
aS'PHE'
p1512
aS'O'
p1513
aF39.817
aF9.922
aF16.07
aa(lp1514
I157
aS'PHE'
p1515
aS'H'
p1516
aF39.799
aF12.386
aF14.422
aa(lp1517
I158
aS'MET'
p1518
aS'N'
p1519
aF41.503
aF10.431
aF17.452
aa(lp1520
I158
aS'MET'
p1521
aS'CA'
p1522
aF41.856
aF9.05
aF17.781
aa(lp1523
I158
aS'MET'
p1524
aS'C'
p1525
aF41.951
aF8.887
aF19.288
aa(lp1526
I158
aS'MET'
p1527
aS'O'
p1528
aF42.437
aF9.783
aF19.973
aa(lp1529
I158
aS'MET'
p1530
aS'H'
p1531
aF41.98
aF11.014
aF17.867
aa(lp1532
I159
aS'ALA'
p1533
aS'N'
p1534
aF41.502
aF7.74
aF19.789
aa(lp1535
I159
aS'ALA'
p1536
aS'CA'
p1537
aF41.535
aF7.432
aF21.21
aa(lp1538
I159
aS'ALA'
p1539
aS'C'
p1540
aF41.951
aF6.004
aF21.463
aa(lp1541
I159
aS'ALA'
p1542
aS'O'
p1543
aF41.592
aF5.107
aF20.697
aa(lp1544
I159
aS'ALA'
p1545
aS'H'
p1546
aF41.166
aF7.113
aF19.306
aa(lp1547
I160
aS'THR'
p1548
aS'N'
p1549
aF42.725
aF5.816
aF22.529
aa(lp1550
I160
aS'THR'
p1551
aS'CA'
p1552
aF43.056
aF4.503
aF23.116
aa(lp1553
I160
aS'THR'
p1554
aS'C'
p1555
aF42.558
aF4.673
aF24.551
aa(lp1556
I160
aS'THR'
p1557
aS'O'
p1558
aF42.175
aF5.79
aF24.902
aa(lp1559
I160
aS'THR'
p1560
aS'H'
p1561
aF43.089
aF6.471
aF22.951
aaa(lp1562
(lp1563
I163
aS'LYS'
p1564
aS'N'
p1565
aF44.707
aF7.326
aF25.877
aa(lp1566
I163
aS'LYS'
p1567
aS'CA'
p1568
aF44.915
aF8.673
aF25.298
aa(lp1569
I163
aS'LYS'
p1570
aS'C'
p1571
aF44.114
aF9.16
aF24.093
aa(lp1572
I163
aS'LYS'
p1573
aS'O'
p1574
aF43.686
aF8.384
aF23.244
aa(lp1575
I163
aS'LYS'
p1576
aS'H'
p1577
aF44.417
aF6.728
aF25.331
aa(lp1578
I164
aS'LEU'
p1579
aS'N'
p1580
aF43.961
aF10.48
aF24.026
aa(lp1581
I164
aS'LEU'
p1582
aS'CA'
p1583
aF43.339
aF11.143
aF22.924
aa(lp1584
I164
aS'LEU'
p1585
aS'C'
p1586
aF44.444
aF11.707
aF22.08
aa(lp1587
I164
aS'LEU'
p1588
aS'O'
p1589
aF45.352
aF12.355
aF22.593
aa(lp1590
I164
aS'LEU'
p1591
aS'H'
p1592
aF44.228
aF11.015
aF24.644
aa(lp1593
I165
aS'THR'
p1594
aS'N'
p1595
aF44.385
aF11.447
aF20.785
aa(lp1596
I165
aS'THR'
p1597
aS'CA'
p1598
aF45.337
aF12.058
aF19.917
aa(lp1599
I165
aS'THR'
p1600
aS'C'
p1601
aF44.64
aF12.706
aF18.717
aa(lp1602
I165
aS'THR'
p1603
aS'O'
p1604
aF43.583
aF12.249
aF18.287
aa(lp1605
I165
aS'THR'
p1606
aS'H'
p1607
aF43.811
aF10.93
aF20.406
aa(lp1608
I166
aS'PHE'
p1609
aS'N'
p1610
aF45.186
aF13.814
aF18.232
aa(lp1611
I166
aS'PHE'
p1612
aS'CA'
p1613
aF44.64
aF14.535
aF17.055
aa(lp1614
I166
aS'PHE'
p1615
aS'C'
p1616
aF45.738
aF14.524
aF16.02
aa(lp1617
I166
aS'PHE'
p1618
aS'O'
p1619
aF46.794
aF15.078
aF16.285
aa(lp1620
I166
aS'PHE'
p1621
aS'H'
p1622
aF45.887
aF14.181
aF18.569
aa(lp1623
I167
aS'LYS'
p1624
aS'N'
p1625
aF45.549
aF13.801
aF14.908
aa(lp1626
I167
aS'LYS'
p1627
aS'CA'
p1628
aF46.593
aF13.738
aF13.866
aa(lp1629
I167
aS'LYS'
p1630
aS'C'
p1631
aF46.204
aF14.269
aF12.481
aa(lp1632
I167
aS'LYS'
p1633
aS'O'
p1634
aF45.022
aF14.45
aF12.154
aa(lp1635
I167
aS'LYS'
p1636
aS'H'
p1637
aF44.839
aF13.347
aF14.737
aa(lp1638
I168
aS'ALA'
p1639
aS'N'
p1640
aF47.224
aF14.537
aF11.685
aa(lp1641
I168
aS'ALA'
p1642
aS'CA'
p1643
aF47.026
aF15.038
aF10.34
aa(lp1644
I168
aS'ALA'
p1645
aS'C'
p1646
aF48.225
aF14.666
aF9.485
aa(lp1647
I168
aS'ALA'
p1648
aS'O'
p1649
aF49.368
aF14.753
aF9.931
aa(lp1650
I168
aS'ALA'
p1651
aS'H'
p1652
aF48.048
aF14.434
aF11.908
aa(lp1653
I169
aS'GLU'
p1654
aS'N'
p1655
aF47.937
aF14.198
aF8.277
aa(lp1656
I169
aS'GLU'
p1657
aS'CA'
p1658
aF48.954
aF13.745
aF7.332
aa(lp1659
I169
aS'GLU'
p1660
aS'C'
p1661
aF48.569
aF14.517
aF6.11
aa(lp1662
I169
aS'GLU'
p1663
aS'O'
p1664
aF47.388
aF14.673
aF5.808
aa(lp1665
I169
aS'GLU'
p1666
aS'H'
p1667
aF47.134
aF14.133
aF7.977
aaaaa(lp1668
S'seq_filter'
p1669
aS'SIYFMATKLTFKAE'
p1670
aF42.857142857142854
aF15.0
aa(lp1671
S'contacts_filter'
p1672
aI22
aF77.27272727272727
aa(lp1673
S'PCS_filter'
p1674
a(lp1675
(lp1676
I0
aF0.018149691525648312
a(lp1677
(lp1678
g234
(g238
S'\x1b\xa6Nb\x96\xadR@'
p1679
tp1680
Rp1681
ag234
(g238
S'\x06w\xe2\x8b\x89D4@'
p1682
tp1683
Rp1684
aa(lp1685
g234
(g238
S'\xfb\xbeTi\xf0\xdb`\xc0'
p1686
tp1687
Rp1688
ag234
(g238
S'C\xb0\x89N\xcesF\xc0'
p1689
tp1690
Rp1691
aaaa(lp1692
I1
aF0.0004900942714562798
a(lp1693
(lp1694
g234
(g238
S'7%?\xd8\x9b2D@'
p1695
tp1696
Rp1697
ag234
(g238
S'[\x8a\xe5G\xc4X6@'
p1698
tp1699
Rp1700
aa(lp1701
g234
(g238
S'Eu*P\x83\xce7@'
p1702
tp1703
Rp1704
ag234
(g238
S'dt 2`x)@'
p1705
tp1706
Rp1707
aaaaaa(lp1708
S'smotif_def'
p1709
a(lp1710
(lp1711
S'strand'
p1712
aI7
aI6
aI4
aI91
aI97
aa(lp1713
g1712
aI7
aI5
aI5
aI103
aI109
aaaaaa(lp1714
(lp1715
(lp1716
(lp1717
(lp1718
S'3decA02'
p1719
aS'258'
p1720
aS'264'
p1721
aS'270'
p1722
aS'276'
p1723
aa(lp1724
(lp1725
I258
aS'SER'
p1726
aS'N'
p1727
aF-29.959
aF-1.744
aF54.872
aa(lp1728
I258
aS'SER'
p1729
aS'CA'
p1730
aF-29.959
aF-0.282
aF54.81
aa(lp1731
I258
aS'SER'
p1732
aS'C'
p1733
aF-29.119
aF0.319
aF53.635
aa(lp1734
I258
aS'SER'
p1735
aS'O'
p1736
aF-28.124
aF-0.285
aF53.171
aa(lp1737
I258
aS'SER'
p1738
aS'H'
p1739
aF-29.187
aF-2.094
aF55.015
aa(lp1740
I259
aS'ILE'
p1741
aS'N'
p1742
aF-29.524
aF1.495
aF53.15
aa(lp1743
I259
aS'ILE'
p1744
aS'CA'
p1745
aF-28.692
aF2.284
aF52.214
aa(lp1746
I259
aS'ILE'
p1747
aS'C'
p1748
aF-28.224
aF3.572
aF52.892
aa(lp1749
I259
aS'ILE'
p1750
aS'O'
p1751
aF-29.046
aF4.282
aF53.457
aa(lp1752
I259
aS'ILE'
p1753
aS'H'
p1754
aF-30.277
aF1.86
aF53.347
aa(lp1755
I260
aS'ALA'
p1756
aS'N'
p1757
aF-26.923
aF3.873
aF52.827
aa(lp1758
I260
aS'ALA'
p1759
aS'CA'
p1760
aF-26.324
aF4.989
aF53.571
aa(lp1761
I260
aS'ALA'
p1762
aS'C'
p1763
aF-25.348
aF5.778
aF52.703
aa(lp1764
I260
aS'ALA'
p1765
aS'O'
p1766
aF-24.609
aF5.201
aF51.9
aa(lp1767
I260
aS'ALA'
p1768
aS'H'
p1769
aF-26.36
aF3.434
aF52.348
aa(lp1770
I261
aS'TYR'
p1771
aS'N'
p1772
aF-25.343
aF7.097
aF52.862
aa(lp1773
I261
aS'TYR'
p1774
aS'CA'
p1775
aF-24.384
aF7.93
aF52.162
aa(lp1776
I261
aS'TYR'
p1777
aS'C'
p1778
aF-23.548
aF8.74
aF53.127
aa(lp1779
I261
aS'TYR'
p1780
aS'O'
p1781
aF-23.981
aF9.04
aF54.229
aa(lp1782
I261
aS'TYR'
p1783
aS'H'
p1784
aF-25.888
aF7.526
aF53.371
aa(lp1785
I262
aS'THR'
p1786
aS'N'
p1787
aF-22.353
aF9.11
aF52.694
aa(lp1788
I262
aS'THR'
p1789
aS'CA'
p1790
aF-21.508
aF10.052
aF53.422
aa(lp1791
I262
aS'THR'
p1792
aS'C'
p1793
aF-20.871
aF11.028
aF52.428
aa(lp1794
I262
aS'THR'
p1795
aS'O'
p1796
aF-20.208
aF10.606
aF51.472
aa(lp1797
I262
aS'THR'
p1798
aS'H'
p1799
aF-22.004
aF8.821
aF51.963
aa(lp1800
I263
aS'LEU'
p1801
aS'N'
p1802
aF-21.093
aF12.321
aF52.628
aa(lp1803
I263
aS'LEU'
p1804
aS'CA'
p1805
aF-20.442
aF13.314
aF51.803
aa(lp1806
I263
aS'LEU'
p1807
aS'C'
p1808
aF-19.22
aF13.745
aF52.554
aa(lp1809
I263
aS'LEU'
p1810
aS'O'
p1811
aF-19.347
aF14.128
aF53.691
aa(lp1812
I263
aS'LEU'
p1813
aS'H'
p1814
aF-21.615
aF12.638
aF53.234
aa(lp1815
I264
aS'LYS'
p1816
aS'N'
p1817
aF-18.035
aF13.677
aF51.953
aa(lp1818
I264
aS'LYS'
p1819
aS'CA'
p1820
aF-16.806
aF14.054
aF52.662
aa(lp1821
I264
aS'LYS'
p1822
aS'C'
p1823
aF-16.041
aF15.161
aF51.939
aa(lp1824
I264
aS'LYS'
p1825
aS'O'
p1826
aF-16.05
aF15.239
aF50.73
aa(lp1827
I264
aS'LYS'
p1828
aS'H'
p1829
aF-17.917
aF13.418
aF51.142
aaa(lp1830
(lp1831
I270
aS'THR'
p1832
aS'N'
p1833
aF-16.228
aF13.96
aF57.255
aa(lp1834
I270
aS'THR'
p1835
aS'CA'
p1836
aF-17.649
aF13.829
aF56.954
aa(lp1837
I270
aS'THR'
p1838
aS'C'
p1839
aF-18.406
aF15.137
aF57.181
aa(lp1840
I270
aS'THR'
p1841
aS'O'
p1842
aF-18.279
aF15.729
aF58.239
aa(lp1843
I270
aS'THR'
p1844
aS'H'
p1845
aF-15.968
aF13.506
aF57.938
aa(lp1846
I271
aS'VAL'
p1847
aS'N'
p1848
aF-19.186
aF15.59
aF56.206
aa(lp1849
I271
aS'VAL'
p1850
aS'CA'
p1851
aF-19.855
aF16.882
aF56.337
aa(lp1852
I271
aS'VAL'
p1853
aS'C'
p1854
aF-21.363
aF16.773
aF56.229
aa(lp1855
I271
aS'VAL'
p1856
aS'O'
p1857
aF-22.089
aF17.642
aF56.679
aa(lp1858
I271
aS'VAL'
p1859
aS'H'
p1860
aF-19.341
aF15.173
aF55.47
aa(lp1861
I272
aS'LEU'
p1862
aS'N'
p1863
aF-21.826
aF15.722
aF55.582
aa(lp1864
I272
aS'LEU'
p1865
aS'CA'
p1866
aF-23.246
aF15.372
aF55.575
aa(lp1867
I272
aS'LEU'
p1868
aS'C'
p1869
aF-23.33
aF13.859
aF55.591
aa(lp1870
I272
aS'LEU'
p1871
aS'O'
p1872
aF-22.376
aF13.18
aF55.208
aa(lp1873
I272
aS'LEU'
p1874
aS'H'
p1875
aF-21.33
aF15.184
aF55.13
aa(lp1876
I273
aS'GLU'
p1877
aS'N'
p1878
aF-24.451
aF13.302
aF56.027
aa(lp1879
I273
aS'GLU'
p1880
aS'CA'
p1881
aF-24.553
aF11.855
aF56.03
aa(lp1882
I273
aS'GLU'
p1883
aS'C'
p1884
aF-25.928
aF11.409
aF56.414
aa(lp1885
I273
aS'GLU'
p1886
aS'O'
p1887
aF-26.55
aF11.971
aF57.299
aa(lp1888
I273
aS'GLU'
p1889
aS'H'
p1890
aF-25.141
aF13.727
aF56.315
aa(lp1891
I274
aS'GLY'
p1892
aS'N'
p1893
aF-26.392
aF10.382
aF55.717
aa(lp1894
I274
aS'GLY'
p1895
aS'CA'
p1896
aF-27.716
aF9.826
aF55.941
aa(lp1897
I274
aS'GLY'
p1898
aS'C'
p1899
aF-27.757
aF8.306
aF55.95
aa(lp1900
I274
aS'GLY'
p1901
aS'O'
p1902
aF-26.749
aF7.635
aF55.73
aa(lp1903
I274
aS'GLY'
p1904
aS'H'
p1905
aF-25.945
aF9.986
aF55.098
aa(lp1906
I275
aS'SER'
p1907
aS'N'
p1908
aF-28.956
aF7.776
aF56.177
aa(lp1909
I275
aS'SER'
p1910
aS'CA'
p1911
aF-29.157
aF6.374
aF56.496
aa(lp1912
I275
aS'SER'
p1913
aS'C'
p1914
aF-30.642
aF6.106
aF56.366
aa(lp1915
I275
aS'SER'
p1916
aS'O'
p1917
aF-31.462
aF6.87
aF56.864
aa(lp1918
I275
aS'SER'
p1919
aS'H'
p1920
aF-29.685
aF8.232
aF56.149
aa(lp1921
I276
aS'ARG'
p1922
aS'N'
p1923
aF-31.006
aF5.035
aF55.692
aa(lp1924
I276
aS'ARG'
p1925
aS'CA'
p1926
aF-32.4
aF4.667
aF55.624
aa(lp1927
I276
aS'ARG'
p1928
aS'C'
p1929
aF-32.436
aF3.134
aF55.809
aa(lp1930
I276
aS'ARG'
p1931
aS'O'
p1932
aF-31.462
aF2.47
aF55.473
aa(lp1933
I276
aS'ARG'
p1934
aS'H'
p1935
aF-30.468
aF4.513
aF55.271
aaaaa(lp1936
S'seq_filter'
p1937
aS'SIAYTLKTVLEGSR'
p1938
aF42.857142857142854
aF3.0
aa(lp1939
S'contacts_filter'
p1940
aI24
aF83.33333333333334
aa(lp1941
S'PCS_filter'
p1942
a(lp1943
(lp1944
I0
aF0.023285843431833587
a(lp1945
(lp1946
g234
(g238
S'\xf8[~\xe5\x97\xf1T@'
p1947
tp1948
Rp1949
ag234
(g238
S'\xad*~\xc3\\\xce7@'
p1950
tp1951
Rp1952
aa(lp1953
g234
(g238
S'\xd1vSp>\x06Z\xc0'
p1954
tp1955
Rp1956
ag234
(g238
S'FU\x19\xfc\xcf\xc9;\xc0'
p1957
tp1958
Rp1959
aaaa(lp1960
I1
aF0.000772261576466886
a(lp1961
(lp1962
g234
(g238
S'\x9cA\xf4\x1ai\xc4\x0f@'
p1963
tp1964
Rp1965
ag234
(g238
S"h']\xbcY\xf0\xd9?"
p1966
tp1967
Rp1968
aa(lp1969
g234
(g238
S'\x19"\x92\rYA\x07@'
p1970
tp1971
Rp1972
ag234
(g238
S'\x939\x88\xeb\x88\xba\xe9?'
p1973
tp1974
Rp1975
aaaaaa(lp1976
S'smotif_def'
p1977
a(lp1978
(lp1979
S'strand'
p1980
aI7
aI6
aI4
aI91
aI97
aa(lp1981
g1980
aI7
aI4
aI6
aI102
aI108
aaaaaa(lp1982
(lp1983
(lp1984
(lp1985
(lp1986
S'1sr3A00'
p1987
aS'79'
p1988
aS'85'
p1989
aS'90'
p1990
aS'96'
p1991
aa(lp1992
(lp1993
I79
aS'LYS'
p1994
aS'N'
p1995
aF1.197
aF14.376
aF6.46
aa(lp1996
I79
aS'LYS'
p1997
aS'CA'
p1998
aF0.077
aF13.46
aF6.617
aa(lp1999
I79
aS'LYS'
p2000
aS'C'
p2001
aF-0.756
aF13.483
aF5.348
aa(lp2002
I79
aS'LYS'
p2003
aS'O'
p2004
aF-0.943
aF14.539
aF4.739
aa(lp2005
I79
aS'LYS'
p2006
aS'H'
p2007
aF1.239
aF15.058
aF6.983
aa(lp2008
I80
aS'VAL'
p2009
aS'N'
p2010
aF-1.273
aF12.32
aF4.993
aa(lp2011
I80
aS'VAL'
p2012
aS'CA'
p2013
aF-2.214
aF12.123
aF3.918
aa(lp2014
I80
aS'VAL'
p2015
aS'C'
p2016
aF-3.34
aF11.261
aF4.45
aa(lp2017
I80
aS'VAL'
p2018
aS'O'
p2019
aF-3.166
aF10.438
aF5.357
aa(lp2020
I80
aS'VAL'
p2021
aS'H'
p2022
aF-1.059
aF11.606
aF5.421
aa(lp2023
I81
aS'THR'
p2024
aS'N'
p2025
aF-4.481
aF11.401
aF3.802
aa(lp2026
I81
aS'THR'
p2027
aS'CA'
p2028
aF-5.557
aF10.443
aF3.853
aa(lp2029
I81
aS'THR'
p2030
aS'C'
p2031
aF-6.071
aF10.317
aF2.423
aa(lp2032
I81
aS'THR'
p2033
aS'O'
p2034
aF-6.411
aF11.326
aF1.811
aa(lp2035
I81
aS'THR'
p2036
aS'H'
p2037
aF-4.537
aF11.996
aF3.184
aa(lp2038
I82
aS'PHE'
p2039
aS'N'
p2040
aF-6.039
aF9.121
aF1.841
aa(lp2041
I82
aS'PHE'
p2042
aS'CA'
p2043
aF-6.649
aF8.829
aF0.549
aa(lp2044
I82
aS'PHE'
p2045
aS'C'
p2046
aF-7.423
aF7.521
aF0.603
aa(lp2047
I82
aS'PHE'
p2048
aS'O'
p2049
aF-7.27
aF6.741
aF1.537
aa(lp2050
I82
aS'PHE'
p2051
aS'H'
p2052
aF-5.745
aF8.452
aF2.295
aa(lp2053
I83
aS'THR'
p2054
aS'N'
p2055
aF-8.189
aF7.239
aF-0.444
aa(lp2056
I83
aS'THR'
p2057
aS'CA'
p2058
aF-8.868
aF5.971
aF-0.648
aa(lp2059
I83
aS'THR'
p2060
aS'C'
p2061
aF-8.294
aF5.374
aF-1.934
aa(lp2062
I83
aS'THR'
p2063
aS'O'
p2064
aF-7.951
aF6.111
aF-2.864
aa(lp2065
I83
aS'THR'
p2066
aS'H'
p2067
aF-8.25
aF7.791
aF-1.101
aa(lp2068
I84
aS'ILE'
p2069
aS'N'
p2070
aF-8.175
aF4.052
aF-2.005
aa(lp2071
I84
aS'ILE'
p2072
aS'CA'
p2073
aF-7.743
aF3.315
aF-3.18
aa(lp2074
I84
aS'ILE'
p2075
aS'C'
p2076
aF-8.821
aF2.28
aF-3.46
aa(lp2077
I84
aS'ILE'
p2078
aS'O'
p2079
aF-9.365
aF1.68
aF-2.536
aa(lp2080
I84
aS'ILE'
p2081
aS'H'
p2082
aF-8.441
aF3.557
aF-1.354
aa(lp2083
I85
aS'TYR'
p2084
aS'N'
p2085
aF-9.14
aF2.086
aF-4.73
aa(lp2086
I85
aS'TYR'
p2087
aS'CA'
p2088
aF-10.19
aF1.214
aF-5.21
aa(lp2089
I85
aS'TYR'
p2090
aS'C'
p2091
aF-9.657
aF0.404
aF-6.383
aa(lp2092
I85
aS'TYR'
p2093
aS'O'
p2094
aF-8.521
aF0.58
aF-6.818
aa(lp2095
I85
aS'TYR'
p2096
aS'H'
p2097
aF-8.701
aF2.495
aF-5.346
aaa(lp2098
(lp2099
I90
aS'SER'
p2100
aS'N'
p2101
aF-13.157
aF-0.85
aF-2.338
aa(lp2102
I90
aS'SER'
p2103
aS'CA'
p2104
aF-12.162
aF0.149
aF-1.965
aa(lp2105
I90
aS'SER'
p2106
aS'C'
p2107
aF-11.698
aF0.007
aF-0.511
aa(lp2108
I90
aS'SER'
p2109
aS'O'
p2110
aF-12.396
aF-0.599
aF0.31
aa(lp2111
I90
aS'SER'
p2112
aS'H'
p2113
aF-13.637
aF-1.191
aF-1.711
aa(lp2114
I91
aS'VAL'
p2115
aS'N'
p2116
aF-10.539
aF0.591
aF-0.194
aa(lp2117
I91
aS'VAL'
p2118
aS'CA'
p2119
aF-9.901
aF0.638
aF1.121
aa(lp2120
I91
aS'VAL'
p2121
aS'C'
p2122
aF-9.383
aF2.049
aF1.346
aa(lp2123
I91
aS'VAL'
p2124
aS'O'
p2125
aF-9.09
aF2.762
aF0.381
aa(lp2126
I91
aS'VAL'
p2127
aS'H'
p2128
aF-10.12
aF1.032
aF-0.802
aa(lp2129
I92
aS'ASP'
p2130
aS'N'
p2131
aF-9.258
aF2.444
aF2.608
aa(lp2132
I92
aS'ASP'
p2133
aS'CA'
p2134
aF-8.688
aF3.735
aF2.962
aa(lp2135
I92
aS'ASP'
p2136
aS'C'
p2137
aF-7.201
aF3.566
aF3.241
aa(lp2138
I92
aS'ASP'
p2139
aS'O'
p2140
aF-6.726
aF2.47
aF3.56
aa(lp2141
I92
aS'ASP'
p2142
aS'H'
p2143
aF-9.428
aF1.885
aF3.239
aa(lp2144
I93
aS'VAL'
p2145
aS'N'
p2146
aF-6.455
aF4.661
aF3.148
aa(lp2147
I93
aS'VAL'
p2148
aS'CA'
p2149
aF-5.036
aF4.734
aF3.42
aa(lp2150
I93
aS'VAL'
p2151
aS'C'
p2152
aF-4.767
aF6.025
aF4.188
aa(lp2153
I93
aS'VAL'
p2154
aS'O'
p2155
aF-4.963
aF7.125
aF3.668
aa(lp2156
I93
aS'VAL'
p2157
aS'H'
p2158
aF-6.817
aF5.404
aF2.909
aa(lp2159
I94
aS'SER'
p2160
aS'N'
p2161
aF-4.233
aF5.884
aF5.394
aa(lp2162
I94
aS'SER'
p2163
aS'CA'
p2164
aF-3.43
aF6.896
aF6.043
aa(lp2165
I94
aS'SER'
p2166
aS'C'
p2167
aF-1.997
aF6.645
aF5.589
aa(lp2168
I94
aS'SER'
p2169
aS'O'
p2170
aF-1.516
aF5.514
aF5.67
aa(lp2171
I94
aS'SER'
p2172
aS'H'
p2173
aF-4.064
aF5.084
aF5.66
aa(lp2174
I95
aS'TYR'
p2175
aS'N'
p2176
aF-1.315
aF7.671
aF5.091
aa(lp2177
I95
aS'TYR'
p2178
aS'CA'
p2179
aF0.131
aF7.694
aF5.005
aa(lp2180
I95
aS'TYR'
p2181
aS'C'
p2182
aF0.564
aF8.958
aF5.728
aa(lp2183
I95
aS'TYR'
p2184
aS'O'
p2185
aF-0.22
aF9.895
aF5.87
aa(lp2186
I95
aS'TYR'
p2187
aS'H'
p2188
aF-1.648
aF8.464
aF5.084
aa(lp2189
I96
aS'GLU'
p2190
aS'N'
p2191
aF1.823
aF9.045
aF6.115
aa(lp2192
I96
aS'GLU'
p2193
aS'CA'
p2194
aF2.404
aF10.271
aF6.598
aa(lp2195
I96
aS'GLU'
p2196
aS'C'
p2197
aF3.85
aF10.25
aF6.152
aa(lp2198
I96
aS'GLU'
p2199
aS'O'
p2200
aF4.64
aF9.421
aF6.612
aa(lp2201
I96
aS'GLU'
p2202
aS'H'
p2203
aF2.367
aF8.387
aF6.01
aaaaa(lp2204
S'seq_filter'
p2205
aS'KVTFTIYSVDVSYE'
p2206
aF42.857142857142854
aF1.5
aa(lp2207
S'contacts_filter'
p2208
aI22
aF86.36363636363636
aa(lp2209
S'PCS_filter'
p2210
a(lp2211
(lp2212
I0
aF0.023419571289036854
a(lp2213
(lp2214
g234
(g238
S'\xa0R\xa4"\xa7\x9c7@'
p2215
tp2216
Rp2217
ag234
(g238
S'\xab\xa0\xb2\x0b1\xa6\x1e@'
p2218
tp2219
Rp2220
aa(lp2221
g234
(g238
S'\xf6\xbfG\x0f\\\x05C\xc0'
p2222
tp2223
Rp2224
ag234
(g238
S'Z\x04\x93Lcs(\xc0'
p2225
tp2226
Rp2227
aaaa(lp2228
I1
aF0.0008081545637865957
a(lp2229
(lp2230
g234
(g238
S'\xce\x1fm%`\xd1G@'
p2231
tp2232
Rp2233
ag234
(g238
S'\x8eh\x0e\xd0\xd5"5@'
p2234
tp2235
Rp2236
aa(lp2237
g234
(g238
S'\xfa\xde\xa32\xcf\xedH@'
p2238
tp2239
Rp2240
ag234
(g238
S'\x80h\x86\x9b\xacn:@'
p2241
tp2242
Rp2243
aaaaaa(lp2244
S'smotif_def'
p2245
a(lp2246
(lp2247
S'strand'
p2248
aI7
aI5
aI5
aI90
aI96
aa(lp2249
g2248
aI7
aI6
aI4
aI104
aI110
aaaaaa(lp2250
(lp2251
(lp2252
(lp2253
(lp2254
S'2a0aA00'
p2255
aS'102'
p2256
aS'108'
p2257
aS'112'
p2258
aS'118'
p2259
aa(lp2260
(lp2261
I102
aS'VAL'
p2262
aS'N'
p2263
aF5.198
aF8.655
aF-6.394
aa(lp2264
I102
aS'VAL'
p2265
aS'CA'
p2266
aF5.775
aF7.697
aF-5.434
aa(lp2267
I102
aS'VAL'
p2268
aS'C'
p2269
aF5.718
aF6.278
aF-6.027
aa(lp2270
I102
aS'VAL'
p2271
aS'O'
p2272
aF4.762
aF5.936
aF-6.727
aa(lp2273
I102
aS'VAL'
p2274
aS'H'
p2275
aF4.341
aF8.716
aF-6.427
aa(lp2276
I103
aS'LYS'
p2277
aS'N'
p2278
aF6.682
aF5.431
aF-5.667
aa(lp2279
I103
aS'LYS'
p2280
aS'CA'
p2281
aF6.797
aF4.019
aF-6.053
aa(lp2282
I103
aS'LYS'
p2283
aS'C'
p2284
aF6.932
aF3.183
aF-4.795
aa(lp2285
I103
aS'LYS'
p2286
aS'O'
p2287
aF7.9
aF3.335
aF-4.062
aa(lp2288
I103
aS'LYS'
p2289
aS'H'
p2290
aF7.34
aF5.741
aF-5.208
aa(lp2291
I104
aS'ILE'
p2292
aS'N'
p2293
aF5.971
aF2.305
aF-4.526
aa(lp2294
I104
aS'ILE'
p2295
aS'CA'
p2296
aF6.009
aF1.352
aF-3.414
aa(lp2297
I104
aS'ILE'
p2298
aS'C'
p2299
aF6.217
aF-0.046
aF-3.999
aa(lp2300
I104
aS'ILE'
p2301
aS'O'
p2302
aF5.621
aF-0.422
aF-5.008
aa(lp2303
I104
aS'ILE'
p2304
aS'H'
p2305
aF5.354
aF2.215
aF-5.118
aa(lp2306
I105
aS'ILE'
p2307
aS'N'
p2308
aF7.032
aF-0.832
aF-3.31
aa(lp2309
I105
aS'ILE'
p2310
aS'CA'
p2311
aF7.343
aF-2.229
aF-3.591
aa(lp2312
I105
aS'ILE'
p2313
aS'C'
p2314
aF7.02
aF-3.019
aF-2.321
aa(lp2315
I105
aS'ILE'
p2316
aS'O'
p2317
aF7.274
aF-2.527
aF-1.221
aa(lp2318
I105
aS'ILE'
p2319
aS'H'
p2320
aF7.471
aF-0.48
aF-2.66
aa(lp2321
I106
aS'ARG'
p2322
aS'N'
p2323
aF6.468
aF-4.224
aF-2.478
aa(lp2324
I106
aS'ARG'
p2325
aS'CA'
p2326
aF6.06
aF-5.148
aF-1.412
aa(lp2327
I106
aS'ARG'
p2328
aS'C'
p2329
aF6.433
aF-6.567
aF-1.84
aa(lp2330
I106
aS'ARG'
p2331
aS'O'
p2332
aF6.008
aF-6.989
aF-2.902
aa(lp2333
I106
aS'ARG'
p2334
aS'H'
p2335
aF6.283
aF-4.456
aF-3.285
aa(lp2336
I107
aS'GLU'
p2337
aS'N'
p2338
aF7.217
aF-7.315
aF-1.057
aa(lp2339
I107
aS'GLU'
p2340
aS'CA'
p2341
aF7.633
aF-8.681
aF-1.442
aa(lp2342
I107
aS'GLU'
p2343
aS'C'
p2344
aF7.283
aF-9.694
aF-0.347
aa(lp2345
I107
aS'GLU'
p2346
aS'O'
p2347
aF7.746
aF-9.588
aF0.784
aa(lp2348
I107
aS'GLU'
p2349
aS'H'
p2350
aF7.546
aF-6.964
aF-0.344
aa(lp2351
I108
aS'PHE'
p2352
aS'N'
p2353
aF6.412
aF-10.647
aF-0.689
aa(lp2354
I108
aS'PHE'
p2355
aS'CA'
p2356
aF5.861
aF-11.713
aF0.141
aa(lp2357
I108
aS'PHE'
p2358
aS'C'
p2359
aF6.889
aF-12.774
aF0.566
aa(lp2360
I108
aS'PHE'
p2361
aS'O'
p2362
aF6.976
aF-13.839
aF-0.039
aa(lp2363
I108
aS'PHE'
p2364
aS'H'
p2365
aF6.179
aF-10.675
aF-1.516
aaa(lp2366
(lp2367
I112
aS'GLU'
p2368
aS'N'
p2369
aF5.612
aF-12.435
aF6.468
aa(lp2370
I112
aS'GLU'
p2371
aS'CA'
p2372
aF5.678
aF-10.974
aF6.429
aa(lp2373
I112
aS'GLU'
p2374
aS'C'
p2375
aF5.948
aF-10.491
aF4.995
aa(lp2376
I112
aS'GLU'
p2377
aS'O'
p2378
aF6.237
aF-11.285
aF4.096
aa(lp2379
I112
aS'GLU'
p2380
aS'H'
p2381
aF6.088
aF-12.831
aF5.871
aa(lp2382
I113
aS'VAL'
p2383
aS'N'
p2384
aF5.883
aF-9.173
aF4.79
aa(lp2385
I113
aS'VAL'
p2386
aS'CA'
p2387
aF6.091
aF-8.486
aF3.507
aa(lp2388
I113
aS'VAL'
p2389
aS'C'
p2390
aF7.052
aF-7.318
aF3.7
aa(lp2391
I113
aS'VAL'
p2392
aS'O'
p2393
aF6.781
aF-6.439
aF4.505
aa(lp2394
I113
aS'VAL'
p2395
aS'H'
p2396
aF5.65
aF-8.678
aF5.454
aa(lp2397
I114
aS'VAL'
p2398
aS'N'
p2399
aF8.163
aF-7.276
aF2.96
aa(lp2400
I114
aS'VAL'
p2401
aS'CA'
p2402
aF9.099
aF-6.132
aF2.977
aa(lp2403
I114
aS'VAL'
p2404
aS'C'
p2405
aF8.581
aF-4.996
aF2.09
aa(lp2406
I114
aS'VAL'
p2407
aS'O'
p2408
aF8.428
aF-5.178
aF0.888
aa(lp2409
I114
aS'VAL'
p2410
aS'H'
p2411
aF8.307
aF-7.908
aF2.395
aa(lp2412
I115
aS'VAL'
p2413
aS'N'
p2414
aF8.297
aF-3.828
aF2.675
aa(lp2415
I115
aS'VAL'
p2416
aS'CA'
p2417
aF7.92
aF-2.618
aF1.932
aa(lp2418
I115
aS'VAL'
p2419
aS'C'
p2420
aF9.149
aF-1.775
aF1.64
aa(lp2421
I115
aS'VAL'
p2422
aS'O'
p2423
aF10.003
aF-1.578
aF2.503
aa(lp2424
I115
aS'VAL'
p2425
aS'H'
p2426
aF8.358
aF-3.753
aF3.53
aa(lp2427
I116
aS'THR'
p2428
aS'N'
p2429
aF9.173
aF-1.206
aF0.437
aa(lp2430
I116
aS'THR'
p2431
aS'CA'
p2432
aF10.196
aF-0.291
aF-0.091
aa(lp2433
I116
aS'THR'
p2434
aS'C'
p2435
aF9.457
aF0.826
aF-0.836
aa(lp2436
I116
aS'THR'
p2437
aS'O'
p2438
aF9.024
aF0.667
aF-1.973
aa(lp2439
I116
aS'THR'
p2440
aS'H'
p2441
aF8.542
aF-1.453
aF-0.092
aa(lp2442
I117
aS'ALA'
p2443
aS'N'
p2444
aF9.216
aF1.944
aF-0.145
aa(lp2445
I117
aS'ALA'
p2446
aS'CA'
p2447
aF8.691
aF3.147
aF-0.78
aa(lp2448
I117
aS'ALA'
p2449
aS'C'
p2450
aF9.834
aF4.028
aF-1.294
aa(lp2451
I117
aS'ALA'
p2452
aS'O'
p2453
aF10.855
aF4.142
aF-0.62
aa(lp2454
I117
aS'ALA'
p2455
aS'H'
p2456
aF9.546
aF2.037
aF0.644
aa(lp2457
I118
aS'SER'
p2458
aS'N'
p2459
aF9.648
aF4.713
aF-2.423
aa(lp2460
I118
aS'SER'
p2461
aS'CA'
p2462
aF10.6
aF5.684
aF-2.974
aa(lp2463
I118
aS'SER'
p2464
aS'C'
p2465
aF9.887
aF6.706
aF-3.88
aa(lp2466
I118
aS'SER'
p2467
aS'O'
p2468
aF9.167
aF6.345
aF-4.803
aa(lp2469
I118
aS'SER'
p2470
aS'H'
p2471
aF8.984
aF4.51
aF-2.93
aaaaa(lp2472
S'seq_filter'
p2473
aS'VKIIREFEVVVTAS'
p2474
aF42.857142857142854
aF2.0
aa(lp2475
S'contacts_filter'
p2476
aI23
aF82.6086956521739
aa(lp2477
S'PCS_filter'
p2478
a(lp2479
(lp2480
I0
aF0.025570494857711467
a(lp2481
(lp2482
g234
(g238
S'\xb0fe\xfd\xe4\\Q@'
p2483
tp2484
Rp2485
ag234
(g238
S'\t\x03\xb91\\[8@'
p2486
tp2487
Rp2488
aa(lp2489
g234
(g238
S"'\xbb\xc2\x1f\xb6B^\xc0"
p2490
tp2491
Rp2492
ag234
(g238
S'\x96@\xc1\xe4\x9asE\xc0'
p2493
tp2494
Rp2495
aaaa(lp2496
I1
aF0.001003064097992318
a(lp2497
(lp2498
g234
(g238
S'\xdb\xd81/\x06\xd08@'
p2499
tp2500
Rp2501
ag234
(g238
S'~\xc4\xf3\x0e\x8e:(@'
p2502
tp2503
Rp2504
aa(lp2505
g234
(g238
S'(\xb4\xfbo\xcbM1@'
p2506
tp2507
Rp2508
ag234
(g238
S'\xde\xcb5&\xe1\x9e!@'
p2509
tp2510
Rp2511
aaaaaa(lp2512
S'smotif_def'
p2513
a(lp2514
(lp2515
S'strand'
p2516
aI7
aI5
aI5
aI90
aI96
aa(lp2517
g2516
aI7
aI4
aI6
aI102
aI108
aaaaaa(lp2518
(lp2519
(lp2520
(lp2521
(lp2522
S'2vu4A00'
p2523
aS'111'
p2524
aS'117'
p2525
aS'124'
p2526
aS'133'
p2527
aa(lp2528
(lp2529
I111
aS'ALA'
p2530
aS'N'
p2531
aF5.783
aF3.293
aF25.713
aa(lp2532
I111
aS'ALA'
p2533
aS'CA'
p2534
aF5.241
aF3.283
aF24.368
aa(lp2535
I111
aS'ALA'
p2536
aS'C'
p2537
aF3.755
aF3.695
aF24.518
aa(lp2538
I111
aS'ALA'
p2539
aS'O'
p2540
aF3.054
aF3.205
aF25.4
aa(lp2541
I111
aS'ALA'
p2542
aS'H'
p2543
aF5.3
aF2.833
aF26.256
aa(lp2544
I112
aS'ASN'
p2545
aS'N'
p2546
aF3.308
aF4.684
aF23.783
aa(lp2547
I112
aS'ASN'
p2548
aS'CA'
p2549
aF1.927
aF5.206
aF23.795
aa(lp2550
I112
aS'ASN'
p2551
aS'C'
p2552
aF1.415
aF5.061
aF22.359
aa(lp2553
I112
aS'ASN'
p2554
aS'O'
p2555
aF2.051
aF5.612
aF21.462
aa(lp2556
I112
aS'ASN'
p2557
aS'H'
p2558
aF3.814
aF5.103
aF23.228
aa(lp2559
I113
aS'VAL'
p2560
aS'N'
p2561
aF0.311
aF4.335
aF22.148
aa(lp2562
I113
aS'VAL'
p2563
aS'CA'
p2564
aF-0.286
aF4.184
aF20.829
aa(lp2565
I113
aS'VAL'
p2566
aS'C'
p2567
aF-1.179
aF5.378
aF20.513
aa(lp2568
I113
aS'VAL'
p2569
aS'O'
p2570
aF-2.247
aF5.54
aF21.131
aa(lp2571
I113
aS'VAL'
p2572
aS'H'
p2573
aF-0.109
aF3.918
aF22.772
aa(lp2574
I114
aS'LEU'
p2575
aS'N'
p2576
aF-0.69
aF6.266
aF19.65
aa(lp2577
I114
aS'LEU'
p2578
aS'CA'
p2579
aF-1.42
aF7.456
aF19.248
aa(lp2580
I114
aS'LEU'
p2581
aS'C'
p2582
aF-2.633
aF7.026
aF18.483
aa(lp2583
I114
aS'LEU'
p2584
aS'O'
p2585
aF-3.728
aF7.468
aF18.804
aa(lp2586
I114
aS'LEU'
p2587
aS'H'
p2588
aF0.083
aF6.19
aF19.28
aa(lp2589
I115
aS'GLU'
p2590
aS'N'
p2591
aF-2.457
aF6.121
aF17.495
aa(lp2592
I115
aS'GLU'
p2593
aS'CA'
p2594
aF-3.581
aF5.757
aF16.637
aa(lp2595
I115
aS'GLU'
p2596
aS'C'
p2597
aF-3.354
aF4.392
aF16.066
aa(lp2598
I115
aS'GLU'
p2599
aS'O'
p2600
aF-2.217
aF3.95
aF15.954
aa(lp2601
I115
aS'GLU'
p2602
aS'H'
p2603
aF-1.715
aF5.724
aF17.318
aa(lp2604
I116
aS'SER'
p2605
aS'N'
p2606
aF-4.427
aF3.725
aF15.692
aa(lp2607
I116
aS'SER'
p2608
aS'CA'
p2609
aF-4.271
aF2.532
aF14.857
aa(lp2610
I116
aS'SER'
p2611
aS'C'
p2612
aF-5.443
aF2.412
aF13.914
aa(lp2613
I116
aS'SER'
p2614
aS'O'
p2615
aF-6.504
aF2.964
aF14.19
aa(lp2616
I116
aS'SER'
p2617
aS'H'
p2618
aF-5.236
aF3.931
aF15.899
aa(lp2619
I117
aS'SER'
p2620
aS'N'
p2621
aF-5.21
aF1.712
aF12.795
aa(lp2622
I117
aS'SER'
p2623
aS'CA'
p2624
aF-6.159
aF1.552
aF11.716
aa(lp2625
I117
aS'SER'
p2626
aS'C'
p2627
aF-5.94
aF0.241
aF10.991
aa(lp2628
I117
aS'SER'
p2629
aS'O'
p2630
aF-4.895
aF-0.41
aF11.105
aa(lp2631
I117
aS'SER'
p2632
aS'H'
p2633
aF-4.465
aF1.308
aF12.65
aaa(lp2634
(lp2635
I124
aS'LYS'
p2636
aS'N'
p2637
aF-6.146
aF-6.334
aF-0.086
aa(lp2638
I124
aS'LYS'
p2639
aS'CA'
p2640
aF-5.287
aF-6.72
aF1.043
aa(lp2641
I124
aS'LYS'
p2642
aS'C'
p2643
aF-5.619
aF-5.941
aF2.308
aa(lp2644
I124
aS'LYS'
p2645
aS'O'
p2646
aF-5.62
aF-4.695
aF2.291
aa(lp2647
I124
aS'LYS'
p2648
aS'H'
p2649
aF-5.79
aF-5.741
aF-0.596
aa(lp2650
I125
aS'GLN'
p2651
aS'N'
p2652
aF-5.845
aF-6.669
aF3.396
aa(lp2653
I125
aS'GLN'
p2654
aS'CA'
p2655
aF-5.888
aF-6.08
aF4.722
aa(lp2656
I125
aS'GLN'
p2657
aS'C'
p2658
aF-4.489
aF-5.603
aF5.207
aa(lp2659
I125
aS'GLN'
p2660
aS'O'
p2661
aF-3.538
aF-6.397
aF5.316
aa(lp2662
I125
aS'GLN'
p2663
aS'H'
p2664
aF-5.977
aF-7.519
aF3.383
aa(lp2665
I126
aS'TYR'
p2666
aS'N'
p2667
aF-4.377
aF-4.328
aF5.545
aa(lp2668
I126
aS'TYR'
p2669
aS'CA'
p2670
aF-3.192
aF-3.833
aF6.249
aa(lp2671
I126
aS'TYR'
p2672
aS'C'
p2673
aF-3.473
aF-3.443
aF7.695
aa(lp2674
I126
aS'TYR'
p2675
aS'O'
p2676
aF-4.615
aF-3.219
aF8.049
aa(lp2677
I126
aS'TYR'
p2678
aS'H'
p2679
aF-4.972
aF-3.73
aF5.379
aa(lp2680
I127
aS'TYR'
p2681
aS'N'
p2682
aF-2.43
aF-3.406
aF8.523
aa(lp2683
I127
aS'TYR'
p2684
aS'CA'
p2685
aF-2.531
aF-2.764
aF9.797
aa(lp2686
I127
aS'TYR'
p2687
aS'C'
p2688
aF-1.582
aF-1.549
aF9.735
aa(lp2689
I127
aS'TYR'
p2690
aS'O'
p2691
aF-0.532
aF-1.6
aF9.128
aa(lp2692
I127
aS'TYR'
p2693
aS'H'
p2694
aF-1.661
aF-3.751
aF8.352
aa(lp2695
I128
aS'SER'
p2696
aS'N'
p2697
aF-1.956
aF-0.478
aF10.388
aa(lp2698
I128
aS'SER'
p2699
aS'CA'
p2700
aF-1.092
aF0.667
aF10.56
aa(lp2701
I128
aS'SER'
p2702
aS'C'
p2703
aF-1.147
aF1.089
aF12.049
aa(lp2704
I128
aS'SER'
p2705
aS'O'
p2706
aF-2.242
aF1.101
aF12.69
aa(lp2707
I128
aS'SER'
p2708
aS'H'
p2709
aF-2.73
aF-0.39
aF10.751
aa(lp2710
I129
aS'ILE'
p2711
aS'N'
p2712
aF0.04
aF1.275
aF12.625
aa(lp2713
I129
aS'ILE'
p2714
aS'CA'
p2715
aF0.152
aF1.711
aF13.994
aa(lp2716
I129
aS'ILE'
p2717
aS'C'
p2718
aF1.112
aF2.914
aF14.18
aa(lp2719
I129
aS'ILE'
p2720
aS'O'
p2721
aF2.27
aF2.888
aF13.755
aa(lp2722
I129
aS'ILE'
p2723
aS'H'
p2724
aF0.793
aF1.15
aF12.228
aa(lp2725
I130
aS'THR'
p2726
aS'N'
p2727
aF0.623
aF3.955
aF14.836
aa(lp2728
I130
aS'THR'
p2729
aS'CA'
p2730
aF1.46
aF5.069
aF15.287
aa(lp2731
I130
aS'THR'
p2732
aS'C'
p2733
aF1.733
aF5.069
aF16.799
aa(lp2734
I130
aS'THR'
p2735
aS'O'
p2736
aF0.797
aF5.15
aF17.649
aa(lp2737
I130
aS'THR'
p2738
aS'H'
p2739
aF-0.209
aF4.041
aF15.036
aa(lp2740
I131
aS'VAL'
p2741
aS'N'
p2742
aF3.022
aF4.994
aF17.137
aa(lp2743
I131
aS'VAL'
p2744
aS'CA'
p2745
aF3.462
aF4.852
aF18.511
aa(lp2746
I131
aS'VAL'
p2747
aS'C'
p2748
aF4.497
aF5.862
aF18.869
aa(lp2749
I131
aS'VAL'
p2750
aS'O'
p2751
aF5.433
aF6.115
aF18.123
aa(lp2752
I131
aS'VAL'
p2753
aS'H'
p2754
aF3.664
aF5.025
aF16.566
aa(lp2755
I132
aS'LEU'
p2756
aS'N'
p2757
aF4.361
aF6.384
aF20.053
aa(lp2758
I132
aS'LEU'
p2759
aS'CA'
p2760
aF5.279
aF7.333
aF20.602
aa(lp2761
I132
aS'LEU'
p2762
aS'C'
p2763
aF6.083
aF6.593
aF21.655
aa(lp2764
I132
aS'LEU'
p2765
aS'O'
p2766
aF5.511
aF6.072
aF22.591
aa(lp2767
I132
aS'LEU'
p2768
aS'H'
p2769
aF3.709
aF6.19
aF20.58
aa(lp2770
I133
aS'THR'
p2771
aS'N'
p2772
aF7.398
aF6.561
aF21.518
aa(lp2773
I133
aS'THR'
p2774
aS'CA'
p2775
aF8.27
aF5.963
aF22.523
aa(lp2776
I133
aS'THR'
p2777
aS'C'
p2778
aF9.265
aF6.928
aF23.158
aa(lp2779
I133
aS'THR'
p2780
aS'O'
p2781
aF9.701
aF7.918
aF22.55
aa(lp2782
I133
aS'THR'
p2783
aS'H'
p2784
aF7.815
aF6.885
aF20.839
aaaaa(lp2785
g805
aS'ANVLESSKQYYSITVLT'
p2786
aF41.17647058823529
aF7.0
aa(lp2787
g808
aI26
aF57.692307692307686
aa(lp2788
g810
a(lp2789
(lp2790
I0
aF0.03172316007465664
a(lp2791
(lp2792
g234
(g238
S'*\xda\xe6\x97\xae\x8bF@'
p2793
tp2794
Rp2795
ag234
(g238
S'6\x8f\x94=\x01\xab3@'
p2796
tp2797
Rp2798
aa(lp2799
g234
(g238
S'\xba\x7fR,\x89\xfaP\xc0'
p2800
tp2801
Rp2802
ag234
(g238
S'\xaa\xe4$3HMD\xc0'
p2803
tp2804
Rp2805
aaaa(lp2806
I1
aF0.0008854368827837091
a(lp2807
(lp2808
g234
(g238
S'.Pi\xca\x07\xcbW@'
p2809
tp2810
Rp2811
ag234
(g238
S'h\x92\xd5\xe8f6K@'
p2812
tp2813
Rp2814
aa(lp2815
g234
(g238
S'~\x9b\xa9\xdb}/L@'
p2816
tp2817
Rp2818
ag234
(g238
S'\x84\xe4k\x12\xb9\xc7=@'
p2819
tp2820
Rp2821
aaaaaa(lp2822
g845
a(lp2823
g847
ag849
aaaaa.