(lp0
(lp1
I6
aI7
aS'start'
p2
aa(lp3
I5
aI6
aS'left'
p4
aa(lp5
I4
aI5
ag4
aa(lp6
I3
aI4
ag4
aa(lp7
I2
aI3
ag4
aa(lp8
I1
aI2
ag4
aa(lp9
I0
aI1
ag4
aa(lp10
I7
aI8
aS'right'
p11
aa(lp12
I8
aI9
ag11
aa(lp13
I9
aI10
ag11
aa.