(dp0
S'ss_seq'
p1
S'CCCCCEEEEEEEECCCHHHHHHHHHCCCCCCCCCCCEEEEEECCCCCCCCCCEEEEECCCCCEEEEEEEEEEEEECCCEEEEEECCCCEEEEEEEEECCCCEEEEEEEEECCCCHHHHHHHHCHHHHHHHHHHHHHHHHCHHHHHHHHHHHHCCCCC'
p2
sS'pcs_data'
p3
(lp4
(lp5
(lp6
F999.999
aF999.999
aa(lp7
F999.999
aF999.999
aa(lp8
F-0.161
aF0.151
aa(lp9
F-0.133
aF0.264
aa(lp10
F-0.177
aF0.228
aa(lp11
F-0.181
aF0.344
aa(lp12
F-0.265
aF0.463
aa(lp13
F-0.325
aF0.543
aa(lp14
F-0.524
aF0.854
aa(lp15
F-0.602
aF0.878
aa(lp16
F-1.071
aF1.737
aa(lp17
F-1.147
aF1.612
aa(lp18
F-2.615
aF999.999
aa(lp19
F-3.273
aF999.999
aa(lp20
F999.999
aF999.999
aa(lp21
F999.999
aF999.999
aa(lp22
F999.999
aF999.999
aa(lp23
F999.999
aF999.999
aa(lp24
F999.999
aF999.999
aa(lp25
F999.999
aF999.999
aa(lp26
F-2.794
aF999.999
aa(lp27
F-1.718
aF999.999
aa(lp28
F-1.496
aF3.719
aa(lp29
F-1.286
aF2.854
aa(lp30
F-0.944
aF2.174
aa(lp31
F-0.476
aF1.222
aa(lp32
F-0.361
aF0.926
aa(lp33
F-0.269
aF0.793
aa(lp34
F999.999
aF0.479
aa(lp35
F999.999
aF0.478
aa(lp36
F0.08
aF0.267
aa(lp37
F999.999
aF0.194
aa(lp38
F0.078
aF0.193
aa(lp39
F999.999
aF0.23
aa(lp40
F999.999
aF999.999
aa(lp41
F999.999
aF0.275
aa(lp42
F-0.054
aF0.274
aa(lp43
F-0.065
aF0.288
aa(lp44
F-0.095
aF0.275
aa(lp45
F-0.097
aF0.27
aa(lp46
F-0.102
aF0.307
aa(lp47
F-0.128
aF0.245
aa(lp48
F-0.19
aF0.321
aa(lp49
F-0.181
aF0.335
aa(lp50
F-0.151
aF0.189
aa(lp51
F-0.059
aF0.082
aa(lp52
F-0.182
aF999.999
aa(lp53
F999.999
aF999.999
aa(lp54
F-0.278
aF0.121
aa(lp55
F-0.242
aF0.107
aa(lp56
F-0.176
aF0.218
aa(lp57
F-0.244
aF0.138
aa(lp58
F-0.178
aF0.19
aa(lp59
F-0.257
aF0.357
aa(lp60
F-0.104
aF0.346
aa(lp61
F-0.097
aF0.328
aa(lp62
F999.999
aF0.311
aa(lp63
F-0.099
aF0.279
aa(lp64
F999.999
aF0.272
aa(lp65
F-0.065
aF0.199
aa(lp66
F999.999
aF999.999
aa(lp67
F999.999
aF0.179
aa(lp68
F-0.079
aF0.231
aa(lp69
F999.999
aF0.194
aa(lp70
F-0.097
aF0.214
aa(lp71
F-0.073
aF0.28
aa(lp72
F-0.183
aF0.315
aa(lp73
F-0.189
aF0.307
aa(lp74
F-0.17
aF0.406
aa(lp75
F-0.194
aF0.335
aa(lp76
F-0.211
aF0.316
aa(lp77
F-0.27
aF0.389
aa(lp78
F-0.377
aF0.402
aa(lp79
F-0.371
aF0.316
aa(lp80
F-0.618
aF0.595
aa(lp81
F999.999
aF999.999
aa(lp82
F-1.239
aF1.065
aa(lp83
F-1.175
aF1.155
aa(lp84
F-0.978
aF1.0
aa(lp85
F-0.867
aF1.319
aa(lp86
F-0.511
aF0.716
aa(lp87
F-0.402
aF0.687
aa(lp88
F-0.283
aF0.415
aa(lp89
F-0.29
aF0.428
aa(lp90
F-0.15
aF0.347
aa(lp91
F-0.113
aF0.21
aa(lp92
F-0.207
aF0.307
aa(lp93
F-0.184
aF0.281
aa(lp94
F-0.193
aF0.302
aa(lp95
F-0.289
aF0.402
aa(lp96
F-0.352
aF0.608
aa(lp97
F-0.432
aF0.79
aa(lp98
F-0.66
aF1.087
aa(lp99
F-0.777
aF1.32
aa(lp100
F-1.17
aF1.794
aa(lp101
F-1.883
aF3.034
aa(lp102
F999.999
aF999.999
aa(lp103
F999.999
aF999.999
aa(lp104
F999.999
aF999.999
aa(lp105
F999.999
aF999.999
aa(lp106
F999.999
aF999.999
aa(lp107
F999.999
aF999.999
aa(lp108
F-2.238
aF3.9
aa(lp109
F-1.82
aF3.076
aa(lp110
F-1.133
aF1.886
aa(lp111
F-0.733
aF1.314
aa(lp112
F-0.507
aF0.905
aa(lp113
F-0.394
aF0.691
aa(lp114
F-0.261
aF0.529
aa(lp115
F-0.212
aF0.356
aa(lp116
F-0.166
aF0.339
aa(lp117
F999.999
aF999.999
aa(lp118
F-0.135
aF0.188
aa(lp119
F-0.156
aF0.26
aa(lp120
F-0.101
aF0.22
aa(lp121
F-0.067
aF0.203
aa(lp122
F-0.107
aF0.185
aa(lp123
F-0.087
aF0.167
aa(lp124
F-0.079
aF0.203
aa(lp125
F999.999
aF0.106
aa(lp126
F-0.094
aF0.107
aa(lp127
F-0.116
aF0.113
aa(lp128
F-0.067
aF0.098
aa(lp129
F-0.085
aF0.153
aa(lp130
F-0.088
aF0.111
aa(lp131
F-0.065
aF0.128
aa(lp132
F-0.112
aF0.145
aa(lp133
F-0.138
aF0.143
aa(lp134
F-0.084
aF0.147
aa(lp135
F-0.064
aF0.163
aa(lp136
F-0.11
aF0.266
aa(lp137
F-0.098
aF0.2
aa(lp138
F-0.105
aF0.243
aa(lp139
F-0.191
aF0.309
aa(lp140
F-0.149
aF0.306
aa(lp141
F-0.169
aF0.404
aa(lp142
F-0.28
aF0.426
aa(lp143
F-0.204
aF0.437
aa(lp144
F-0.243
aF0.487
aa(lp145
F-0.307
aF0.554
aa(lp146
F-0.406
aF0.673
aa(lp147
F999.999
aF999.999
aa(lp148
F-0.389
aF0.785
aa(lp149
F-0.489
aF0.97
aa(lp150
F-0.657
aF1.232
aa(lp151
F-0.762
aF1.202
aa(lp152
F-0.764
aF1.327
aa(lp153
F-1.009
aF1.812
aa(lp154
F-1.284
aF2.313
aa(lp155
F-1.09
aF1.97
aa(lp156
F-0.982
aF2.013
aa(lp157
F-1.447
aF3.051
aa(lp158
F-1.734
aF3.056
aa(lp159
F-1.131
aF1.931
aa(lp160
F-0.82
aF2.288
aa(lp161
F-1.22
aF2.879
aa(lp162
F-0.903
aF1.065
aaa(lp163
(lp164
F999.999
aF999.999
aa(lp165
F999.999
aF999.999
aa(lp166
F-0.136
aF-0.21
aa(lp167
F-0.179
aF-0.136
aa(lp168
F-0.174
aF-0.213
aa(lp169
F-0.219
aF-0.248
aa(lp170
F-0.239
aF-0.164
aa(lp171
F-0.182
aF-0.155
aa(lp172
F-0.243
aF-0.204
aa(lp173
F-0.196
aF-0.12
aa(lp174
F-0.199
aF-0.151
aa(lp175
F-0.12
aF999.999
aa(lp176
F-0.171
aF-0.06
aa(lp177
F-0.193
aF-0.09
aa(lp178
F-0.154
aF-0.119
aa(lp179
F999.999
aF999.999
aa(lp180
F-0.121
aF-0.142
aa(lp181
F-0.11
aF-0.131
aa(lp182
F-0.191
aF-0.113
aa(lp183
F-0.256
aF-0.112
aa(lp184
F-0.194
aF-0.153
aa(lp185
F-0.208
aF-0.158
aa(lp186
F-0.362
aF-0.216
aa(lp187
F-0.34
aF-0.268
aa(lp188
F-0.375
aF-0.254
aa(lp189
F-0.55
aF-0.35
aa(lp190
F-0.585
aF-0.43
aa(lp191
F-0.473
aF-0.344
aa(lp192
F-0.602
aF-0.525
aa(lp193
F-0.818
aF-0.746
aa(lp194
F-0.328
aF-0.496
aa(lp195
F999.999
aF-0.323
aa(lp196
F0.386
aF999.999
aa(lp197
F0.322
aF0.241
aa(lp198
F999.999
aF999.999
aa(lp199
F-1.691
aF-1.515
aa(lp200
F-1.009
aF-0.729
aa(lp201
F-0.245
aF999.999
aa(lp202
F0.214
aF0.407
aa(lp203
F0.11
aF0.211
aa(lp204
F-0.132
aF999.999
aa(lp205
F999.999
aF-0.086
aa(lp206
F-0.192
aF-0.07
aa(lp207
F-0.115
aF-0.097
aa(lp208
F999.999
aF999.999
aa(lp209
F999.999
aF999.999
aa(lp210
F-0.054
aF-0.052
aa(lp211
F999.999
aF999.999
aa(lp212
F999.999
aF-0.051
aa(lp213
F-0.057
aF-0.09
aa(lp214
F-0.092
aF-0.089
aa(lp215
F-0.067
aF-0.059
aa(lp216
F-0.092
aF999.999
aa(lp217
F-0.181
aF-0.124
aa(lp218
F-0.127
aF-0.085
aa(lp219
F-0.304
aF-0.267
aa(lp220
F-0.182
aF999.999
aa(lp221
F-0.797
aF-0.851
aa(lp222
F-1.633
aF-1.36
aa(lp223
F999.999
aF999.999
aa(lp224
F999.999
aF999.999
aa(lp225
F999.999
aF999.999
aa(lp226
F999.999
aF999.999
aa(lp227
F-1.221
aF-2.533
aa(lp228
F-1.098
aF-1.514
aa(lp229
F-0.477
aF-0.719
aa(lp230
F-0.424
aF-0.466
aa(lp231
F-0.291
aF-0.348
aa(lp232
F-0.224
aF-0.237
aa(lp233
F-0.22
aF-0.141
aa(lp234
F-0.146
aF-0.154
aa(lp235
F-0.122
aF-0.091
aa(lp236
F-0.104
aF-0.159
aa(lp237
F-0.074
aF-0.115
aa(lp238
F-0.173
aF-0.082
aa(lp239
F999.999
aF999.999
aa(lp240
F-0.146
aF-0.135
aa(lp241
F-0.113
aF-0.139
aa(lp242
F-0.121
aF-0.055
aa(lp243
F-0.194
aF-0.165
aa(lp244
F-0.141
aF-0.156
aa(lp245
F-0.209
aF-0.223
aa(lp246
F-0.231
aF-0.22
aa(lp247
F-0.317
aF-0.262
aa(lp248
F-0.242
aF-0.199
aa(lp249
F-0.144
aF-0.128
aa(lp250
F-0.167
aF-0.215
aa(lp251
F-0.158
aF-0.172
aa(lp252
F-0.228
aF-0.263
aa(lp253
F-0.281
aF-0.304
aa(lp254
F-0.281
aF-0.22
aa(lp255
F-0.28
aF-0.231
aa(lp256
F-0.25
aF-0.18
aa(lp257
F-0.155
aF-0.155
aa(lp258
F-0.163
aF-0.092
aa(lp259
F-0.13
aF-0.094
aa(lp260
F999.999
aF999.999
aa(lp261
F-0.158
aF999.999
aa(lp262
F-0.091
aF-0.094
aa(lp263
F-0.085
aF-0.095
aa(lp264
F-0.063
aF999.999
aa(lp265
F-0.196
aF999.999
aa(lp266
F-0.17
aF-0.095
aa(lp267
F-0.212
aF-0.139
aa(lp268
F-0.154
aF-0.139
aa(lp269
F-0.238
aF-0.203
aa(lp270
F-0.276
aF-0.168
aa(lp271
F-0.272
aF-0.214
aa(lp272
F-0.285
aF-0.273
aa(lp273
F-0.226
aF-0.271
aa(lp274
F-0.222
aF-0.247
aa(lp275
F999.999
aF999.999
aa(lp276
F-0.108
aF-0.186
aa(lp277
F-0.235
aF-0.26
aa(lp278
F-0.138
aF-0.251
aa(lp279
F-0.15
aF-0.232
aa(lp280
F-0.198
aF-0.32
aa(lp281
F-0.222
aF-0.426
aa(lp282
F-0.143
aF-0.294
aa(lp283
F-0.12
aF-0.285
aa(lp284
F-0.125
aF-0.365
aa(lp285
F-0.093
aF-0.346
aa(lp286
F-0.104
aF-0.359
aa(lp287
F-0.132
aF-0.284
aa(lp288
F-0.076
aF-0.246
aa(lp289
F-0.176
aF-0.342
aa(lp290
F-0.159
aF-0.285
aa(lp291
F-0.141
aF-0.337
aa(lp292
F-0.165
aF-0.383
aa(lp293
F-0.238
aF-0.4
aa(lp294
F-0.197
aF-0.356
aa(lp295
F-0.216
aF-0.347
aa(lp296
F-0.259
aF-0.406
aa(lp297
F-0.276
aF-0.329
aa(lp298
F-0.274
aF-0.265
aa(lp299
F-0.31
aF-0.362
aa(lp300
F-0.361
aF-0.281
aa(lp301
F-0.262
aF-0.251
aa(lp302
F-0.265
aF-0.249
aa(lp303
F-0.37
aF-0.273
aa(lp304
F-0.278
aF-0.293
aa(lp305
F999.999
aF999.999
aa(lp306
F-0.277
aF-0.204
aa(lp307
F-0.334
aF-0.247
aa(lp308
F-0.351
aF-0.213
aa(lp309
F-0.319
aF-0.072
aa(lp310
F-0.336
aF-0.108
aa(lp311
F-0.337
aF-0.126
aa(lp312
F-0.274
aF-0.107
aa(lp313
F-0.208
aF-0.086
aa(lp314
F-0.318
aF999.999
aa(lp315
F-0.271
aF-0.056
aa(lp316
F-0.242
aF-0.096
aa(lp317
F-0.203
aF999.999
aa(lp318
F-0.221
aF999.999
aa(lp319
F-0.14
aF-0.112
aa(lp320
F-0.137
aF999.999
aaa(lp321
(lp322
F999.999
aF999.999
aa(lp323
F999.999
aF999.999
aa(lp324
F0.105
aF-0.558
aa(lp325
F0.103
aF-0.321
aa(lp326
F999.999
aF-0.471
aa(lp327
F999.999
aF-0.075
aa(lp328
F-0.078
aF999.999
aa(lp329
F-0.101
aF0.085
aa(lp330
F-0.062
aF0.091
aa(lp331
F999.999
aF0.122
aa(lp332
F-0.051
aF999.999
aa(lp333
F999.999
aF0.102
aa(lp334
F999.999
aF999.999
aa(lp335
F999.999
aF999.999
aa(lp336
F999.999
aF999.999
aa(lp337
F999.999
aF999.999
aa(lp338
F999.999
aF999.999
aa(lp339
F999.999
aF999.999
aa(lp340
F999.999
aF999.999
aa(lp341
F999.999
aF999.999
aa(lp342
F999.999
aF999.999
aa(lp343
F999.999
aF999.999
aa(lp344
F999.999
aF999.999
aa(lp345
F999.999
aF999.999
aa(lp346
F999.999
aF-0.068
aa(lp347
F-0.054
aF-0.099
aa(lp348
F999.999
aF-0.105
aa(lp349
F999.999
aF-0.124
aa(lp350
F-0.078
aF-0.116
aa(lp351
F999.999
aF999.999
aa(lp352
F999.999
aF999.999
aa(lp353
F999.999
aF999.999
aa(lp354
F-0.076
aF-0.063
aa(lp355
F999.999
aF-0.053
aa(lp356
F999.999
aF999.999
aa(lp357
F999.999
aF-0.142
aa(lp358
F-0.063
aF-0.125
aa(lp359
F-0.106
aF-0.179
aa(lp360
F-0.111
aF-0.149
aa(lp361
F999.999
aF-0.147
aa(lp362
F999.999
aF-0.123
aa(lp363
F999.999
aF-0.091
aa(lp364
F999.999
aF-0.133
aa(lp365
F999.999
aF-0.101
aa(lp366
F999.999
aF-0.129
aa(lp367
F-0.051
aF-0.054
aa(lp368
F999.999
aF-0.064
aa(lp369
F999.999
aF999.999
aa(lp370
F999.999
aF-0.113
aa(lp371
F999.999
aF-0.077
aa(lp372
F0.055
aF-0.15
aa(lp373
F0.051
aF-0.073
aa(lp374
F999.999
aF-0.14
aa(lp375
F999.999
aF-0.183
aa(lp376
F-0.052
aF-0.178
aa(lp377
F-0.069
aF-0.214
aa(lp378
F-0.111
aF-0.145
aa(lp379
F-0.088
aF-0.238
aa(lp380
F-0.074
aF-0.176
aa(lp381
F-0.139
aF-0.172
aa(lp382
F999.999
aF999.999
aa(lp383
F-0.121
aF-0.204
aa(lp384
F-0.086
aF-0.206
aa(lp385
F-0.153
aF-0.274
aa(lp386
F-0.098
aF-0.283
aa(lp387
F-0.162
aF-0.269
aa(lp388
F-0.064
aF-0.258
aa(lp389
F999.999
aF-0.28
aa(lp390
F-0.079
aF-0.206
aa(lp391
F-0.055
aF-0.222
aa(lp392
F999.999
aF-0.166
aa(lp393
F999.999
aF-0.196
aa(lp394
F999.999
aF-0.168
aa(lp395
F999.999
aF-0.099
aa(lp396
F999.999
aF-0.055
aa(lp397
F999.999
aF999.999
aa(lp398
F999.999
aF-0.079
aa(lp399
F999.999
aF-0.074
aa(lp400
F999.999
aF999.999
aa(lp401
F999.999
aF-0.075
aa(lp402
F999.999
aF-0.106
aa(lp403
F999.999
aF-0.14
aa(lp404
F999.999
aF-0.182
aa(lp405
F999.999
aF-0.228
aa(lp406
F-0.062
aF-0.303
aa(lp407
F999.999
aF-0.379
aa(lp408
F999.999
aF-0.342
aa(lp409
F999.999
aF-0.378
aa(lp410
F-0.057
aF-0.395
aa(lp411
F999.999
aF-0.216
aa(lp412
F999.999
aF-0.181
aa(lp413
F999.999
aF-0.07
aa(lp414
F999.999
aF-0.097
aa(lp415
F-0.057
aF999.999
aa(lp416
F999.999
aF999.999
aa(lp417
F999.999
aF999.999
aa(lp418
F999.999
aF999.999
aa(lp419
F999.999
aF0.058
aa(lp420
F999.999
aF999.999
aa(lp421
F999.999
aF0.055
aa(lp422
F999.999
aF999.999
aa(lp423
F999.999
aF0.066
aa(lp424
F999.999
aF0.057
aa(lp425
F999.999
aF999.999
aa(lp426
F999.999
aF999.999
aa(lp427
F999.999
aF999.999
aa(lp428
F999.999
aF-0.068
aa(lp429
F-0.076
aF999.999
aa(lp430
F999.999
aF-0.175
aa(lp431
F999.999
aF-0.317
aa(lp432
F0.08
aF-0.487
aa(lp433
F999.999
aF999.999
aa(lp434
F0.192
aF-0.819
aa(lp435
F999.999
aF-0.855
aa(lp436
F999.999
aF-1.04
aa(lp437
F-0.054
aF-1.524
aa(lp438
F-0.281
aF-1.475
aa(lp439
F-0.563
aF-1.853
aa(lp440
F-0.686
aF-2.825
aa(lp441
F-0.863
aF-3.024
aa(lp442
F-1.456
aF-3.586
aa(lp443
F-2.471
aF999.999
aa(lp444
F-2.939
aF999.999
aa(lp445
F999.999
aF999.999
aa(lp446
F999.999
aF999.999
aa(lp447
F999.999
aF999.999
aa(lp448
F999.999
aF999.999
aa(lp449
F-1.049
aF0.282
aa(lp450
F-0.897
aF-0.697
aa(lp451
F-0.706
aF-0.713
aa(lp452
F-0.5
aF0.348
aa(lp453
F-0.394
aF0.321
aa(lp454
F-0.269
aF-0.076
aa(lp455
F-0.193
aF0.081
aa(lp456
F-0.207
aF0.469
aa(lp457
F-0.133
aF0.313
aa(lp458
F-0.151
aF0.202
aa(lp459
F-0.104
aF0.322
aa(lp460
F-0.078
aF0.335
aa(lp461
F-0.065
aF0.221
aa(lp462
F999.999
aF0.122
aa(lp463
F999.999
aF999.999
aa(lp464
F-0.07
aF0.178
aa(lp465
F999.999
aF0.09
aa(lp466
F999.999
aF999.999
aa(lp467
F999.999
aF0.082
aa(lp468
F999.999
aF0.094
aa(lp469
F999.999
aF0.069
aa(lp470
F-0.051
aF999.999
aa(lp471
F999.999
aF999.999
aa(lp472
F-0.064
aF999.999
aa(lp473
F999.999
aF0.071
aa(lp474
F999.999
aF0.055
aa(lp475
F-0.053
aF999.999
aa(lp476
F999.999
aF999.999
aa(lp477
F999.999
aF999.999
aa(lp478
F999.999
aF999.999
aaasS'aa_seq'
p479
S'MPKSLTFEDSINIAAPINQVYALVSDITRTGEWSPVCEKCWWDEDEGPVVGAHFTGRNVTPERTWETRSEVIVAEPNRCFGWSVTDGNVKWIYSMEPLEEGTVLTESWEFTPKGQRFFHDKFGDKSIEEIEKRRLAAITGIPETLVAIQRILEVELE'
p480
sS'contacts'
p481
(lp482
(lp483
I10
aI105
aF8.0
aF1.0
aa(lp484
I8
aI107
aF8.0
aF1.0
aa(lp485
I90
aI108
aF8.0
aF1.0
aa(lp486
I54
aI68
aF8.0
aF1.0
aa(lp487
I93
aI106
aF8.0
aF1.0
aa(lp488
I82
aI91
aF8.0
aF1.0
aa(lp489
I92
aI106
aF8.0
aF1.0
aa(lp490
I10
aI103
aF8.0
aF1.0
aa(lp491
I91
aI107
aF8.0
aF1.0
aa(lp492
I94
aI105
aF8.0
aF1.0
aa(lp493
I80
aI93
aF8.0
aF1.0
aa(lp494
I6
aI109
aF8.0
aF1.0
aa(lp495
I54
aI69
aF8.0
aF1.0
aa(lp496
I7
aI108
aF8.0
aF1.0
aa(lp497
I8
aI105
aF8.0
aF1.0
aa(lp498
I90
aI109
aF8.0
aF1.0
aa(lp499
I52
aI70
aF8.0
aF1.0
aa(lp500
I79
aI94
aF8.0
aF1.0
aa(lp501
I83
aI90
aF8.0
aF1.0
aa(lp502
I53
aI69
aF8.0
aF1.0
aa(lp503
I53
aI70
aF8.0
aF1.0
aa(lp504
I12
aI103
aF8.0
aF1.0
aa(lp505
I95
aI102
aF8.0
aF1.0
aa(lp506
I50
aI72
aF8.0
aF1.0
aa(lp507
I56
aI67
aF8.0
aF1.0
aa(lp508
I70
aI83
aF8.0
aF1.0
aa(lp509
I95
aI104
aF8.0
aF1.0
aa(lp510
I52
aI71
aF8.0
aF1.0
aa(lp511
I81
aI92
aF8.0
aF1.0
aa(lp512
I7
aI107
aF8.0
aF1.0
aa(lp513
I55
aI68
aF8.0
aF1.0
aa(lp514
I84
aI89
aF8.0
aF1.0
aa(lp515
I74
aI80
aF8.0
aF1.0
aa(lp516
I55
aI67
aF8.0
aF1.0
aa(lp517
I92
aI107
aF8.0
aF1.0
aa(lp518
I89
aI110
aF8.0
aF1.0
aa(lp519
I91
aI108
aF8.0
aF1.0
aa(lp520
I89
aI109
aF8.0
aF1.0
aa(lp521
I6
aI107
aF8.0
aF1.0
aa(lp522
I6
aI108
aF8.0
aF1.0
aa(lp523
I53
aI68
aF8.0
aF1.0
aa(lp524
I96
aI103
aF8.0
aF1.0
aa(lp525
I55
aI66
aF8.0
aF1.0
aa(lp526
I57
aI66
aF8.0
aF1.0
aa(lp527
I74
aI79
aF8.0
aF1.0
aa(lp528
I51
aI71
aF8.0
aF1.0
aa(lp529
I57
aI64
aF8.0
aF1.0
aa(lp530
I20
aI95
aF8.0
aF1.0
aa(lp531
I98
aI103
aF8.0
aF0.9
aa(lp532
I15
aI20
aF8.0
aF0.9
aa(lp533
I56
aI66
aF8.0
aF0.9
aa(lp534
I12
aI101
aF8.0
aF0.9
aa(lp535
I50
aI73
aF8.0
aF0.9
aa(lp536
I93
aI105
aF8.0
aF0.9
aa(lp537
I14
aI101
aF8.0
aF0.9
aa(lp538
I80
aI92
aF8.0
aF0.9
aa(lp539
I72
aI81
aF8.0
aF0.9
aa(lp540
I97
aI102
aF8.0
aF0.9
aa(lp541
I5
aI110
aF8.0
aF0.9
aa(lp542
I81
aI90
aF8.0
aF0.9
aa(lp543
I95
aI103
aF8.0
aF0.9
aa(lp544
I58
aI65
aF8.0
aF0.9
aa(lp545
I81
aI91
aF8.0
aF0.9
aa(lp546
I96
aI105
aF8.0
aF0.9
aa(lp547
I89
aI111
aF8.0
aF0.9
aa(lp548
I73
aI79
aF8.0
aF0.9
aa(lp549
I69
aI82
aF8.0
aF0.9
aa(lp550
I72
aI83
aF8.0
aF0.9
aa(lp551
I73
aI80
aF8.0
aF0.9
aa(lp552
I82
aI90
aF8.0
aF0.9
aa(lp553
I79
aI92
aF8.0
aF0.9
aa(lp554
I94
aI104
aF8.0
aF0.9
aa(lp555
I11
aI103
aF8.0
aF0.9
aa(lp556
I51
aI72
aF8.0
aF0.9
aa(lp557
I68
aI85
aF8.0
aF0.9
aa(lp558
I69
aI83
aF8.0
aF0.9
aa(lp559
I96
aI102
aF8.0
aF0.9
aa(lp560
I90
aI110
aF8.0
aF0.9
aa(lp561
I82
aI93
aF8.0
aF0.9
aa(lp562
I57
aI65
aF8.0
aF0.9
aa(lp563
I10
aI104
aF8.0
aF0.9
aa(lp564
I11
aI104
aF8.0
aF0.9
aa(lp565
I69
aI106
aF8.0
aF0.9
aa(lp566
I13
aI104
aF8.0
aF0.9
aa(lp567
I93
aI104
aF8.0
aF0.9
aa(lp568
I84
aI91
aF8.0
aF0.9
aa(lp569
I71
aI82
aF8.0
aF0.9
aa(lp570
I49
aI73
aF8.0
aF0.9
aa(lp571
I36
aI56
aF8.0
aF0.9
aa(lp572
I80
aI95
aF8.0
aF0.9
aa(lp573
I5
aI109
aF8.0
aF0.9
aa(lp574
I93
aI107
aF8.0
aF0.9
aa(lp575
I94
aI106
aF8.0
aF0.9
aa(lp576
I83
aI89
aF8.0
aF0.9
aa(lp577
I48
aI74
aF8.0
aF0.9
aa(lp578
I70
aI82
aF8.0
aF0.9
aa(lp579
I69
aI84
aF8.0
aF0.9
aa(lp580
I91
aI109
aF8.0
aF0.9
aa(lp581
I89
aI108
aF8.0
aF0.9
aa(lp582
I21
aI77
aF8.0
aF0.9
aa(lp583
I67
aI84
aF8.0
aF0.9
aa(lp584
I91
aI106
aF8.0
aF0.8
aa(lp585
I92
aI108
aF8.0
aF0.8
aa(lp586
I49
aI74
aF8.0
aF0.8
aa(lp587
I96
aI104
aF8.0
aF0.8
aa(lp588
I11
aI149
aF8.0
aF0.8
aa(lp589
I15
aI152
aF8.0
aF0.8
aa(lp590
I24
aI148
aF8.0
aF0.8
aa(lp591
I94
aI107
aF8.0
aF0.8
aa(lp592
I8
aI106
aF8.0
aF0.8
aa(lp593
I72
aI80
aF8.0
aF0.8
aa(lp594
I84
aI90
aF8.0
aF0.8
aa(lp595
I36
aI55
aF8.0
aF0.8
aa(lp596
I70
aI85
aF8.0
aF0.8
aa(lp597
I97
aI103
aF8.0
aF0.8
aa(lp598
I79
aI93
aF8.0
aF0.8
aa(lp599
I12
aI102
aF8.0
aF0.8
aa(lp600
I59
aI64
aF8.0
aF0.8
aa(lp601
I71
aI80
aF8.0
aF0.8
aa(lp602
I71
aI81
aF8.0
aF0.8
aa(lp603
I80
aI94
aF8.0
aF0.8
aa(lp604
I82
aI92
aF8.0
aF0.8
aa(lp605
I9
aI106
aF8.0
aF0.8
aa(lp606
I34
aI144
aF8.0
aF0.8
aa(lp607
I34
aI56
aF8.0
aF0.8
aa(lp608
I70
aI84
aF8.0
aF0.8
aa(lp609
I17
aI95
aF8.0
aF0.8
aa(lp610
I73
aI81
aF8.0
aF0.8
aa(lp611
I56
aI65
aF8.0
aF0.8
aa(lp612
I58
aI64
aF8.0
aF0.8
aa(lp613
I79
aI95
aF8.0
aF0.8
aa(lp614
I50
aI71
aF8.0
aF0.8
aa(lp615
I24
aI95
aF8.0
aF0.8
aa(lp616
I67
aI108
aF8.0
aF0.8
aa(lp617
I37
aI56
aF8.0
aF0.8
aa(lp618
I23
aI152
aF8.0
aF0.8
aa(lp619
I58
aI63
aF8.0
aF0.8
aa(lp620
I40
aI52
aF8.0
aF0.8
aa(lp621
I74
aI81
aF8.0
aF0.8
aa(lp622
I95
aI105
aF8.0
aF0.8
aa(lp623
I81
aI93
aF8.0
aF0.8
aa(lp624
I50
aI74
aF8.0
aF0.8
aa(lp625
I25
aI74
aF8.0
aF0.8
aa(lp626
I9
aI105
aF8.0
aF0.8
aa(lp627
I9
aI108
aF8.0
aF0.8
aa(lp628
I35
aI56
aF8.0
aF0.7
aa(lp629
I21
aI80
aF8.0
aF0.7
aa(lp630
I37
aI54
aF8.0
aF0.7
aa(lp631
I17
aI77
aF8.0
aF0.7
aa(lp632
I54
aI70
aF8.0
aF0.7
aa(lp633
I27
aI40
aF8.0
aF0.7
aa(lp634
I72
aI82
aF8.0
aF0.7
aa(lp635
I11
aI106
aF8.0
aF0.7
aa(lp636
I68
aI84
aF8.0
aF0.7
aa(lp637
I17
aI102
aF8.0
aF0.7
aa(lp638
I78
aI94
aF8.0
aF0.7
aa(lp639
I88
aI110
aF8.0
aF0.7
aa(lp640
I37
aI55
aF8.0
aF0.7
aa(lp641
I83
aI88
aF8.0
aF0.7
aa(lp642
I51
aI73
aF8.0
aF0.7
aa(lp643
I17
aI78
aF8.0
aF0.7
aa(lp644
I67
aI106
aF8.0
aF0.7
aa(lp645
I32
aI151
aF8.0
aF0.7
aa(lp646
I71
aI83
aF8.0
aF0.7
aa(lp647
I34
aI58
aF8.0
aF0.7
aa(lp648
I71
aI104
aF8.0
aF0.7
aa(lp649
I23
aI148
aF8.0
aF0.7
aa(lp650
I13
aI149
aF8.0
aF0.7
aa(lp651
I83
aI91
aF8.0
aF0.7
aa(lp652
I54
aI67
aF8.0
aF0.7
aa(lp653
I78
aI96
aF8.0
aF0.7
aa(lp654
I36
aI57
aF8.0
aF0.7
aas.