(lp0
(lp1
I9
aI10
aS'start'
p2
aa(lp3
I8
aI9
aS'left'
p4
aa(lp5
I7
aI8
ag4
aa(lp6
I6
aI7
ag4
aa(lp7
I5
aI6
ag4
aa(lp8
I4
aI5
ag4
aa(lp9
I3
aI4
ag4
aa(lp10
I2
aI3
ag4
aa(lp11
I1
aI2
ag4
aa(lp12
I0
aI1
ag4
aa.