(lp0
(lp1
(lp2
S'N'
p3
aF0.34140000000000004
aF1.2118000000000002
aF0.6974
aa(lp4
S'H'
p5
aF0.021399999999999794
aF1.6787999999999998
aF-0.13960000000000006
aa(lp6
S'CA'
p7
aF0.4363999999999998
aF-0.24319999999999986
aF0.7063999999999999
aa(lp8
S'C'
p9
aF-0.027599999999999694
aF-0.8332000000000002
aF-0.6185999999999998
aa(lp10
S'O'
p11
aF-0.7716
aF-1.8142
aF-0.6456
aa(lp12
S'CB'
p13
aF-0.39659999999999995
aF-0.8401999999999998
aF1.8554
aa(lp14
S'CG1'
p15
aF-1.7005999999999997
aF-0.05819999999999981
aF2.0324
aa(lp16
S'CG2'
p17
aF0.4054000000000001
aF-0.8432
aF3.1473999999999998
aa(lp18
S'CD1'
p19
aF-2.4196
aF-0.35420000000000007
aF3.3284
aa(lp20
S'HA'
p21
aF1.4783999999999997
aF-0.5202
aF0.8564000000000003
aa(lp22
S'HB'
p23
aF-0.6746
aF-1.8641999999999999
aF1.6084
aa(lp24
S'1HG1'
p25
aF-1.4916
aF1.0107999999999997
aF1.9944000000000002
aa(lp26
S'2HG1'
p27
aF-2.3776
aF-0.2871999999999999
aF1.2084000000000001
aa(lp28
S'1HG2'
p29
aF-0.19859999999999994
aF-1.2682000000000002
aF3.9494000000000002
aa(lp30
S'2HG2'
p31
aF1.3054000000000006
aF-1.4422000000000001
aF3.0154
aa(lp32
S'3HG2'
p33
aF0.6833999999999997
aF0.17879999999999985
aF3.4053999999999998
aa(lp34
S'1HD1'
p35
aF-3.3346
aF0.23679999999999968
aF3.3813999999999997
aa(lp36
S'2HD1'
p37
aF-2.6706
aF-1.4152
aF3.3714
aa(lp38
S'3HD1'
p39
aF-1.7746
aF-0.09920000000000018
aF4.1684
aaa(lp40
(lp41
S'N'
p42
aF0.37668181403989087
aF1.216404765691455
aF0.6860584646914043
aa(lp43
S'H'
p44
aF0.011434643339328754
aF1.6840320372946116
aF-0.13070847829063367
aa(lp45
S'CA'
p46
aF0.4097347783429177
aF-0.2412058429321408
aF0.7148476150562961
aa(lp47
S'C'
p48
aF-0.042370667025739106
aF-0.8279719900990883
aF-0.6169088021637856
aa(lp49
S'O'
p50
aF-0.7554805686964092
aF-1.831258969954852
aF-0.6532887992932828
aa(lp51
S'CB'
p52
aF-0.4791199762941413
aF-0.7883370810049514
aF1.845655128952455
aa(lp53
S'CG1'
p54
aF-0.5589353651952953
aF-2.3148797756133996
aF1.7711238923322346
aa(lp55
S'CG2'
p56
aF-1.8695412645379776
aF-0.17483341047576828
aF1.7737184384143851
aa(lp57
S'CD1'
p58
aF0.786410268204617
aF-3.0013563479273637
aF1.8434360099603329
aa(lp59
S'HA'
p60
aF1.435158759810658
aF-0.5596598050766677
aF0.8963682260769157
aa(lp61
S'HB'
p62
aF-0.03405400885457488
aF-0.5425166092146785
aF2.8095522086637126
aa(lp63
S'1HG1'
p64
aF-1.1751896225238487
aF-2.6874301625167702
aF2.588467699761262
aa(lp65
S'2HG1'
p66
aF-1.0411369036317222
aF-2.609215763006967
aF0.8385827388947062
aa(lp67
S'1HG2'
p68
aF-2.484579388981727
aF-0.5729657949294427
aF2.5804753472350943
aa(lp69
S'2HG2'
p70
aF-1.7952606259841428
aF0.9061964790469458
aF1.8752997590129283
aa(lp71
S'3HG2'
p72
aF-2.3256507993430517
aF-0.42035398158186554
aF0.8153846023094315
aa(lp73
S'1HD1'
p74
aF0.6485093461135705
aF-4.080696462684586
aF1.7833589564181644
aa(lp75
S'2HD1'
p76
aF1.4096392857578897
aF-2.668655370940492
aF1.011348483559677
aa(lp77
S'3HD1'
p78
aF1.272924004794136
aF-2.7491070379027955
aF2.7844693088939207
aaa(lp79
(lp80
S'N'
p81
aF0.35908294981198385
aF1.2141004866049738
aF0.6917041590014368
aa(lp82
S'H'
p83
aF0.013847326644901847
aF1.6802334011952866
aF-0.13588660365362687
aa(lp84
S'CA'
p85
aF0.4242911771366209
aF-0.2425752103028288
aF0.711320507472232
aa(lp86
S'C'
p87
aF-0.030847125774883744
aF-0.8325725103429568
aF-0.6173654265122415
aa(lp88
S'O'
p89
aF-0.7663743278186435
aF-1.819186167154454
aF-0.6497726363078029
aa(lp90
S'CB'
p91
aF-0.4395775124420475
aF-0.8149124053682648
aF1.8500983709338694
aa(lp92
S'CG1'
p93
aF0.23891922983258307
aF-2.0389945735595
aF2.471298834744821
aa(lp94
S'CG2'
p95
aF-1.8261154007082532
aF-1.1730220774145788
aF1.3378736671278462
aa(lp96
S'CD1'
p97
aF-0.12537693442808706
aF-3.34414239050966
aF1.8013984834871297
aa(lp98
S'HA'
p99
aF1.458481180391627
aF-0.539784108037995
aF0.8801248565703882
aa(lp100
S'HB'
p101
aF-0.5359168449273756
aF-0.07301089368878344
aF2.6418368883649594
aa(lp102
S'1HG1'
p103
aF1.319873716260065
aF-1.9195540362049166
aF2.4216464802310065
aa(lp104
S'2HG1'
p105
aF-0.0326392800308376
aF-2.110437932669822
aF3.524912057023176
aa(lp106
S'1HG2'
p107
aF-2.422647771738006
aF-1.5772601466968144
aF2.1557652942133636
aa(lp108
S'2HG2'
p109
aF-2.3092139872228343
aF-0.2806198738610792
aF0.9427748658129427
aa(lp110
S'3HG2'
p111
aF-1.7402667220725991
aF-1.9205340402664854
aF0.5482491552427319
aa(lp112
S'1HD1'
p113
aF0.39367336498537386
aF-4.164503166722468
aF2.297415603685926
aa(lp114
S'2HD1'
p115
aF-1.2026194921637845
aF-3.500837560152214
aF1.870882982576731
aa(lp116
S'3HD1'
p117
aF0.16945153182786155
aF-3.309607115048016
aF0.7530104397581063
aaa(lp118
(lp119
S'N'
p120
aF0.2885491884295599
aF1.1978811415690969
aF0.7018081621994443
aa(lp121
S'H'
p122
aF0.005280662935751468
aF1.653939340027167
aF-0.15417306544736697
aa(lp123
S'CA'
p124
aF0.48904320381629857
aF-0.24656035536251927
aF0.703785973122938
aa(lp125
S'C'
p126
aF0.04297999295100263
aF-0.8668350158968634
aF-0.6135567907056536
aa(lp127
S'O'
p128
aF-0.8258530481326164
aF-1.7384251103368973
aF-0.6378642791693372
aa(lp129
S'CB'
p130
aF-0.2741629328527471
aF-0.9052465871827808
aF1.8674645545882531
aa(lp131
S'CG1'
p132
aF-1.6793538778256285
aF-0.3104407698161363
aF1.9885985621708524
aa(lp133
S'CG2'
p134
aF0.4932692097285536
aF-0.7372674129443463
aF3.1696810894069625
aa(lp135
S'CD1'
p136
aF-2.7859847348450475
aF-1.33692903020101
aF1.9135785809357804
aa(lp137
S'HA'
p138
aF1.552166127982832
aF-0.44654440828295516
aF0.8316805652256278
aa(lp139
S'HB'
p140
aF-0.3992435799008343
aF-1.9688958340225886
aF1.6646195116832256
aa(lp141
S'1HG1'
p142
aF-1.7688743975820438
aF0.22004751880098145
aF2.935921765825565
aa(lp143
S'2HG1'
p144
aF-1.8368282977027408
aF0.41722726665437826
aF1.191548980411031
aa(lp145
S'1HG2'
p146
aF-0.06160296323356218
aF-1.2082271960033322
aF3.981536220827177
aa(lp147
S'2HG2'
p148
aF1.4708333838793597
aF-1.2065799155499595
aF3.078559959503389
aa(lp149
S'3HG2'
p150
aF0.6184423165832633
aF0.32447090044402277
aF3.383766229488107
aa(lp151
S'1HD1'
p152
aF-3.75190901813032
aF-0.8388750404780221
aF2.0065543965054675
aa(lp153
S'2HD1'
p154
aF-2.7369680979397106
aF-1.8573639530884345
aF0.9562871622206346
aa(lp155
S'3HD1'
p156
aF-2.67021711700658
aF-2.0557454200340475
aF2.723597010582544
aaa(lp157
(lp158
S'N'
p159
aF0.24669476078346025
aF1.1872657611648925
aF0.707904984703132
aa(lp160
S'H'
p161
aF0.01937957595703338
aF1.6544817499257598
aF-0.15772485916405626
aa(lp162
S'CA'
p163
aF0.516955329031269
aF-0.24587552641314753
aF0.69224372391321
aa(lp164
S'C'
p165
aF0.05817436226832334
aF-0.8777098222023367
aF-0.6148406066487611
aa(lp166
S'O'
p167
aF-0.8412040280400901
aF-1.7181621624751668
aF-0.6275832428035248
aa(lp168
S'CB'
p169
aF-0.17611698800990444
aF-0.9482288296094621
aF1.8738471264304866
aa(lp170
S'CG1'
p171
aF0.010497007315851275
aF-2.4647389636164396
aF1.7771557090104324
aa(lp172
S'CG2'
p173
aF-1.6539098654473467
aF-0.5918211611936033
aF1.912561274871841
aa(lp174
S'CD1'
p175
aF0.012189321074770942
aF-3.166342402919917
aF3.116142546149497
aa(lp176
S'HA'
p177
aF1.5921455347360767
aF-0.395603234175945
aF0.7848592468267825
aa(lp178
S'HB'
p179
aF0.28853792973806525
aF-0.6321370427225017
aF2.8079808372423996
aa(lp180
S'1HG1'
p181
aF-0.7873200477069937
aF-2.891332633159033
aF1.1698297768941912
aa(lp182
S'2HG1'
p183
aF0.9534351628719236
aF-2.6839431418185833
aF1.2772955655150393
aa(lp184
S'1HG2'
p185
aF-2.128863454498205
aF-1.0970322195330295
aF2.7529533707290463
aa(lp186
S'2HG2'
p187
aF-1.7655666008262227
aF0.4858217334967282
aF2.0273069282447542
aa(lp188
S'3HG2'
p189
aF-2.1291754510432384
aF-0.9083273336002591
aF0.9835502598797252
aa(lp190
S'1HD1'
p191
aF0.1498611968747775
aF-4.237648690608098
aF2.965998306921085
aa(lp192
S'2HD1'
p193
aF0.8276918437768638
aF-2.779107788195167
aF3.7293920782532677
aa(lp194
S'3HD1'
p195
aF-0.9360723553457468
aF-2.9902233500215614
aF3.620621358626626
aaa.