(lp0
(lp1
(lp2
S'N'
p3
aF0.019600000000008336
aF0.9936000000000036
aF0.9164000000000001
aa(lp4
S'H'
p5
aF0.6806000000000096
aF0.4315999999999988
aF1.4323999999999983
aa(lp6
S'CA'
p7
aF-0.868399999999997
aF0.34659999999999797
aF-0.04159999999999826
aa(lp8
S'C'
p9
aF-0.08040000000001439
aF-0.2934000000000026
aF-1.1785999999999988
aa(lp10
S'O'
p11
aF0.24859999999999335
aF-1.4783999999999977
aF-1.1286000000000016
aa(lp12
S'CB'
p13
aF-1.8803999999999974
aF1.3516000000000006
aF-0.6196000000000013
aa(lp14
S'CG1'
p15
aF-3.145400000000012
aF0.6275999999999968
aF-1.0875999999999977
aa(lp16
S'CG2'
p17
aF-1.2564000000000022
aF2.1346000000000016
aF-1.765600000000002
aa(lp18
S'CD1'
p19
aF-4.302399999999994
aF1.552600000000001
aF-1.387600000000002
aa(lp20
S'HA'
p21
aF-1.419400000000013
aF-0.4393999999999963
aF0.4744
aa(lp22
S'HB'
p23
aF-2.186400000000009
aF2.048600000000003
aF0.15940000000000226
aa(lp24
S'1HG1'
p25
aF-2.9244000000000083
aF0.05460000000000349
aF-1.9876000000000034
aa(lp26
S'2HG1'
p27
aF-3.4644000000000004
aF-0.07939999999999685
aF-0.3215999999999994
aa(lp28
S'1HG2'
p29
aF-1.9853999999999872
aF2.8405999999999976
aF-2.1626000000000003
aa(lp30
S'2HG2'
p31
aF-0.3853999999999928
aF2.6785999999999985
aF-1.4026000000000025
aa(lp32
S'3HG2'
p33
aF-0.9513999999999954
aF1.4465999999999994
aF-2.5535999999999985
aa(lp34
S'1HD1'
p35
aF-5.162400000000008
aF0.9655999999999978
aF-1.7125999999999977
aa(lp36
S'2HD1'
p37
aF-4.564399999999995
aF2.1115999999999984
aF-0.488600000000001
aa(lp38
S'3HD1'
p39
aF-4.018400000000002
aF2.2466000000000035
aF-2.177600000000001
aaa(lp40
(lp41
S'N'
p42
aF-0.045246191275728986
aF0.9832362061724004
aF0.9696354083090869
aa(lp43
S'H'
p44
aF0.7179090989536872
aF0.46881481059204827
aF1.3836772307908505
aa(lp45
S'CA'
p46
aF-0.8627430120028627
aF0.34297592719445014
aF-0.052806141738693704
aa(lp47
S'C'
p48
aF0.0037482928217837663
aF-0.28884719747843457
aF-1.134836343623956
aa(lp49
S'O'
p50
aF0.18633181150312506
aF-1.5061797464804876
aF-1.165670153737309
aa(lp51
S'CB'
p52
aF-1.831329914895119
aF1.3522174721575946
aF-0.69517201526094
aa(lp53
S'CG1'
p54
aF-2.9088653564542266
aF1.771251136903183
aF0.30887089218569697
aa(lp55
S'CG2'
p56
aF-2.463982624202796
aF0.7620878052326755
aF-1.9449009961286863
aa(lp57
S'CD1'
p58
aF-3.8730521547372314
aF2.8054839526930184
aF-0.22631720629949056
aa(lp59
S'HA'
p60
aF-1.449344421861081
aF-0.4460652415050529
aF0.4169297628392649
aa(lp61
S'HB'
p62
aF-1.2859768379244807
aF2.2562353066390033
aF-0.9670116304354007
aa(lp63
S'1HG1'
p64
aF-3.4818741720737814
aF0.8957114996160034
aF0.6128531955543586
aa(lp65
S'2HG1'
p66
aF-2.4355682728865546
aF2.177987229302541
aF1.2020839808862844
aa(lp67
S'1HG2'
p68
aF-3.1456973254323337
aF1.4886514719691832
aF-2.385795886443739
aa(lp69
S'2HG2'
p70
aF-1.6853652309582272
aF0.5130448552476123
aF-2.664799297279457
aa(lp71
S'3HG2'
p72
aF-3.0166842860453755
aF-0.14020591705434038
aF-1.6820628107029403
aa(lp73
S'1HD1'
p74
aF-4.606142308563284
aF3.0512620061174305
aF0.5417745686976173
aa(lp75
S'2HD1'
p76
aF-3.3238975561083235
aF3.704639282715678
aF-0.50485790224277
aa(lp77
S'3HD1'
p78
aF-4.385551497295788
aF2.4067638929048094
aF-1.1008775174270489
aaa.