(lp0
(lp1
(lp2
S'N'
p3
aF0.3714000000000002
aF0.7568000000000019
aF1.0426000000000002
aa(lp4
S'H'
p5
aF0.2824000000000002
aF1.5078000000000014
aF0.3735999999999997
aa(lp6
S'CA'
p7
aF-0.29559999999999986
aF-0.5131999999999994
aF0.7775999999999996
aa(lp8
S'C'
p9
aF-0.6075999999999998
aF-0.6721999999999984
aF-0.7043999999999997
aa(lp10
S'O'
p11
aF0.24940000000000007
aF-1.0791999999999984
aF-1.4893999999999998
aa(lp12
S'CB'
p13
aF-1.5965999999999998
aF-0.6301999999999985
aF1.592600000000001
aa(lp14
S'CG1'
p15
aF-2.1546
aF0.759800000000002
aF1.909600000000001
aa(lp16
S'CG2'
p17
aF-1.3536
aF-1.4141999999999992
aF2.8726000000000003
aa(lp18
S'CD1'
p19
aF-3.4396
aF0.7348000000000017
aF2.704600000000001
aa(lp20
S'HA'
p21
aF0.3714000000000002
aF-1.3221999999999987
aF1.0746000000000002
aa(lp22
S'HB'
p23
aF-2.3516
aF-1.1441999999999979
aF0.9996000000000009
aa(lp24
S'1HG1'
p25
aF-1.4155999999999997
aF1.328800000000001
aF2.473600000000001
aa(lp26
S'2HG1'
p27
aF-2.3406
aF1.2988000000000017
aF0.9806000000000008
aa(lp28
S'1HG2'
p29
aF-2.2836
aF-1.4871999999999979
aF3.4366000000000003
aa(lp30
S'2HG2'
p31
aF-1.0006
aF-2.4141999999999992
aF2.624600000000001
aa(lp32
S'3HG2'
p33
aF-0.6025999999999998
aF-0.9041999999999994
aF3.4756
aa(lp34
S'1HD1'
p35
aF-3.7725999999999997
aF1.756800000000002
aF2.890600000000001
aa(lp36
S'2HD1'
p37
aF-4.2056000000000004
aF0.19980000000000153
aF2.1426
aa(lp38
S'3HD1'
p39
aF-3.2695999999999996
aF0.23180000000000156
aF3.6555999999999997
aaa.