(lp0
(lp1
(lp2
S'N'
p3
aF0.4547999999999996
aF-0.8564000000000022
aF-0.9308000000000007
aa(lp4
S'H'
p5
aF1.413799999999999
aF-0.8823999999999984
aF-1.2457999999999985
aa(lp6
S'CA'
p7
aF-0.09119999999999982
aF0.3946000000000026
aF-0.4188000000000002
aa(lp8
S'C'
p9
aF-0.7561999999999991
aF0.1915999999999997
aF0.9362000000000001
aa(lp10
S'O'
p11
aF-1.0211999999999997
aF1.1525999999999983
aF1.6591999999999991
aa(lp12
S'CB'
p13
aF-1.1092000000000006
aF0.9935999999999993
aF-1.4057999999999986
aa(lp14
S'CG1'
p15
aF-2.390199999999999
aF0.15559999999999832
aF-1.4278000000000006
aa(lp16
S'CG2'
p17
aF-0.5071999999999968
aF1.0876000000000006
aF-2.7998000000000003
aa(lp18
S'CD1'
p19
aF-3.2781999999999973
aF0.3646000000000015
aF-0.22279999999999872
aa(lp20
S'HA'
p21
aF0.7258000000000002
aF1.1035999999999988
aF-0.2938000000000002
aa(lp22
S'HB'
p23
aF-1.3931999999999995
aF1.9926000000000017
aF-1.074799999999999
aa(lp24
S'1HG1'
p25
aF-2.9661999999999997
aF0.39359999999999784
aF-2.3217999999999988
aa(lp26
S'2HG1'
p27
aF-2.131199999999999
aF-0.9024000000000015
aF-1.478799999999999
aa(lp28
S'1HG2'
p29
aF-1.2402000000000009
aF1.5125999999999977
aF-3.484799999999999
aa(lp30
S'2HG2'
p31
aF0.37579999999999897
aF1.7255999999999987
aF-2.771799999999998
aa(lp32
S'3HG2'
p33
aF-0.22520000000000012
aF0.09259999999999594
aF-3.141799999999999
aa(lp34
S'1HD1'
p35
aF-4.165199999999998
aF-0.26339999999999864
aF-0.30979999999999847
aa(lp36
S'2HD1'
p37
aF-2.732199999999998
aF0.09859999999999616
aF0.6832
aa(lp38
S'3HD1'
p39
aF-3.5791999999999993
aF1.410600000000001
aF-0.17079999999999912
aaa(lp40
(lp41
S'N'
p42
aF0.46845118067419156
aF-0.863662787875939
aF-0.9068877770503386
aa(lp43
S'H'
p44
aF1.4030571090063306
aF-0.8842006074173742
aF-1.288215663120703
aa(lp45
S'CA'
p46
aF-0.06546871496571151
aF0.3940496868380009
aF-0.3995615743081574
aa(lp47
S'C'
p48
aF-0.7672681745498717
aF0.19607135128665915
aF0.938012011398328
aa(lp49
S'O'
p50
aF-1.0387714001649435
aF1.1577423571686671
aF1.6566530030808782
aa(lp51
S'CB'
p52
aF-1.0466919499327978
aF1.0207576731262096
aF-1.4070495708040458
aa(lp53
S'CG1'
p54
aF-1.8636667140539962
aF-0.07051053651112471
aF-2.1053624873565324
aa(lp55
S'CG2'
p56
aF-0.296677002158129
aF1.8635724147238364
aF-2.4261231154809195
aa(lp57
S'CD1'
p58
aF-1.27006212045203
aF-0.5305813601890925
aF-3.4175554699832986
aa(lp59
S'HA'
p60
aF0.7631327152538828
aF1.0856671785827974
aF-0.2500091923455927
aa(lp61
S'HB'
p62
aF-1.7568650974727031
aF1.6546463377902199
aF-0.876927640184558
aa(lp63
S'1HG1'
p64
aF-1.9520801487464843
aF-0.9345333819368381
aF-1.4489315411418229
aa(lp65
S'2HG1'
p66
aF-2.871365600242501
aF0.29679315834673203
aF-2.2986186658301175
aa(lp67
S'1HG2'
p68
aF-1.0062215008551783
aF2.2983299815194247
aF-3.1309219963559753
aa(lp69
S'2HG2'
p70
aF0.23953758244282625
aF2.6607926307718333
aF-1.9142062800617259
aa(lp71
S'3HG2'
p72
aF0.4122247839148734
aF1.2369204343538351
aF-2.9658374410281256
aa(lp73
S'1HD1'
p74
aF-1.9053295019972158
aF-1.3028213786542149
aF-3.8523585378493137
aa(lp75
S'2HD1'
p76
aF-1.2051066000335413
aF0.3144528808045488
aF-4.10469731262968
aa(lp77
S'3HD1'
p78
aF-0.274687645760298
aF-0.9352012099016682
aF-3.244562891094126
aaa(lp79
(lp80
S'N'
p81
aF0.4658233926854909
aF-0.8617772664978535
aF-0.9127125011603967
aa(lp82
S'H'
p83
aF1.4149632852122456
aF-0.875055563827833
aF-1.25603035859621
aa(lp84
S'CA'
p85
aF-0.0945059089775645
aF0.3905334650337271
aF-0.4203042301203687
aa(lp86
S'C'
p87
aF-0.7863468530824005
aF0.19461412941641137
aF0.9224212526166652
aa(lp88
S'O'
p89
aF-0.9999339158377722
aF1.1516852358755483
aF1.666625837260307
aa(lp90
S'CB'
p91
aF-1.0944325402133492
aF0.979744977996736
aF-1.4318187011672712
aa(lp92
S'CG1'
p93
aF-0.527782752242046
aF2.2552403655179947
aF-2.0612863605462666
aa(lp94
S'CG2'
p95
aF-2.428989772581676
aF1.2618931788278986
aF-0.7583668570825346
aa(lp96
S'CD1'
p97
aF-1.3736639360438203
aF3.4852098061166816
aF-1.8158679462341758
aa(lp98
S'HA'
p99
aF0.717898415772258
aF1.102548696628443
aF-0.2837922412515963
aa(lp100
S'HB'
p101
aF-1.251421361005315
aF0.2711852422176909
aF-2.244027794307134
aa(lp102
S'1HG1'
p103
aF0.47037956353526766
aF2.443331198360212
aF-1.6667856254863804
aa(lp104
S'2HG1'
p105
aF-0.43176040994072395
aF2.1189542920157463
aF-3.1384826360449836
aa(lp106
S'1HG2'
p107
aF-3.1233309597395023
aF1.6787116069326564
aF-1.4874770776997877
aa(lp108
S'2HG2'
p109
aF-2.8370121062725486
aF0.33504827880885985
aF-0.3581178014707157
aa(lp110
S'3HG2'
p111
aF-2.283467199653976
aF1.9750760442511899
aF0.05276900159659248
aa(lp112
S'1HD1'
p113
aF-0.9075182661088643
aF4.3475206718139265
aF-2.2923405952932376
aa(lp114
S'2HD1'
p115
aF-2.3680038936297234
aF3.33200793651427
aF-2.2350901258697364
aa(lp116
S'3HD1'
p117
aF-1.453839498516226
aF3.6630949608223937
aF-0.7446211255072448
aaa(lp118
(lp119
S'N'
p120
aF0.4811264032592556
aF-0.8689844976712361
aF-0.8859546076938006
aa(lp121
S'H'
p122
aF1.4147668113761775
aF-0.8671747724103377
aF-1.2727960651744503
aa(lp123
S'CA'
p124
aF-0.09670309747901348
aF0.3861818390681935
aF-0.4223291821693972
aa(lp125
S'C'
p126
aF-0.8229475151030912
aF0.20212333454085782
aF0.9042214247736731
aa(lp127
S'O'
p128
aF-0.9762426020533044
aF1.1478540964725397
aF1.6768584302639873
aa(lp129
S'CB'
p130
aF-1.072208320944597
aF0.9609433113097323
aF-1.4655419164753472
aa(lp131
S'CG1'
p132
aF-1.3875635951359477
aF2.4253456909473625
aF-1.152636624811333
aa(lp133
S'CG2'
p134
aF-2.3490660029875334
aF0.1359593553296642
aF-1.5109944431752398
aa(lp135
S'CD1'
p136
aF-0.16304941314274657
aF3.2738211861676603
aF-0.8990535967747348
aa(lp137
S'HA'
p138
aF0.7087311899519221
aF1.1037512783837133
aF-0.2716715955996497
aa(lp139
S'HB'
p140
aF-0.6041625826900278
aF0.9424436800451824
aF-2.4492913513137164
aa(lp141
S'1HG1'
p142
aF-1.9407964874941712
aF2.8638446002025977
aF-1.9827752116719357
aa(lp143
S'2HG1'
p144
aF-2.0268857012764556
aF2.47960913834183
aF-0.27106035308158116
aa(lp145
S'1HG2'
p146
aF-3.0276398516858234
aF0.5557651523989106
aF-2.2540513889134925
aa(lp147
S'2HG2'
p148
aF-2.1085182344579723
aF-0.8917210394324988
aF-1.779811811060825
aa(lp149
S'3HG2'
p150
aF-2.8280627654276738
aF0.15227558356235843
aF-0.5317514282559997
aa(lp151
S'1HD1'
p152
aF-0.46679768362698415
aF4.29785681406593
aF-0.683700349822594
aa(lp153
S'2HD1'
p154
aF0.38826084307249253
aF2.871643290613717
aF-0.04788913457034363
aa(lp155
S'3HD1'
p156
aF0.47540807952448016
aF3.262818429133876
aF-1.7819584440797738
aaa.