(lp0
(lp1
(lp2
S'N'
p3
aF0.7909999999999855
aF0.9122000000000042
aF0.3268000000000001
aa(lp4
S'H'
p5
aF1.7759999999999991
aF0.8271999999999963
aF0.5327999999999996
aa(lp6
S'CA'
p7
aF-0.10299999999999158
aF-0.18780000000000427
aF0.6657999999999987
aa(lp8
S'C'
p9
aF-1.2289999999999963
aF-0.316799999999995
aF-0.3531999999999996
aa(lp10
S'O'
p11
aF-1.2349999999999965
aF-1.2348000000000012
aF-1.1721999999999988
aa(lp12
S'CB'
p13
aF-0.6939999999999997
aF0.020200000000008343
aF2.0658000000000007
aa(lp14
S'CG'
p15
aF0.3240000000000009
aF0.10320000000000676
aF3.2108000000000003
aa(lp16
S'CD1'
p17
aF-0.25100000000001615
aF0.9482000000000056
aF4.3408
aa(lp18
S'CD2'
p19
aF0.66099999999999
aF-1.2987999999999942
aF3.693800000000001
aa(lp20
S'HA'
p21
aF0.47099999999999226
aF-1.113799999999992
aF0.6618000000000009
aa(lp22
S'1HB'
p23
aF-1.2689999999999884
aF0.9442000000000007
aF2.0658000000000007
aa(lp24
S'2HB'
p25
aF-1.3709999999999922
aF-0.8057999999999993
aF2.2838000000000007
aa(lp26
S'HG'
p27
aF1.2310000000000116
aF0.5942000000000064
aF2.856800000000001
aa(lp28
S'1HD1'
p29
aF0.47199999999999703
aF1.0072000000000032
aF5.1548
aa(lp30
S'2HD1'
p31
aF-0.4650000000000148
aF1.9512000000000058
aF3.9728000000000008
aa(lp32
S'3HD1'
p33
aF-1.1699999999999988
aF0.4902000000000072
aF4.7048000000000005
aa(lp34
S'1HD2'
p35
aF1.385000000000008
aF-1.2397999999999967
aF4.507800000000001
aa(lp36
S'2HD2'
p37
aF-0.24500000000001593
aF-1.7897999999999938
aF4.049799999999999
aa(lp38
S'3HD2'
p39
aF1.0860000000000014
aF-1.8748000000000018
aF2.8718000000000017
aaa(lp40
(lp41
S'N'
p42
aF0.7756974829862823
aF0.9358483642236639
aF0.3985062785812313
aa(lp43
S'H'
p44
aF1.7748631741883467
aF0.8049693944813137
aF0.47624698094428836
aa(lp45
S'CA'
p46
aF-0.11158358914438912
aF-0.18847135994667522
aF0.6714778098444505
aa(lp47
S'C'
p48
aF-1.2022933179839248
aF-0.29749597272592165
aF-0.38714767691804136
aa(lp49
S'O'
p50
aF-1.2366837500462267
aF-1.2548504260323967
aF-1.1590833924519353
aa(lp51
S'CB'
p52
aF-0.749024517921083
aF-0.03708186560149572
aF2.058277825463939
aa(lp53
S'CG'
p54
aF-1.7752032252203889
aF-1.1108366910421879
aF2.438923113794584
aa(lp55
S'CD1'
p56
aF-1.0796405671003428
aF-2.4608693782835944
aF2.553261786205511
aa(lp57
S'CD2'
p58
aF-2.446882527154373
aF-0.7296989661313132
aF3.750460360693546
aa(lp59
S'HA'
p60
aF0.47700885012587635
aF-1.1048752228180534
aF0.6530143175339792
aa(lp61
S'1HB'
p62
aF0.042008186257557756
aF-0.053375521506904514
aF2.807238957764594
aa(lp63
S'2HB'
p64
aF-1.2474452482186287
aF0.9306801589604237
aF2.1078604779287597
aa(lp65
S'HG'
p66
aF-2.5284459989570602
aF-1.1894792990079022
aF1.6547479649752233
aa(lp67
S'1HD1'
p68
aF-1.8089621350753662
aF-3.2242060708180023
aF2.823987005416961
aa(lp69
S'2HD1'
p70
aF-0.6252048839559698
aF-2.7180982188466416
aF1.5966665042457464
aa(lp71
S'3HD1'
p72
aF-0.3084558834764334
aF-2.4093436315455943
aF3.3202391529947803
aa(lp73
S'1HD2'
p74
aF-3.17716789038276
aF-1.4929284730739691
aF4.020941428397796
aa(lp75
S'2HD2'
p76
aF-1.6940137121400047
aF-0.6529053009806175
aF4.535300013343446
aa(lp77
S'3HD2'
p78
aF-2.9509910465371583
aF0.23072370123317
aF3.634961872832598
aaa(lp79
(lp80
S'N'
p81
aF0.797090904004918
aF0.901917577972429
aF0.30322455919164804
aa(lp82
S'H'
p83
aF1.774023573056665
aF0.8341734136451728
aF0.5482373922005138
aa(lp84
S'CA'
p85
aF-0.10273175923880826
aF-0.18643117305987555
aF0.6663927995973679
aa(lp86
S'C'
p87
aF-1.237286165987544
aF-0.3231912186867952
aF-0.3402133736636309
aa(lp88
S'O'
p89
aF-1.2310965518352308
aF-1.2264685998709324
aF-1.177641377325899
aa(lp90
S'CB'
p91
aF-0.6807827687224486
aF0.04802629281306431
aF2.067784867197077
aa(lp92
S'CG'
p93
aF0.34883594927578765
aF0.208901916874229
aF3.1942573831203926
aa(lp94
S'CD1'
p95
aF0.35873962028021805
aF1.6551874256147447
aF3.6705148182411724
aa(lp96
S'CD2'
p97
aF0.008473093877092913
aF-0.7404896298119494
aF4.332866542465983
aa(lp98
S'HA'
p99
aF0.4645741416250066
aF-1.1166677798468867
aF0.6729403364230861
aa(lp100
S'1HB'
p101
aF-1.289932987249302
aF0.9502829879279626
aF2.0459018283536468
aa(lp102
S'2HB'
p103
aF-1.3239638948429286
aF-0.7936229371325512
aF2.3242972698881355
aa(lp104
S'HG'
p105
aF1.3442522711912572
aF-0.024043294960631734
aF2.8133940554718917
aa(lp106
S'1HD1'
p107
aF1.0907775858557753
aF1.7692696585196825
aF4.470512106418714
aa(lp108
S'2HD1'
p109
aF0.625128317030722
aF2.3099523158995927
aF2.8412549068178388
aa(lp110
S'3HD1'
p111
aF-0.6291840215715984
aF1.9220321447633266
aF4.042507793622105
aa(lp112
S'1HD2'
p113
aF0.7403223071509615
aF-0.6273657379270087
aF5.132649459334814
aa(lp114
S'2HD2'
p115
aF-0.9858979207635515
aF-0.5081697569808517
aF4.715605045794666
aa(lp116
S'3HD2'
p117
aF0.025435809199263484
aF-1.7671799562489099
aF3.9676950212740008
aaa(lp118
(lp119
S'N'
p120
aF0.7618836460466455
aF0.9366813365363669
aF0.427085967541814
aa(lp121
S'H'
p122
aF1.7541340871192568
aF0.7522364899058915
aF0.39095895904861316
aa(lp123
S'CA'
p124
aF-0.15383104718533827
aF-0.15836755882306686
aF0.723894857858712
aa(lp125
S'C'
p126
aF-1.2092846249359452
aF-0.3040164556320081
aF-0.36432393635124705
aa(lp127
S'O'
p128
aF-1.1529020610445984
aF-1.2265338119871765
aF-1.177615848097892
aa(lp129
S'CB'
p130
aF-0.835585414906556
aF0.07305854769493725
aF2.078963468415002
aa(lp131
S'CG'
p132
aF-0.1573527005856704
aF-0.5880808517460931
aF3.285968058187417
aa(lp133
S'CD1'
p134
aF1.3030184065841866
aF-0.8688480351813647
aF2.957846102126389
aa(lp135
S'CD2'
p136
aF-0.2794220038379499
aF0.32292386000102347
aF4.497929897676621
aa(lp137
S'HA'
p138
aF0.4195665636291167
aF-1.0839774749959703
aF0.7736086687633552
aa(lp139
S'1HB'
p140
aF-0.8772803322193028
aF1.144073687819478
aF2.268045734887268
aa(lp141
S'2HB'
p142
aF-1.8554989161239266
aF-0.30618220612436836
aF2.0231432151273268
aa(lp143
S'HG'
p144
aF-0.6405778718276873
aF-1.541095225588034
aF3.49855695048608
aa(lp145
S'1HD1'
p146
aF1.7848505509897783
aF-1.3387404491728816
aF3.81574697279312
aa(lp147
S'2HD1'
p148
aF1.3606975305357647
aF-1.5381162515952949
aF2.0986609223436554
aa(lp149
S'3HD1'
p150
aF1.8098224863930308
aF0.06694968919095345
aF2.7239353419021137
aa(lp151
S'1HD2'
p152
aF0.2019897587639854
aF-0.14611106446179667
aF5.3561274008556135
aa(lp153
S'2HD2'
p154
aF0.20560689579372227
aF1.2773081945761493
aF4.2873081788542695
aa(lp155
S'3HD2'
p156
aF-1.3324845911250547
aF0.49332147741073296
aF4.7210931545924355
aaa(lp157
(lp158
S'N'
p159
aF0.8178911477618983
aF0.9064590269772573
aF0.3029050392848466
aa(lp160
S'H'
p161
aF1.775987595748022
aF0.8867149830946625
aF0.6216437553008431
aa(lp162
S'CA'
p163
aF-0.052582884699411664
aF-0.22442071007859732
aF0.6022409361082246
aa(lp164
S'C'
p165
aF-1.211898833945674
aF-0.30320868502408127
aF-0.3844170516601966
aa(lp166
S'O'
p167
aF-1.3293970248648832
aF-1.2655446149692742
aF-1.1423726790337243
aa(lp168
S'CB'
p169
aF-0.5971174927616525
aF-0.11209422994327486
aF2.031205884062837
aa(lp170
S'CG'
p171
aF-1.4700855177431347
aF1.1175853702314111
aF2.3164564901518467
aa(lp172
S'CD1'
p173
aF-2.7544129847974825
aF0.6791217167512837
aF3.0068669347039343
aa(lp174
S'CD2'
p175
aF-0.6938924360053753
aF2.1028225375874126
aF3.1772108243975445
aa(lp176
S'HA'
p177
aF0.5308543370774429
aF-1.140472836763469
aF0.5194248178617791
aa(lp178
S'1HB'
p179
aF-1.1913670361363478
aF-0.9982189070946363
aF2.247614148097154
aa(lp180
S'2HB'
p181
aF0.24578881129519436
aF-0.08783552706905551
aF2.722842694763437
aa(lp182
S'HG'
p183
aF-1.7436121412594727
aF1.594967141563485
aF1.375345003330219
aa(lp184
S'1HD1'
p185
aF-3.374427089888491
aF1.5523799220635872
aF3.209782228220572
aa(lp186
S'2HD1'
p187
aF-3.298389240532995
aF-0.010149898870421836
aF2.3610957112089266
aa(lp188
S'3HD1'
p189
aF-2.510871738344058
aF0.18255316129212845
aF3.9455816576123994
aa(lp190
S'1HD2'
p191
aF-1.3142098966638671
aF2.976560289253163
aF3.3788307373930264
aa(lp192
S'2HD2'
p193
aF-0.42009945812992056
aF1.6263530144332499
aF4.119369621401176
aa(lp194
S'3HD2'
p195
aF0.20934420390308855
aF2.4125735643781323
aF2.651911982090647
aaa(lp196
(lp197
S'N'
p198
aF0.8089241230195773
aF0.8800497801485554
aF0.26400959766169285
aa(lp199
S'H'
p200
aF1.7691186963456886
aF0.8501128214207276
aF0.57416143121619
aa(lp201
S'CA'
p202
aF-0.10167098511006153
aF-0.1849556777171661
aF0.6687773381828458
aa(lp203
S'C'
p204
aF-1.2493834199081577
aF-0.3335649335035538
aF-0.3218524898076317
aa(lp205
S'O'
p206
aF-1.2269884143470473
aF-1.2116419903485645
aF-1.1850958772530982
aa(lp207
S'CB'
p208
aF-0.6599631141486981
aF0.09891129838714163
aF2.068876062748691
aa(lp209
S'CG'
p210
aF-0.06619441904304313
aF-0.7430054203450229
aF3.204952193750399
aa(lp211
S'CD1'
p212
aF-0.1595293103775104
aF0.03052263991243853
aF4.5134169193177
aa(lp213
S'CD2'
p214
aF-0.810142647627408
aF-2.0672812476224065
aF3.297707605856527
aa(lp215
S'HA'
p216
aF0.45304554614291315
aF-1.1212748728316795
aF0.695627567507487
aa(lp217
S'1HB'
p218
aF-0.48484723999310264
aF1.1465985874072748
aF2.3069764093346734
aa(lp219
S'2HB'
p220
aF-1.7361175378534976
aF-0.07357712117073989
aF2.0557078639723434
aa(lp221
S'HG'
p222
aF0.9882273162991855
aF-0.933627240060013
aF3.004654600438799
aa(lp223
S'1HD1'
p224
aF0.2625487616062514
aF-0.5687757931297108
aF5.321033467751231
aa(lp225
S'2HD1'
p226
aF0.3977494484362768
aF0.9631427941554391
aF4.425388328083209
aa(lp227
S'3HD1'
p228
aF-1.204008403528027
aF0.24982805530681262
aF4.732137194441378
aa(lp229
S'1HD2'
p230
aF-0.3880645756436506
aF-2.6665796806645585
aF4.105324154290064
aa(lp231
S'2HD2'
p232
aF-1.8650519017278324
aF-1.8780098285033835
aF3.4997194756017356
aa(lp233
S'3HD2'
p234
aF-0.7121276949565385
aF-2.6065333164942577
aF2.356539568112813
aaa(lp235
(lp236
S'N'
p237
aF0.7657468625251029
aF0.9457051231798365
aF0.4662705250435744
aa(lp238
S'H'
p239
aF1.759064845245197
aF0.776703629324974
aF0.40145632690990607
aa(lp240
S'CA'
p241
aF-0.1327970644467048
aF-0.1790919456903532
aF0.694947951046113
aa(lp242
S'C'
p243
aF-1.178632544989219
aF-0.2823504962093525
aF-0.40851922988093886
aa(lp244
S'O'
p245
aF-1.2133820983342947
aF-1.2609663106050997
aF-1.154155573118626
aa(lp246
S'CB'
p247
aF-0.8275291118159547
aF-0.03423789423877899
aF2.0540114838274826
aa(lp248
S'CG'
p249
aF-1.148233419296763
aF-1.3471234179032354
aF2.780538392424525
aa(lp250
S'CD1'
p251
aF-1.6343878272203933
aF-2.3799568913408233
aF1.7725414143520375
aa(lp252
S'CD2'
p253
aF0.09098610331146101
aF-1.8382309801142975
aF3.5125994125081084
aa(lp254
S'HA'
p255
aF0.4554835690442176
aF-1.095850069270845
aF0.6965097156607838
aa(lp256
S'1HB'
p257
aF-0.19076725046530876
aF0.5584552141347774
aF2.7081117905204017
aa(lp258
S'2HB'
p259
aF-1.7648611214514982
aF0.5019524461846555
aF1.910019739101708
aa(lp260
S'HG'
p261
aF-1.9515758989277217
aF-1.1784962014889515
aF3.4984400028870786
aa(lp262
S'1HD1'
p263
aF-1.8626350180433113
aF-3.312856580135072
aF2.2880056619279827
aa(lp264
S'2HD1'
p265
aF-2.5324994022117715
aF-2.0109669738146896
aF1.2770446538878115
aa(lp266
S'3HD1'
p267
aF-0.8564215980674057
aF-2.5570839513842754
aF1.0297039146942386
aa(lp268
S'1HD2'
p269
aF-0.13741587209072476
aF-2.771714311995392
aF4.029342488642216
aa(lp270
S'2HD2'
p271
aF0.8945285114218813
aF-2.0087029803696814
aF2.7954439931623316
aa(lp272
S'3HD2'
p273
aF0.4059577195168587
aF-1.0887953428330286
aF4.238385266984329
aaa(lp274
(lp275
S'N'
p276
aF0.8163748229245122
aF0.8859918140577882
aF0.27122959631566235
aa(lp277
S'H'
p278
aF1.7704721919297102
aF0.8692823215958535
aF0.5994231418326363
aa(lp279
S'CA'
p280
aF-0.0816478679974944
aF-0.20156464784428202
aF0.6420734836378763
aa(lp281
S'C'
p282
aF-1.2370989888966004
aF-0.321514878165138
aF-0.3422220255762213
aa(lp283
S'O'
p284
aF-1.2681001579601108
aF-1.2321946096442624
aF-1.1705041962099976
aa(lp285
S'CB'
p286
aF-0.629103343334484
aF0.022497973401319538
aF2.058017848464436
aa(lp287
S'CG'
p288
aF0.3934547732974545
aF-0.1081700574048671
aF3.194513675045153
aa(lp289
S'CD1'
p290
aF1.066190047666834
aF-1.4718882883262887
aF3.118851020639505
aa(lp291
S'CD2'
p292
aF1.4156504625731365
aF1.0126197681695739
aF3.089251432455529
aa(lp293
S'HA'
p294
aF0.48091814804441224
aF-1.1338234309403725
aF0.6276846360491447
aa(lp295
S'1HB'
p296
aF-1.0571793957568818
aF1.0220539677574292
aF2.1104268886124236
aa(lp297
S'2HB'
p298
aF-1.4231672945531326
aF-0.7009473507026291
aF2.241275329640966
aa(lp299
S'HG'
p300
aF-0.11977021765184692
aF-0.04202416119293634
aF4.153587618534079
aa(lp301
S'1HD1'
p302
aF1.7919438805120456
aF-1.5646408532511598
aF3.9268264755948743
aa(lp303
S'2HD1'
p304
aF0.31352034364665227
aF-2.2549474515457777
aF3.2163839050845504
aa(lp305
S'3HD1'
p306
aF1.5745582627420665
aF-1.5739314578178103
aF2.1611177856197834
aa(lp307
S'1HD2'
p308
aF2.1416468479863635
aF0.9208373385097939
aF3.8972292997097453
aa(lp309
S'2HD2'
p310
aF1.9304097116152759
aF0.9471198726439036
aF2.1306557516746847
aa(lp311
S'3HD2'
p312
aF0.9097649996666028
aF1.9759110923144036
aF3.1642562539482175
aaa(lp313
(lp314
S'N'
p315
aF0.7739540838695669
aF0.9435235986757542
aF0.4291576572817753
aa(lp316
S'H'
p317
aF1.7745167257628478
aF0.8080919269355111
aF0.46623409099889535
aa(lp318
S'CA'
p319
aF-0.10644638289621133
aF-0.1949873146277546
aF0.6620651891638538
aa(lp320
S'C'
p321
aF-1.1840804028231238
aF-0.2867048090485851
aF-0.4106947188833016
aa(lp322
S'O'
p323
aF-1.2579440239130533
aF-1.2699234019349115
aF-1.1467622185612263
aa(lp324
S'CB'
p325
aF-0.7602873112504684
aF-0.08432804290105603
aF2.045601081719499
aa(lp326
S'CG'
p327
aF0.014319440639458003
aF-0.7293080244792566
aF3.2008552543109317
aa(lp328
S'CD1'
p329
aF-0.9062928076606724
aF-0.8919970030853559
aF4.40207604355823
aa(lp330
S'CD2'
p331
aF0.571036922066391
aF-2.0729073133753158
aF2.75244071757996
aa(lp332
S'HA'
p333
aF0.49044678895405347
aF-1.1060541259777739
aF0.6281269120267027
aa(lp334
S'1HB'
p335
aF-0.8931584458642631
aF0.9691508268787825
aF2.2835769891425803
aa(lp336
S'2HB'
p337
aF-1.74371534008533
aF-0.5526961652519865
aF2.002675400974116
aa(lp338
S'HG'
p339
aF0.836601599080719
aF-0.07725606896019221
aF3.4965600043792198
aa(lp340
S'1HD1'
p341
aF-0.35522680222721337
aF-1.3498547425794607
aF5.224525767274495
aa(lp342
S'2HD1'
p343
aF-1.2736972622728657
aF0.08637460232367611
aF4.714610791163151
aa(lp344
S'3HD1'
p345
aF-1.748614234714273
aF-1.528174563621204
aF4.132302573778414
aa(lp346
S'1HD2'
p347
aF1.1230372161634758
aF-2.5313110378226096
aF3.573979944111217
aa(lp348
S'2HD2'
p349
aF-0.2501658627168428
aF-2.7268409516845997
aF2.457873606462896
aa(lp350
S'3HD2'
p351
aF1.2392899301513622
aF-1.9250499433158779
aF1.9041276177727582
aaa(lp352
(lp353
S'N'
p354
aF0.8222046815361458
aF0.841798849577937
aF0.21246552310740097
aa(lp355
S'H'
p356
aF1.7582730743778319
aF0.8629039429082628
aF0.5901698240602827
aa(lp357
S'CA'
p358
aF-0.11330218275035636
aF-0.17151161883415947
aF0.6865570770073558
aa(lp359
S'C'
p360
aF-1.2688430679784586
aF-0.3549799900201173
aF-0.2884293943554994
aa(lp361
S'O'
p362
aF-1.1983325051851064
aF-1.1782111836319218
aF-1.200763029819548
aa(lp363
S'CB'
p364
aF-0.6574615645734763
aF0.21506299428440812
aF2.067938499955444
aa(lp365
S'CG'
p366
aF0.37640650476913
aF0.26467930127115946
aF3.1999738515566105
aa(lp367
S'CD1'
p368
aF-0.07816559342091334
aF-0.6339531988458909
aF4.3428289767936015
aa(lp369
S'CD2'
p370
aF1.7332142694592774
aF-0.17020884505414324
aF2.6683555769814755
aa(lp371
S'HA'
p372
aF0.41845458581040607
aF-1.1190812048992307
aF0.7719011960448898
aa(lp373
S'1HB'
p374
aF-1.1184213264487326
aF1.199187607664215
aF1.9960299241667634
aa(lp375
S'2HB'
p376
aF-1.425756079340202
aF-0.5036493449025097
aF2.351998550085371
aa(lp377
S'HG'
p378
aF0.4461932708259615
aF1.2830813231141958
aF3.5848181436922513
aa(lp379
S'1HD1'
p380
aF0.6567388909329727
aF-0.5986510247018164
aF5.147522182541768
aa(lp381
S'2HD1'
p382
aF-1.0421074134808994
aF-0.28823225590073553
aF4.716565778765994
aa(lp383
S'3HD1'
p384
aF-0.1735744270245141
aF-1.6576269716286773
aF3.9834153412884588
aa(lp385
S'1HD2'
p386
aF2.468171543537218
aF-0.1340462329596641
aF3.473555596086303
aa(lp387
S'2HD2'
p388
aF1.664729762416536
aF-1.1887478947850094
aF2.28558139228705
aa(lp389
S'3HD2'
p390
aF2.0412148586784062
aF0.4997593281320639
aF1.8658406026923924
aaa(lp391
(lp392
S'N'
p393
aF0.8295075825673042
aF0.8353624678472951
aF0.20423544691219125
aa(lp394
S'H'
p395
aF1.7554285597322292
aF0.8754704519203651
aF0.6049045044391542
aa(lp396
S'CA'
p397
aF-0.10631064318694
aF-0.1771048717429003
aF0.679906693267621
aa(lp398
S'C'
p399
aF-1.2673739241834505
aF-0.3522019425214011
aF-0.29058342689147515
aa(lp400
S'O'
p401
aF-1.211251574929146
aF-1.1815261055033544
aF-1.1984632177274959
aa(lp402
S'CB'
p403
aF-0.6423323542130397
aF0.2046639781849724
aF2.0646374506834446
aa(lp404
S'CG'
p405
aF-0.9295613220833716
aF-0.9669958002281609
aF3.0130017707973082
aa(lp406
S'CD1'
p407
aF0.06127051919505688
aF-2.091714234630022
aF2.7451777509159077
aa(lp408
S'CD2'
p409
aF-0.8388576584128205
aF-0.4882703785079079
aF4.45380148484347
aa(lp410
S'HA'
p411
aF0.4219978370786541
aF-1.1263946524982116
aF0.7573925747750377
aa(lp412
S'1HB'
p413
aF0.08443765483678256
aF0.8531123054238469
aF2.5516889067400186
aa(lp414
S'2HB'
p415
aF-1.5691082311538664
aF0.7635323342950447
aF1.9376152697094298
aa(lp416
S'HG'
p417
aF-1.9315474853375043
aF-1.3530152081370814
aF2.820921721430098
aa(lp418
S'1HD1'
p419
aF-0.14322140658622362
aF-2.924067110668877
aF3.4189616495363016
aa(lp420
S'2HD1'
p421
aF-0.039084339379573674
aF-2.4279965730711464
aF1.7132469919921145
aa(lp422
S'3HD1'
p423
aF1.0755410456397763
aF-1.7306135771933835
aF2.913717403177253
aa(lp424
S'1HD2'
p425
aF-1.0445721942962727
aF-1.3213307447335065
aF5.127653809874949
aa(lp426
S'2HD2'
p427
aF0.16270959252367923
aF-0.10421881372988162
aF4.6472787120384265
aa(lp428
S'3HD2'
p429
aF-1.569535557825597
aF0.30296487588922427
aF4.621236784314184
aaa(lp430
(lp431
S'N'
p432
aF0.7669069437226529
aF0.9328899968387927
aF0.3990500137427574
aa(lp433
S'H'
p434
aF1.7644856703113785
aF0.7717245225837994
aF0.4318429118424978
aa(lp435
S'CA'
p436
aF-0.13879119454676891
aF-0.16642992136963602
aF0.7072197717747853
aa(lp437
S'C'
p438
aF-1.2158542648936401
aF-0.30815593549933923
aF-0.36139984221977084
aa(lp439
S'O'
p440
aF-1.1767471545936292
aF-1.2300286625536165
aF-1.1767128551402672
aa(lp441
S'CB'
p442
aF-0.7952678111058331
aF0.05478500181912796
aF2.0756354285361907
aa(lp443
S'CG'
p444
aF-0.8126937277827198
aF-1.1613458648213777
aF3.0101187363765094
aa(lp445
S'CD1'
p446
aF0.5353229365264589
aF-1.28628130614788
aF3.7070371019296795
aa(lp447
S'CD2'
p448
aF-1.9388380797022504
aF-1.0102263626286312
aF4.020791677884669
aa(lp449
S'HA'
p450
aF0.43651298059034804
aF-1.090850400032663
aF0.7399746904622543
aa(lp451
S'1HB'
p452
aF-0.26707327074172516
aF0.8577754000334614
aF2.58768810932708
aa(lp453
S'2HB'
p454
aF-1.8277512897677892
aF0.36831899898904125
aF1.9204313728264035
aa(lp455
S'HG'
p456
aF-0.969724475025726
aF-2.0681354187443053
aF2.424362772414928
aa(lp457
S'1HD1'
p458
aF0.5236425886222493
aF-2.150972558654698
aF4.37159229701209
aa(lp459
S'2HD1'
p460
aF1.3204155278184666
aF-1.4130689614493284
aF2.9616482681244225
aa(lp461
S'3HD1'
p462
aF0.7280973609555841
aF-0.38522576821163423
aF4.289400338098003
aa(lp463
S'1HD2'
p464
aF-1.9520595361729458
aF-1.8754694720768508
aF4.68478080026633
aa(lp465
S'2HD2'
p466
aF-1.7817503834441741
aF-0.1052659614120744
aF4.608175817876802
aa(lp467
S'3HD2'
p468
aF-2.892102649536725
aF-0.9411481418596904
aF3.4960585463657115
aaa(lp469
(lp470
S'N'
p471
aF0.8318130726299946
aF0.8292122494560481
aF0.19713400912550613
aa(lp472
S'H'
p473
aF1.753377587900566
aF0.8777245078078101
aF0.6069954552066573
aa(lp474
S'CA'
p475
aF-0.10796416060264466
aF-0.17530342679641708
aF0.6822288535226272
aa(lp476
S'C'
p477
aF-1.2702518126193576
aF-0.35523637028217075
aF-0.28627646387012284
aa(lp478
S'O'
p479
aF-1.2069746873085552
aF-1.1763969601852575
aF-1.2000818539846785
aa(lp480
S'CB'
p481
aF-0.6428440052909509
aF0.22295052091216067
aF2.0635348822073443
aa(lp482
S'CG'
p483
aF-1.383317404346649
aF1.564754538832569
aF2.1293841250545946
aa(lp484
S'CD1'
p485
aF-2.8261009919034414
aF1.3715543800623784
aF1.6828472081844161
aa(lp486
S'CD2'
p487
aF-1.3179458574335439
aF2.1124692951917687
aF3.5477000653586463
aa(lp488
S'HA'
p489
aF0.41632411009037873
aF-1.1261224089320798
aF0.7702974201296959
aa(lp490
S'1HB'
p491
aF-1.3276850485788174
aF-0.5500259426645486
aF2.4071584148485585
aa(lp492
S'2HB'
p493
aF0.1946543963111742
aF0.27236254368333923
aF2.7593824799753777
aa(lp494
S'HG'
p495
aF-0.9148130118862137
aF2.2731041000638372
aF1.4450292950513641
aa(lp496
S'1HD1'
p497
aF-3.352630228554368
aF2.3250779784034656
aF1.7299291618233197
aa(lp498
S'2HD1'
p499
aF-2.8441218305782
aF0.9974496385213434
aF0.6596356505239425
aa(lp500
S'3HD1'
p501
aF-3.316635038892179
aF0.6541619526147958
aF2.340935692953537
aa(lp502
S'1HD2'
p503
aF-1.8440528739344997
aF3.0668279399869345
aF3.593721628708795
aa(lp504
S'2HD2'
p505
aF-1.7872840961762562
aF1.4063688635463982
aF4.232550996645242
aa(lp506
S'3HD2'
p507
aF-0.27638345614226667
aF2.2577311561226416
aF3.8335090154901126
aaa(lp508
(lp509
S'N'
p510
aF0.789687545969576
aF0.9214344674843675
aF0.34687764683292405
aa(lp511
S'H'
p512
aF1.778795750874768
aF0.8319462478601243
aF0.5335506698911857
aa(lp513
S'CA'
p514
aF-0.09483191206206196
aF-0.1964996326030453
aF0.6529343020867562
aa(lp515
S'C'
p516
aF-1.216240403658397
aF-0.306750385077701
aF-0.3717279674217954
aa(lp517
S'O'
p518
aF-1.2574109811238698
aF-1.250130697663752
aF-1.1616346513890865
aa(lp519
S'CB'
p520
aF-0.6904697242613417
aF-0.03257842936321995
aF2.056850409198172
aa(lp521
S'CG'
p522
aF-1.6256717693457838
aF-1.1571877233889287
aF2.5175315035149195
aa(lp523
S'CD1'
p524
aF-1.3889364558585435
aF-1.442962902194738
aF3.9940364776096895
aa(lp525
S'CD2'
p526
aF-3.069879080377509
aF-0.7520775902628345
aF2.2641305903337265
aa(lp527
S'HA'
p528
aF0.4891950524277128
aF-1.1162426204387987
aF0.6243976401269982
aa(lp529
S'1HB'
p530
aF0.126068765423765
aF0.033862673403804444
aF2.7750408259581434
aa(lp531
S'2HB'
p532
aF-1.2521839939852708
aF0.9003600699683701
aF2.0895128594037504
aa(lp533
S'HG'
p534
aF-1.4025386102420043
aF-2.068130035393945
aF1.9619159012255973
aa(lp535
S'1HD1'
p536
aF-2.05411567087098
aF-2.2414496161211765
aF4.321823877609135
aa(lp537
S'2HD1'
p538
aF-0.35380629777548994
aF-1.7498646703435607
aF4.144112660044102
aa(lp539
S'3HD1'
p540
aF-1.590324198881006
aF-0.5432885527243473
aF4.575462347231387
aa(lp541
S'1HD2'
p542
aF-3.7353243987918177
aF-1.5516705297997007
aF2.591078077314852
aa(lp543
S'2HD2'
p544
aF-3.296520219979298
aF0.15804004499223046
aF2.820753158900381
aa(lp545
S'3HD2'
p546
aF-3.215894051106516
aF-0.5712195414148802
aF1.1994790067206078
aaa(lp547
(lp548
S'N'
p549
aF0.7636700396226093
aF0.936940971890077
aF0.4242719950414845
aa(lp550
S'H'
p551
aF1.7573482049293938
aF0.7598412097022692
aF0.4027225629011375
aa(lp552
S'CA'
p553
aF-0.14729370014903076
aF-0.16283668637418253
aF0.716325358665385
aa(lp554
S'C'
p555
aF-1.208122354783539
aF-0.3024024334213902
aF-0.36849258355234166
aa(lp556
S'O'
p557
aF-1.1656021896193862
aF-1.231543061796815
aF-1.174827333055629
aa(lp558
S'CB'
p559
aF-0.8238153826837255
aF0.05578132315856976
aF2.075246467107063
aa(lp560
S'CG'
p561
aF-0.09413090178498874
aF1.0017752661102466
aF3.037324436002666
aa(lp562
S'CD1'
p563
aF-0.688679524267489
aF0.8673447745181111
aF4.432703373221681
aa(lp564
S'CD2'
p565
aF1.391649367154869
aF0.6756818054701819
aF3.0418018634773145
aa(lp566
S'HA'
p567
aF0.427617759062376
aF-1.0867230043491827
aF0.7557700734699715
aa(lp568
S'1HB'
p569
aF-1.8209242874934817
aF0.46000085606205043
aF1.90686475441719
aa(lp570
S'2HB'
p571
aF-0.9246926089265198
aF-0.9088461537259801
aF2.5725588599396882
aa(lp572
S'HG'
p573
aF-0.23759955620651507
aF2.033160642873604
aF2.711897101875411
aa(lp574
S'1HD1'
p575
aF-0.16996537327404837
aF1.5398101056595264
aF5.115527660994189
aa(lp576
S'2HD1'
p577
aF-1.7478604310802852
aF1.1256267139310692
aF4.4032543254221155
aa(lp578
S'3HD1'
p579
aF-0.5749838503847189
aF-0.1590085712709568
aF4.778459216741224
aa(lp580
S'1HD2'
p581
aF1.9103635181483047
aF1.3481471366115936
aF3.724626151249818
aa(lp582
S'2HD2'
p583
aF1.535593949388978
aF-0.354858013890641
aF3.3682580442385337
aa(lp584
S'3HD2'
p585
aF1.793812972244287
aF0.7970107650692652
aF2.035829339844544
aaa(lp586
(lp587
S'N'
p588
aF0.8495479606163001
aF0.8351636341463158
aF0.20311564886096656
aa(lp589
S'H'
p590
aF1.7509114538760246
aF0.9127449855250079
aF0.6518371515069699
aa(lp591
S'CA'
p592
aF-0.07397898509442688
aF-0.2047566371005996
aF0.6397537255285433
aa(lp593
S'C'
p594
aF-1.253120403401294
aF-0.33229989650894126
aF-0.31629137414655273
aa(lp595
S'O'
p596
aF-1.2733600259965816
aF-1.2108520860617784
aF-1.1784151517499302
aa(lp597
S'CB'
p598
aF-0.5843414724645342
aF0.0996064536655269
aF2.0536222627216896
aa(lp599
S'CG'
p600
aF-0.3391796450488792
aF1.5281720981240974
aF2.556054226126572
aa(lp601
S'CD1'
p602
aF-1.6748075829416287
aF2.210683081995324
aF2.819598849322518
aa(lp603
S'CD2'
p604
aF0.5106119524368455
aF1.4839172423830773
aF3.8172289755510906
aa(lp605
S'HA'
p606
aF0.4588155764051224
aF-1.1557951122341914
aF0.6567470787019828
aa(lp607
S'1HB'
p608
aF-1.6582688843304971
aF-0.08114932726665397
aF2.0815733217798122
aa(lp609
S'2HB'
p610
aF-0.10321060309940577
aF-0.5839102779144514
aF2.7520941406052435
aa(lp611
S'HG'
p612
aF0.18103143835183322
aF2.100291651050311
aF1.7871695495550028
aa(lp613
S'1HD1'
p614
aF-1.5008058804757265
aF3.226074415580143
aF3.1771542257606438
aa(lp615
S'2HD1'
p616
aF-2.253860900104934
aF2.24523698174648
aF1.8973292120178082
aa(lp617
S'3HD1'
p618
aF-2.22629628553597
aF1.6505437286333555
aF3.574194181753114
aa(lp619
S'1HD2'
p620
aF0.6850968689100629
aF2.499457669191011
aF4.173921637996081
aa(lp621
S'2HD2'
p622
aF-0.009630478287332656
aF0.9137711063816736
aF4.58643713780424
aa(lp623
S'3HD2'
p624
aF1.4661432596801522
aF1.0084142288632265
aF3.595639704575622
aaa(lp625
(lp626
S'N'
p627
aF0.7910330538332063
aF0.9227906447841482
aF0.3498425555048398
aa(lp628
S'H'
p629
aF1.7794634050902416
aF0.8359003391251046
aF0.5380034321406686
aa(lp630
S'CA'
p631
aF-0.09058837809302966
aF-0.19941003799383444
aF0.6475878801381109
aa(lp632
S'C'
p633
aF-1.213339163850396
aF-0.3045801385697869
aF-0.37689878303816293
aa(lp634
S'O'
p635
aF-1.266568916980054
aF-1.2547008073456458
aF-1.1585350847454643
aa(lp636
S'CB'
p637
aF-0.6849112122618642
aF-0.04801203875924104
aF2.052809576032849
aa(lp638
S'CG'
p639
aF0.26581694970008063
aF-0.36242206388699805
aF3.2150450505179577
aa(lp640
S'CD1'
p641
aF1.2653283056748663
aF0.7748396119182537
aF3.3763891858996797
aa(lp642
S'CD2'
p643
aF-0.5396807635948209
aF-0.5675238562415672
aF4.489491867238696
aa(lp644
S'HA'
p645
aF0.4951369108089887
aF-1.1178537833740545
aF0.610696519190048
aa(lp646
S'1HB'
p647
aF-1.029905051182073
aF0.9769784184642356
aF2.1758006883455043
aa(lp648
S'2HB'
p649
aF-1.5454079308505675
aF-0.7124757452141268
aF2.140115819236371
aa(lp650
S'HG'
p651
aF0.8268915979737199
aF-1.2697519527799963
aF2.9907668487549866
aa(lp652
S'1HD1'
p653
aF1.941072990018562
aF0.5515521062686901
aF4.201996121070428
aa(lp654
S'2HD1'
p655
aF1.8403735769063785
aF0.8863094954262847
aF2.4576033560650083
aa(lp656
S'3HD1'
p657
aF0.7309813661678339
aF1.7013664881781567
aF3.5852367279190513
aa(lp658
S'1HD2'
p659
aF0.13647692307023956
aF-0.7917216529612174
aF5.315070531394819
aa(lp660
S'2HD2'
p661
aF-1.100869716298037
aF0.339692260367042
aF4.7157635559880005
aa(lp662
S'3HD2'
p663
aF-1.233138221135475
aF-1.397498059783749
aF4.35219810905656
aaa(lp664
(lp665
S'N'
p666
aF0.7665858272601678
aF0.9366655501950877
aF0.414984935294742
aa(lp667
S'H'
p668
aF1.7631634178881161
aF0.7711347707477697
aF0.42290117895896495
aa(lp669
S'CA'
p670
aF-0.13877730618123424
aF-0.16879576509463093
aF0.7053672298705088
aa(lp671
S'C'
p672
aF-1.2086290260721013
aF-0.30215667045556527
aF-0.3707852529904768
aa(lp673
S'O'
p674
aF-1.1823429128949374
aF-1.236847885392672
aF-1.172468091133735
aa(lp675
S'CB'
p676
aF-0.8040539469611814
aF0.03691752897097145
aF2.0726411716529247
aa(lp677
S'CG'
p678
aF-2.319311567672598
aF0.27430229615551016
aF2.0467797102726686
aa(lp679
S'CD1'
p680
aF-2.6057289066922857
aF1.6757250941338242
aF1.5243993419436985
aa(lp681
S'CD2'
p682
aF-2.983445757636356
aF-0.7805487037288174
aF1.173504755997548
aa(lp683
S'HA'
p684
aF0.4392180889210664
aF-1.091475889017188
aF0.732120027084812
aa(lp685
S'1HB'
p686
aF-0.6168817117346383
aF-0.8436204343846828
aF2.6850792905268066
aa(lp687
S'2HB'
p688
aF-0.34218709772125766
aF0.897179345771354
aF2.5581817159213656
aa(lp689
S'HG'
p690
aF-2.7156263753841845
aF0.2087408296550688
aF3.06001476064294
aa(lp691
S'1HD1'
p692
aF-3.6824352588574856
aF1.84430234373772
aF1.5053430536614334
aa(lp693
S'2HD1'
p694
aF-2.135007810685836
aF2.4102255197778346
aF2.1782867745368435
aa(lp695
S'3HD1'
p696
aF-2.2053282686933406
aF1.7768258301882576
aF0.5160903762693443
aa(lp697
S'1HD2'
p698
aF-4.060452645773493
aF-0.6129619666570438
aF1.1561597722040549
aa(lp699
S'2HD2'
p700
aF-2.5888555843195062
aF-0.7157025555638344
aF0.15955279846211595
aa(lp701
S'3HD2'
p702
aF-2.7774792146331917
aF-1.7708380126730587
aF1.5796314206651925
aaa(lp703
(lp704
S'N'
p705
aF0.7763954362167802
aF0.9482254335875406
aF0.4431263180172053
aa(lp706
S'H'
p707
aF1.7771893365881095
aF0.8234416975165929
aF0.48108139925434656
aa(lp708
S'CA'
p709
aF-0.0916970564377573
aF-0.20707249940372213
aF0.6414470436687252
aa(lp710
S'C'
p711
aF-1.1667430956721414
aF-0.2788627768384734
aF-0.43421236785162565
aa(lp712
S'O'
p713
aF-1.2951446206949793
aF-1.285731854861927
aF-1.1314423930886424
aa(lp714
S'CB'
p715
aF-0.748127007589245
aF-0.1442113978483784
aF2.025797505489181
aa(lp716
S'CG'
p717
aF-1.7893875638630226
aF-1.2328048467907886
aF2.317944312536755
aa(lp718
S'CD1'
p719
aF-3.136347858994467
aF-0.8160296773847563
aF1.7426961734645936
aa(lp720
S'CD2'
p721
aF-1.3240657952540527
aF-2.5531404943403215
aF1.7215129003286322
aa(lp722
S'HA'
p723
aF0.5157534420516066
aF-1.109798111998839
aF0.5816861848245427
aa(lp724
S'1HB'
p725
aF0.030169722828943923
aF-0.2193417608980418
aF2.7832805930682927
aa(lp726
S'2HB'
p727
aF-1.2401717734869908
aF0.8216307677568698
aF2.134525880311925
aa(lp728
S'HG'
p729
aF-1.9069520715995996
aF-1.343795773277926
aF3.3962710722706415
aa(lp730
S'1HD1'
p731
aF-3.8749763573057088
aF-1.5892335028839066
aF1.9506692143039286
aa(lp732
S'2HD1'
p733
aF-3.4527194987920424
aF0.12138731068259168
aF2.2008483054191803
aa(lp734
S'3HD1'
p735
aF-3.0451106924567206
aF-0.6809124420611365
aF0.6657081920271644
aa(lp736
S'1HD2'
p737
aF-2.0639160690818725
aF-3.327050835079354
aF1.9293959367074938
aa(lp738
S'2HD2'
p739
aF-1.2072929846732847
aF-2.4436536921423953
aF0.6435190455903339
aa(lp740
S'3HD2'
p741
aF-0.3688440947916136
aF-2.8359176393470644
aF2.1628229831813615
aaa(lp742
(lp743
S'N'
p744
aF0.7687328775078164
aF0.9492625860711208
aF0.471545698447298
aa(lp745
S'H'
p746
aF1.7653136740091204
aF0.7945412880225219
aF0.4240269024295148
aa(lp747
S'CA'
p748
aF-0.11702827907349281
aF-0.19134210689823286
aF0.6734295954476857
aa(lp749
S'C'
p750
aF-1.166347310751591
aF-0.276618041818106
aF-0.4274861981903302
aa(lp751
S'O'
p752
aF-1.2506709616918332
aF-1.2758437253772819
aF-1.1415159981341554
aa(lp753
S'CB'
p754
aF-0.8079573443268714
aF-0.08963430177879705
aF2.0394784778695048
aa(lp755
S'CG'
p756
aF-1.1888710581589754
aF-1.4238483014742989
aF2.693788607419056
aa(lp757
S'CD1'
p758
aF-2.4041959531331596
aF-1.222384402739519
aF3.5887984940474507
aa(lp759
S'CD2'
p760
aF-1.470651122597773
aF-2.4567549798535464
aF1.6132911344722296
aa(lp761
S'HA'
p762
aF0.4799037223537761
aF-1.10194355469932
aF0.6499948150005692
aa(lp763
S'1HB'
p764
aF-0.14691507388171662
aF0.43816719216567546
aF2.7248051880411603
aa(lp765
S'2HB'
p766
aF-1.7196166990513997
aF0.4960286652137172
aF1.9249397942870452
aa(lp767
S'HG'
p768
aF-0.366150078213944
aF-1.7692995111905434
aF3.3205003839669653
aa(lp769
S'1HD1'
p770
aF-2.6741392940842483
aF-2.1702173371590296
aF4.054184700445817
aa(lp771
S'2HD1'
p772
aF-2.1682623957317477
aF-0.4927237441529877
aF4.364066628181044
aa(lp773
S'3HD1'
p774
aF-3.240105854086319
aF-0.8596633247157253
aF2.9911522299030944
aa(lp775
S'1HD2'
p776
aF-1.740485322788995
aF-3.4052241560930865
aF2.077419054479908
aa(lp777
S'2HD2'
p778
aF-2.2940501775449835
aF-2.1125218616484314
aF0.9863417293024073
aa(lp779
S'3HD2'
p780
aF-0.5797714220835084
aF-2.594026190047083
aF0.9994157610749781
aaa.