(lp0
(lp1
(lp2
S'N'
p3
aF0.19499999999999887
aF1.0684
aF0.49100000000000066
aa(lp4
S'H'
p5
aF-0.2960000000000008
aF1.3794
aF1.3169999999999995
aa(lp6
S'CA'
p7
aF-0.5329999999999991
aF0.32440000000000047
aF-0.53
aa(lp8
S'C'
p9
aF-0.2260000000000005
aF-1.1656
aF-0.45000000000000007
aa(lp10
S'O'
p11
aF0.8600000000000015
aF-1.6066000000000007
aF-0.8280000000000001
aa(lp12
S'CB'
p13
aF-0.1759999999999998
aF0.8523999999999992
aF-1.9249999999999996
aa(lp14
S'CG'
p15
aF-0.807
aF0.09839999999999954
aF-3.1030000000000006
aa(lp16
S'CD1'
p17
aF-2.302000000000001
aF0.3794000000000002
aF-3.1450000000000005
aa(lp18
S'CD2'
p19
aF-0.13300000000000053
aF0.525400000000001
aF-4.399
aa(lp20
S'HA'
p21
aF-1.6010000000000004
aF0.46440000000000103
aF-0.365000000000001
aa(lp22
S'1HB'
p23
aF-0.48899999999999866
aF1.8933999999999993
aF-1.9929999999999992
aa(lp24
S'2HB'
p25
aF0.9060000000000009
aF0.8113999999999988
aF-2.0469999999999997
aa(lp26
S'HG'
p27
aF-0.6729999999999997
aF-0.9746000000000008
aF-2.9620000000000006
aa(lp28
S'1HD1'
p29
aF-2.749999999999998
aF-0.15659999999999946
aF-3.982
aa(lp30
S'2HD1'
p31
aF-2.7619999999999982
aF0.046399999999999955
aF-2.2139999999999995
aa(lp32
S'3HD1'
p33
aF-2.4679999999999978
aF1.4494000000000002
aF-3.2700000000000005
aa(lp34
S'1HD2'
p35
aF-0.581000000000001
aF-0.011599999999999878
aF-5.2360000000000015
aa(lp36
S'2HD2'
p37
aF-0.2670000000000009
aF1.5984000000000012
aF-4.542000000000001
aa(lp38
S'3HD2'
p39
aF0.9309999999999995
aF0.2963999999999982
aF-4.348
aaa(lp40
(lp41
S'N'
p42
aF0.19292357840323382
aF1.0753777023491475
aF0.4949279242337849
aa(lp43
S'H'
p44
aF-0.30598971166915634
aF1.3827151787336338
aF1.3172680026677381
aa(lp45
S'CA'
p46
aF-0.5212334612437959
aF0.3244087599184928
aF-0.5305414172031857
aa(lp47
S'C'
p48
aF-0.21781897129005087
aF-1.1650751698237718
aF-0.4358193483615098
aa(lp49
S'O'
p50
aF0.8521185657997481
aF-1.6174264711774868
aF-0.8458351613368389
aa(lp51
S'CB'
p52
aF-0.1446167996544851
aF0.842158221043207
aF-1.9250152913644754
aa(lp53
S'CG'
p54
aF-1.1034029797581826
aF1.8725761365487446
aF-2.5344240049938365
aa(lp55
S'CD1'
p56
aF-2.5003445862126954
aF1.2740208351886066
aF-2.627244796683827
aa(lp57
S'CD2'
p58
aF-1.1038350528463916
aF3.132054598494092
aF-1.680810616387127
aa(lp59
S'HA'
p60
aF-1.5912513395498553
aF0.4675992979157256
aF-0.38174891089501894
aa(lp61
S'1HB'
p62
aF0.8422358700994225
aF1.29972783326868
aF-1.8706015231856798
aa(lp63
S'2HB'
p64
aF-0.09202026750088677
aF-0.005681482932826332
aF-2.6076245801726827
aa(lp65
S'HG'
p66
aF-0.7784180961620487
aF2.11841795124697
aF-3.545251699301768
aa(lp67
S'1HD1'
p68
aF-3.1817420650242423
aF2.0064379872334537
aF-3.060570991668367
aa(lp69
S'2HD1'
p70
aF-2.474692903017707
aF0.38609439773021403
aF-3.2591487710436278
aa(lp71
S'3HD1'
p72
aF-2.846683545451661
aF1.0017622276647373
aF-1.630386945261451
aa(lp73
S'1HD2'
p74
aF-1.7852325316579383
aF3.864471750538939
aF-2.114136811371667
aa(lp75
S'2HD2'
p76
aF-1.4298832985909653
aF2.8869866217819125
aF-0.6694628877412926
aa(lp77
S'3HD2'
p78
aF-0.09750738851447172
aF3.548267685363678
aF-1.6461797296130833
aaa(lp79
(lp80
S'N'
p81
aF0.19804853145707685
aF1.0541349070054893
aF0.47785447263808645
aa(lp82
S'H'
p83
aF-0.2685792052794953
aF1.3654936887128573
aF1.3175188486609184
aa(lp84
S'CA'
p85
aF-0.5624234900094865
aF0.3242080429515811
aF-0.5292731646050716
aa(lp86
S'C'
p87
aF-0.24439420299926218
aF-1.164932719239738
aF-0.48682127437598616
aa(lp88
S'O'
p89
aF0.8773483668311541
aF-1.5789039194301675
aF-0.779278882317973
aa(lp90
S'CB'
p91
aF-0.2601610122632298
aF0.8783385787884572
aF-1.926806972353503
aa(lp92
S'CG'
p93
aF-0.8016232190181983
aF2.2840293863972048
aF-2.216256505191794
aa(lp94
S'CD1'
p95
aF-0.7666933928747544
aF2.543360934318686
aF-3.7159901667124764
aa(lp96
S'CD2'
p97
aF-2.2168295876040647
aF2.4049962881759033
aF-1.673340357901925
aa(lp98
S'HA'
p99
aF-1.6243434080866421
aF0.45443406348761073
aF-0.3220383432879156
aa(lp100
S'1HB'
p101
aF0.8193293954114294
aF0.9048901507880394
aF-2.064198652460937
aa(lp102
S'2HB'
p103
aF-0.6839105478435237
aF0.20052470696517044
aF-2.667845895932694
aa(lp104
S'HG'
p105
aF-0.16358409813779473
aF3.026313935417489
aF-1.7353108445273975
aa(lp106
S'1HD1'
p107
aF-1.1512302145732978
aF3.5422806780963
aF-3.9223630773602793
aa(lp108
S'2HD1'
p109
aF0.2601138572332544
aF2.4697009649065844
aF-4.074368570124062
aa(lp110
S'3HD1'
p111
aF-1.3832930561957184
aF1.804901943873915
aF-4.22752528244136
aa(lp112
S'1HD2'
p113
aF-2.601389906313754
aF3.404632195874888
aF-1.8781363864589575
aa(lp114
S'2HD2'
p115
aF-2.856006681041557
aF1.664680268986051
aF-2.1551970118517145
aa(lp116
S'3HD2'
p117
aF-2.209756713000592
aF2.2330901289228127
aF-0.5969889994433177
aaa(lp118
(lp119
S'N'
p120
aF0.20032638135915812
aF1.0469052990341752
aF0.4851322250538628
aa(lp121
S'H'
p122
aF-0.27228116093071814
aF1.3790317774553038
aF1.3143156265413152
aa(lp123
S'CA'
p124
aF-0.5623617369130562
aF0.3216581901932243
aF-0.5245471623579216
aa(lp125
S'C'
p126
aF-0.2436028826802644
aF-1.1675089833248051
aF-0.4896770868702582
aa(lp127
S'O'
p128
aF0.8779193991648814
aF-1.5800862833578986
aF-0.785223602366991
aa(lp129
S'CB'
p130
aF-0.26128828484715616
aF0.8829088470999646
aF-1.9193756380433296
aa(lp131
S'CG'
p132
aF0.766703858991157
aF0.098665346192462
aF-2.7449338028573256
aa(lp133
S'CD1'
p134
aF0.04505697224193908
aF-0.7505253530009557
aF-3.7826596468298814
aa(lp135
S'CD2'
p136
aF1.732618735016284
aF1.0694033758964008
aF-3.4075280451805443
aa(lp137
S'HA'
p138
aF-1.6233257681006483
aF0.4508580721816992
aF-0.3150293468377757
aa(lp139
S'1HB'
p140
aF-1.1885398951938426
aF0.9125298675029531
aF-2.489425676425717
aa(lp141
S'2HB'
p142
aF0.10825042050327578
aF1.9025616406209014
aF-1.8122713621582083
aa(lp143
S'HG'
p144
aF1.3215395304650095
aF-0.5749041000878571
aF-2.0907422569796803
aa(lp145
S'1HD1'
p146
aF0.7763467175611227
aF-1.3075244697106891
aF-4.3690616355505725
aa(lp147
S'2HD1'
p148
aF-0.6236732317789052
aF-1.447994522509526
aF-3.280410035764562
aa(lp149
S'3HD1'
p150
aF-0.5315324814865379
aF-0.10401391779417013
aF-4.443380893647297
aa(lp151
S'1HD2'
p152
aF2.4649703448888074
aF0.5113423032457833
aF-3.9930670777899584
aa(lp153
S'2HD2'
p154
aF1.1796284066426548
aF1.741934178780313
aF-4.06295082163674
aa(lp155
S'3HD2'
p156
aF2.2479615684815815
aF1.6497545663407924
aF-2.641459993539088
aaa(lp157
(lp158
S'N'
p159
aF0.19250515621628358
aF1.077938430253393
aF0.5095326735480212
aa(lp160
S'H'
p161
aF-0.3267718749230089
aF1.4029774074350418
aF1.3130350246608633
aa(lp162
S'CA'
p163
aF-0.5023181736156962
aF0.3218860294274333
aF-0.5251703309544749
aa(lp164
S'C'
p165
aF-0.20128306927507014
aF-1.1671514048453715
aF-0.41653614992061044
aa(lp166
S'O'
p167
aF0.8378679615974916
aF-1.6356504622704968
aF-0.8808612173337995
aa(lp168
S'CB'
p169
aF-0.09814599770241517
aF0.8312084043526389
aF-1.9153582932883737
aa(lp170
S'CG'
p171
aF-1.2516784770818
aF1.2830911770625664
aF-2.820063095278965
aa(lp172
S'CD1'
p173
aF-0.9719455256546599
aF2.6879491087866887
aF-3.3371875170167966
aa(lp174
S'CD2'
p175
aF-1.4108532677747678
aF0.2991063273648856
aF-3.9690483874273395
aa(lp176
S'HA'
p177
aF-1.5746288354329154
aF0.46586598235155297
aF-0.3984082794205177
aa(lp178
S'1HB'
p179
aF0.5767064231700632
aF1.6770041112294174
aF-1.7912058375278996
aa(lp180
S'2HB'
p181
aF0.4388998002176462
aF0.036755901991386064
aF-2.4333274356398693
aa(lp182
S'HG'
p183
aF-2.175520361018953
aF1.3183337636146324
aF-2.2409049704317305
aa(lp184
S'1HD1'
p185
aF-1.7911677661822767
aF3.0090151924723285
aF-3.9792868010310976
aa(lp186
S'2HD1'
p187
aF-0.8817063332965263
aF3.3745033216438998
aF-2.494471550056064
aa(lp188
S'3HD1'
p189
aF-0.04358559448938193
aF2.687945365076326
aF-3.906405259355168
aa(lp190
S'1HD2'
p191
aF-2.231371968865527
aF0.6198076460300566
aF-4.611579106822723
aa(lp192
S'2HD2'
p193
aF-0.4876302546106961
aF0.26417491372668056
aF-4.54892774065997
aa(lp194
S'3HD2'
p195
aF-1.6275379811073019
aF-0.6921000406549651
aF-3.571583079501104
aaa(lp196
(lp197
S'N'
p198
aF0.15278089294496916
aF1.166270695450151
aF0.4472712193794274
aa(lp199
S'H'
p200
aF-0.29801996096307815
aF1.2686588082228372
aF1.3446124390270164
aa(lp201
S'CA'
p202
aF-0.48342053243544025
aF0.34753845045338677
aF-0.5779571733928845
aa(lp203
S'C'
p204
aF-0.18707493361601968
aF-1.131746636828781
aF-0.3629876020462748
aa(lp205
S'O'
p206
aF0.8157345340695648
aF-1.6507213172975976
aF-0.850938882967275
aa(lp207
S'CB'
p208
aF-0.0017470503222221656
aF0.7739111680808846
aF-1.9708706532227955
aa(lp209
S'CG'
p210
aF-0.9472549883711716
aF0.4415228812297217
aF-3.1322718611826357
aa(lp211
S'CD1'
p212
aF-1.63953477469172
aF-0.8871721071696277
aF-2.8599571071673027
aa(lp213
S'CD2'
p214
aF-1.9633203652275908
aF1.5630115236589228
aF-3.2971001805210602
aa(lp215
S'HA'
p216
aF-1.5606110310228576
aF0.49446947152330656
aF-0.5196999437956813
aa(lp217
S'1HB'
p218
aF0.1539405213255987
aF1.8515055787029924
aF-1.969237793646489
aa(lp219
S'2HB'
p220
aF0.9534217011970619
aF0.28946960683868683
aF-2.1725933090210763
aa(lp221
S'HG'
p222
aF-0.37175277284845043
aF0.3353077439429222
aF-4.05133689943596
aa(lp223
S'1HD1'
p224
aF-2.310893181195773
aF-1.1236747742585762
aF-3.6848215678371483
aa(lp225
S'2HD1'
p226
aF-0.8915026749908359
aF-1.6748413685199646
aF-2.7652200365935347
aa(lp227
S'3HD1'
p228
aF-2.2111554555197324
aF-0.8160867575405945
aF-1.9351621729695427
aa(lp229
S'1HD2'
p230
aF-2.6344928413656694
aF1.3269871945954892
aF-4.122822908417561
aa(lp231
S'2HD2'
p232
aF-2.5407129199443528
aF1.6689234364169228
aF-2.378613651227572
aa(lp233
S'3HD2'
p234
aF-1.4421231478981742
aF2.4966442235370963
aF-3.5085746290160476
aaa(lp235
(lp236
S'N'
p237
aF0.19703897889193844
aF1.0565595060494501
aF0.5183261627332472
aa(lp238
S'H'
p239
aF-0.319219480977337
aF1.421990890048297
aF1.3060584181361197
aa(lp240
S'CA'
p241
aF-0.5155678846112096
aF0.31717652639084204
aF-0.5168130875511455
aa(lp242
S'C'
p243
aF-0.21164358473813347
aF-1.1724253535589573
aF-0.43839587517602013
aa(lp244
S'O'
p245
aF0.8493919714347189
aF-1.6233015689296149
aF-0.8691756181421945
aa(lp246
S'CB'
p247
aF-0.13645117018540232
aF0.8500038635366338
aF-1.9046356791071157
aa(lp248
S'CG'
p249
aF-1.308722557114241
aF1.2955556725373825
aF-2.78925558668554
aa(lp250
S'CD1'
p251
aF-1.820003384653541
aF0.1062736647759186
aF-3.5905215983231247
aa(lp252
S'CD2'
p253
aF-2.4087825790169695
aF1.8818538698959977
aF-1.9173058335544197
aa(lp254
S'HA'
p255
aF-1.5849278428358433
aF0.45840875378377005
aF-0.36695736463261985
aa(lp256
S'1HB'
p257
aF0.5267066335397466
aF1.7042149597872949
aF-1.7789530215895115
aa(lp258
S'2HB'
p259
aF0.40614130568058116
aF0.07111396324734531
aF-2.4392363977383007
aa(lp260
S'HG'
p261
aF-0.9640256753915236
aF2.0506699941726927
aF-3.4957847233755115
aa(lp262
S'1HD1'
p263
aF-2.652455240215848
aF0.4224395139024597
aF-4.218909268489339
aa(lp264
S'2HD1'
p265
aF-1.0186255061633502
aF-0.2808245897826498
aF-4.218884898639317
aa(lp266
S'3HD1'
p267
aF-2.1568480930754044
aF-0.6738547034395821
aF-2.9084186944195944
aa(lp268
S'1HD2'
p269
aF-3.2411386979401886
aF2.198500898326931
aF-2.546564882497646
aa(lp270
S'2HD2'
p271
aF-2.7543893417656062
aF1.1271368559497854
aF-1.210657268564352
aa(lp272
S'3HD2'
p273
aF-2.0203961195826174
aF2.740101414628996
aF-1.3697210363879635
aaa(lp274
(lp275
S'N'
p276
aF0.19151063491367998
aF1.0805692595385097
aF0.49813210301619826
aa(lp277
S'H'
p278
aF-0.3151967324904191
aF1.3859679638384206
aF1.317375824524235
aa(lp279
S'CA'
p280
aF-0.5114484891457902
aF0.32484590887269493
aF-0.5305625490356042
aa(lp281
S'C'
p282
aF-0.2088235317215963
aF-1.1645333057071545
aF-0.42378385115303574
aa(lp283
S'O'
p284
aF0.8439581184441276
aF-1.6268498265424993
aF-0.8611615273518145
aa(lp285
S'CB'
p286
aF-0.119345761714657
aF0.8330764863196858
aF-1.9234247573279284
aa(lp287
S'CG'
p288
aF-1.0388842511524745
aF1.9051942007878635
aF-2.523599375889854
aa(lp289
S'CD1'
p290
aF-1.118168910755489
aF3.093891328832543
aF-1.5764974381186518
aa(lp291
S'CD2'
p292
aF-0.5060432055590611
aF2.3254255261454877
aF-3.88557700174099
aa(lp293
S'HA'
p294
aF-1.5831633751870204
aF0.46760360363716696
aF-0.3937654598005975
aa(lp295
S'1HB'
p296
aF0.8854918222007795
aF1.2504472781550284
aF-1.8701889416233415
aa(lp297
S'2HB'
p298
aF-0.10346227163075938
aF-0.012677312112040928
aF-2.610826551900115
aa(lp299
S'HG'
p300
aF-2.0444150636660137
aF1.4996433752286094
aF-2.6365830604379683
aa(lp301
S'1HD1'
p302
aF-1.7723020700860097
aF3.8558897050987886
aF-2.0027007750739987
aa(lp303
S'2HD1'
p304
aF-1.5201628952184962
aF2.7684812932570484
aF-0.6162734302942725
aa(lp305
S'3HD1'
p306
aF-0.12258961304201876
aF3.51069706298024
aF-1.4308442817987213
aa(lp307
S'1HD2'
p308
aF-1.1601211692391442
aF3.0866217047378193
aF-4.312374840447499
aa(lp309
S'2HD2'
p310
aF0.49917872442222144
aF2.731528836011203
aF-3.7733674959011707
aa(lp311
S'3HD2'
p312
aF-0.47638994380525235
aF1.45940946915084
aF-4.547723415379842
aaa(lp313
(lp314
S'N'
p315
aF0.19840908854307243
aF1.0534047734682772
aF0.5137313858601178
aa(lp316
S'H'
p317
aF-0.31100765496168653
aF1.416724120585315
aF1.3068131177436961
aa(lp318
S'CA'
p319
aF-0.5245151436232804
aF0.31786005598442457
aF-0.5172368595908707
aa(lp320
S'C'
p321
aF-0.21865544115426297
aF-1.172961305700713
aF-0.4488299158729341
aa(lp322
S'O'
p323
aF0.8557691511961656
aF-1.6150276443372997
aF-0.8544777281400073
aa(lp324
S'CB'
p325
aF-0.15952799435588516
aF0.856677523663953
aF-1.9070850949723723
aa(lp326
S'CG'
p327
aF-0.16990109244047336
aF2.3844241886905913
aF-2.0510313569457557
aa(lp328
S'CD1'
p329
aF-1.2194206828753917
aF2.7911299254203747
aF-3.0765800261976874
aa(lp330
S'CD2'
p331
aF-0.4514610814135538
aF3.020630158205198
aF-0.6986641963848922
aa(lp332
S'HA'
p333
aF-1.5932781650638408
aF0.4574118935407199
aF-0.35748114408776027
aa(lp334
S'1HB'
p335
aF0.8388405238137115
aF0.506983218564479
aF-2.1637467300268627
aa(lp336
S'2HB'
p337
aF-0.8633145080185969
aF0.4508084215830441
aF-2.6332013495504656
aa(lp338
S'HG'
p339
aF0.8011729921106195
aF2.721494709583142
aF-2.4159431082754197
aa(lp340
S'1HD1'
p341
aF-1.2265278169262444
aF3.875886668906925
aF-3.179547477880418
aa(lp342
S'2HD1'
p343
aF-0.9831132005181804
aF2.3377903479072595
aF-4.03933700552437
aa(lp344
S'3HD1'
p345
aF-2.2000966121387227
aF2.451706777496531
aF-2.7466578408009408
aa(lp346
S'1HD2'
p347
aF-0.45737481333995766
aF4.106120281913886
aF-0.801436853768082
aa(lp348
S'2HD2'
p349
aF-1.4225761180531582
aF2.684819563422049
aF-0.3331114231170002
aa(lp350
S'3HD2'
p351
aF0.324082896852103
aF2.7279255794675095
aF0.010432106920852863
aaa(lp352
(lp353
S'N'
p354
aF0.20110195115761392
aF1.0414842618588698
aF0.4966513641790267
aa(lp355
S'H'
p356
aF-0.2813417772046322
aF1.3968525110483085
aF1.3093871493096982
aa(lp357
S'CA'
p358
aF-0.5553702035724618
aF0.31864465673631637
aF-0.5188434828705809
aa(lp359
S'C'
p360
aF-0.23933842682755768
aF-1.1704545184400472
aF-0.48524939743083373
aa(lp361
S'O'
p362
aF0.8749484564470408
aF-1.586526911203449
aF-0.8019456331873039
aa(lp363
S'CB'
p364
aF-0.24485264630002807
aF0.8821557236064022
aF-1.9118431684916875
aa(lp365
S'CG'
p366
aF-0.6461067019919589
aF2.345119201296026
aF-2.1417127961876132
aa(lp367
S'CD1'
p368
aF0.4404900158610554
aF3.0496186196602286
aF-2.941811629004885
aa(lp369
S'CD2'
p370
aF-1.9817847092179932
aF2.3968727569847657
aF-2.8695828604753695
aa(lp371
S'HA'
p372
aF-1.6178548454951478
aF0.4488808617807549
aF-0.3164109840616095
aa(lp373
S'1HB'
p374
aF0.8254818298702433
aF0.8003994265470451
aF-2.0890154490901294
aa(lp375
S'2HB'
p376
aF-0.7627104700182754
aF0.275377724688005
aF-2.6549230662431933
aa(lp377
S'HG'
p378
aF-0.7358501505284364
aF2.85272483617536
aF-1.1810403062705095
aa(lp379
S'1HD1'
p380
aF0.15633014720693938
aF4.08898473292488
aF-3.105656835354079
aa(lp381
S'2HD1'
p382
aF1.3802441577455036
aF3.014479932165803
aF-2.3892191702686185
aa(lp383
S'3HD1'
p384
aF0.5655526679177703
aF2.5529584513167336
aF-3.9033505050996333
aa(lp385
S'1HD2'
p386
aF-2.2661810192892347
aF3.437118441819761
aF-3.0319548223408117
aa(lp387
S'2HD2'
p388
aF-1.8922566895442958
aF1.8904517288047331
aF-3.8309971707029566
aa(lp389
S'3HD2'
p390
aF-2.743139741617566
aF1.9016736156284657
aF-2.267817686142533
aaa(lp391
(lp392
S'N'
p393
aF0.18283287055529146
aF1.09849796352642
aF0.44604448833364363
aa(lp394
S'H'
p395
aF-0.2566685419087767
aF1.2975625891549356
aF1.3332703802379944
aa(lp396
S'CA'
p397
aF-0.5530133608837465
aF0.3378470996470608
aF-0.5563673965502873
aa(lp398
S'C'
p399
aF-0.2419047191708342
aF-1.1502959394028527
aF-0.45784984289194564
aa(lp400
S'O'
p401
aF0.8687537514080449
aF-1.5836117129255476
aF-0.7650976291294196
aa(lp402
S'CB'
p403
aF-0.21119721399605285
aF0.8457023648146396
aF-1.963676797985668
aa(lp404
S'CG'
p405
aF-1.3821920557513994
aF0.904966363445748
aF-2.952475998556046
aa(lp406
S'CD1'
p407
aF-0.9493772269761875
aF1.6468437398321718
aF-4.209356375679612
aa(lp408
S'CD2'
p409
aF-1.8411258626582092
aF-0.507634154081697
aF-3.2818929664845635
aa(lp410
S'HA'
p411
aF-1.6194687708696136
aF0.4778505985735975
aF-0.3837004373478681
aa(lp412
S'1HB'
p413
aF0.20245617315429332
aF1.849149193783002
aF-1.879069843588419
aa(lp414
S'2HB'
p415
aF0.5516518754689375
aF0.1956957782679506
aF-2.391455600812966
aa(lp416
S'HG'
p417
aF-2.2084506197163143
aF1.4599540397225792
aF-2.505680223446794
aa(lp418
S'1HD1'
p419
aF-1.7817619842242545
aF1.6893867093646568
aF-4.912133517912081
aa(lp420
S'2HD1'
p421
aF-0.6455992261153343
aF2.6600012021918293
aF-3.9475627877941744
aa(lp422
S'3HD1'
p423
aF-0.11290947143787111
aF1.1237483605204357
aF-4.669996059258215
aa(lp424
S'1HD2'
p425
aF-2.6740361784115816
aF-0.46576176997721375
aF-3.9841465598260477
aa(lp426
S'2HD2'
p427
aF-1.0170171753294663
aF-1.0628680100235293
aF-3.729252147328402
aa(lp428
S'3HD2'
p429
aF-2.1615178634475924
aF-1.008584134948612
aF-2.3675838926481427
aaa(lp430
(lp431
S'N'
p432
aF0.16031774849326533
aF1.1468521081442262
aF0.43508838362244906
aa(lp433
S'H'
p434
aF-0.26759344824911424
aF1.2555400430092185
aF1.343318497920191
aa(lp435
S'CA'
p436
aF-0.5175884127807391
aF0.34779816169642847
aF-0.5785017836408985
aa(lp437
S'C'
p438
aF-0.21840212313599477
aF-1.1349734440540848
aF-0.4024224570046971
aa(lp439
S'O'
p440
aF0.8432662356725857
aF-1.6152168687957826
aF-0.7974826408970469
aa(lp441
S'CB'
p442
aF-0.0910396801778951
aF0.7991355327566391
aF-1.9814336266751083
aa(lp443
S'CG'
p444
aF-0.6791040254717424
aF-0.007655919217406271
aF-3.1470256988923695
aa(lp445
S'CD1'
p446
aF-0.47623339628373085
aF0.7569612253579487
aF-4.447561792214769
aa(lp447
S'CD2'
p448
aF-0.01188574669082243
aF-1.3736532652452411
aF-3.2053439559439925
aa(lp449
S'HA'
p450
aF-1.591821147860772
aF0.49674160192768024
aF-0.47357856173768564
aa(lp451
S'1HB'
p452
aF-0.3862884774178146
aF1.8383180918955975
aF-2.115868579383785
aa(lp453
S'2HB'
p454
aF0.994466484739826
aF0.738577530699773
aF-2.0509037232095118
aa(lp455
S'HG'
p456
aF-1.7519265696210233
aF-0.1333953094210703
aF-2.998155303862754
aa(lp457
S'1HD1'
p458
aF-0.8935527941151937
aF0.18386307139288227
aF-5.275185514757457
aa(lp459
S'2HD1'
p460
aF-0.9795892982602725
aF1.7220382945489132
aF-4.384442171912067
aa(lp461
S'3HD1'
p462
aF0.5892932372875088
aF0.9125435252225871
aF-4.615145028605443
aa(lp463
S'1HD2'
p464
aF-0.4303773758728462
aF-1.947444612309356
aF-4.033348935602282
aa(lp465
S'2HD2'
p466
aF1.0603019048026718
aF-1.2491706782057426
aF-3.3552229921993004
aa(lp467
S'3HD2'
p468
aF-0.18852562667395634
aF-1.9051654287766655
aF-2.270270604373279
aaa(lp469
(lp470
S'N'
p471
aF0.18263600725680737
aF1.1035269176254432
aF0.4631055505275088
aa(lp472
S'H'
p473
aF-0.2838995404324532
aF1.3227990001978203
aF1.3309628755220384
aa(lp474
S'CA'
p475
aF-0.5284194879760773
aF0.3349106440531477
aF-0.5520619758931048
aa(lp476
S'C'
p477
aF-0.2238634418548841
aF-1.152170399775745
aF-0.4303673422571427
aa(lp478
S'O'
p479
aF0.8535464630066167
aF-1.609066162100656
aF-0.8116391078992851
aa(lp480
S'CB'
p481
aF-0.14781305699199154
aF0.8282322378723899
aF-1.9531738735533875
aa(lp482
S'CG'
p483
aF-0.49281267074897994
aF-0.12017936018777231
aF-3.1094219901670046
aa(lp484
S'CD1'
p485
aF0.1993157051118002
aF-1.4584444344665797
aF-2.89215279701285
aa(lp486
S'CD2'
p487
aF-2.002639377848658
aF-0.2926196152751164
aF-3.1905741494355055
aa(lp488
S'HA'
p489
aF-1.597761480719371
aF0.4796475599486769
aF-0.407732742080788
aa(lp490
S'1HB'
p491
aF-0.6539531331866207
aF1.7738358641440644
aF-2.138767529833867
aa(lp492
S'2HB'
p493
aF0.9276883833699522
aF1.0047026211639378
aF-1.9796475510521447
aa(lp494
S'HG'
p495
aF-0.12429063398268192
aF0.2989242173873614
aF-4.046263865662182
aa(lp496
S'1HD1'
p497
aF-0.04561196530193734
aF-2.132389654565668
aF-3.7136266411316328
aa(lp498
S'2HD1'
p499
aF1.2787164841975507
aF-1.3081044742007568
aF-2.8579058342810066
aa(lp500
S'3HD1'
p501
aF-0.1376976285738697
aF-1.8941695674797816
aF-1.9528766813904466
aa(lp502
S'1HD2'
p503
aF-2.247952390386507
aF-0.9653350650252972
aF-4.01263038202974
aa(lp504
S'2HD2'
p505
aF-2.3716888495175104
aF-0.7114574624413302
aF-2.254539243439953
aa(lp506
S'3HD2'
p507
aF-2.47063332658672
aF0.6775504425689715
aF-3.363269612049202
aaa(lp508
(lp509
S'N'
p510
aF0.1823513079060176
aF1.1075693645556648
aF0.480708418069338
aa(lp511
S'H'
p512
aF-0.311439462459111
aF1.349019258411317
aF1.3269983352131556
aa(lp513
S'CA'
p514
aF-0.5034600361123526
aF0.33228393708493975
aF-0.5453131735003888
aa(lp515
S'C'
p516
aF-0.2037918305712313
aF-1.1552941079585386
aF-0.40467702419174467
aa(lp517
S'O'
p518
aF0.8363400212367981
aF-1.6335784520934145
aF-0.857716555590384
aa(lp519
S'CB'
p520
aF-0.08742728553660517
aF0.8137098067540742
aF-1.9410512873533183
aa(lp521
S'CG'
p522
aF0.4679972926411282
aF-0.2656623110833001
aF-2.8796104859078824
aa(lp523
S'CD1'
p524
aF-0.06051154942977055
aF-0.03401252129659327
aF-4.28931605046546
aa(lp525
S'CD2'
p526
aF1.9882846715338387
aF-0.2287626839495175
aF-2.8522115243046287
aa(lp527
S'HA'
p528
aF-1.57720517534018
aF0.4776218771118276
aF-0.43011656255508945
aa(lp529
S'1HB'
p530
aF-0.9531606418698507
aF1.2609534204633253
aF-2.4272239991834406
aa(lp531
S'2HB'
p532
aF0.678290272108033
aF1.5813096079163138
aF-1.829874998647483
aa(lp533
S'HG'
p534
aF0.12178058639929668
aF-1.2466528087279642
aF-2.5512012353530675
aa(lp535
S'1HD1'
p536
aF0.33451229758311074
aF-0.8012535047007016
aF-4.955723158527994
aa(lp537
S'2HD1'
p538
aF-1.1492561890256767
aF-0.08462054345363895
aF-4.282996410880109
aa(lp539
S'3HD1'
p540
aF0.255872011285744
aF0.9483695372225373
aF-4.6391273333148675
aa(lp541
S'1HD2'
p542
aF2.383060780533726
aF-0.9969712648049981
aF-3.518569836373221
aa(lp543
S'2HD2'
p544
aF2.3349284188157897
aF0.7499551217558481
aF-3.182531928254406
aa(lp545
S'3HD2'
p546
aF2.338230165221302
aF-0.41496798801146295
aF-1.8373121518607174
aaa(lp547
(lp548
S'N'
p549
aF0.20497591693857467
aF1.0185589770028842
aF0.5077474606948176
aa(lp550
S'H'
p551
aF-0.27489136766924055
aF1.4196097858149226
aF1.300585172912346
aa(lp552
S'CA'
p553
aF-0.5681732168246275
aF0.31315254742810794
aF-0.5073772538480782
aa(lp554
S'C'
p555
aF-0.24584601076577553
aF-1.1754664016487468
aF-0.5090495826395502
aa(lp556
S'O'
p557
aF0.8839346783211187
aF-1.5758549085971925
aF-0.7919057971195113
aa(lp558
S'CB'
p559
aF-0.2872499267084365
aF0.9051215616009199
aF-1.894109669034784
aa(lp560
S'CG'
p561
aF-0.4714284624537599
aF2.422403086951669
aF-2.019553041916816
aa(lp562
S'CD1'
p563
aF-1.6480176775660373
aF2.864004659057653
aF-1.160381423207829
aa(lp564
S'CD2'
p565
aF0.808940124082608
aF3.1256441226993585
aF-1.5975680561040648
aa(lp566
S'HA'
p567
aF-1.627327230257604
aF0.43410883376316944
aF-0.2825254079031372
aa(lp568
S'1HB'
p569
aF0.7403611482562699
aF0.6726518817070609
aF-2.1693083727742812
aa(lp570
S'2HB'
p571
aF-0.9512459506858524
aF0.4297420646483562
aF-2.6158912246451567
aa(lp572
S'HG'
p573
aF-0.7005890057725492
aF2.6765262612656864
aF-3.05478628020778
aa(lp574
S'1HD1'
p575
aF-1.7795238151501018
aF3.9431320855688115
aF-1.2498025232296626
aa(lp576
S'2HD1'
p577
aF-2.5540633952497602
aF2.3602614713387635
aF-1.4973546540345626
aa(lp578
S'3HD1'
p579
aF-1.4551142513904376
aF2.60720469167341
aF-0.11912686983426657
aa(lp580
S'1HD2'
p581
aF0.6780755588817606
aF4.205473752069905
aF-1.6872978566626047
aa(lp582
S'2HD2'
p583
aF1.0385293791671435
aF2.872944212932338
aF-0.5614457035059424
aa(lp584
S'3HD2'
p585
aF1.6301619999870351
aF2.8054028595332827
aF-2.238969774141842
aaa(lp586
(lp587
S'N'
p588
aF0.17533456561820712
aF1.113672410612298
aF0.43617729415969425
aa(lp589
S'H'
p590
aF-0.25118179477834773
aF1.2736384848240723
aF1.3376342534291579
aa(lp591
S'CA'
p592
aF-0.5491442307444842
aF0.3424148566267072
aF-0.5661700802774499
aa(lp593
S'C'
p594
aF-0.24054428784732595
aF-1.144029208201829
aF-0.4471443797758428
aa(lp595
S'O'
p596
aF0.8655357477518939
aF-1.5856965438612431
aF-0.7604970875355449
aa(lp597
S'CB'
p598
aF-0.19010438541862518
aF0.8337470256097897
aF-1.9745624578451284
aa(lp599
S'CG'
p600
aF-1.3719814204868601
aF1.0223587123807867
aF-2.934851635953333
aa(lp601
S'CD1'
p602
aF-2.5102290117561914
aF1.725350085029866
aF-2.2080548617787956
aa(lp603
S'CD2'
p604
aF-0.9190233100460692
aF1.824456489208878
aF-4.145929299273631
aa(lp605
S'HA'
p606
aF-1.6167895140194344
aF0.4853538646489981
aF-0.40664895601378964
aa(lp607
S'1HB'
p608
aF0.3219237354592531
aF1.7914669080003978
aF-1.888041764921382
aa(lp609
S'2HB'
p610
aF0.4955436546189627
aF0.11846364915946528
aF-2.4280836332784483
aa(lp611
S'HG'
p612
aF-1.7348660011549302
aF0.047487047151667294
aF-3.2596977802228166
aa(lp613
S'1HD1'
p614
aF-3.3497864970654976
aF1.8585026598962124
aF-2.8899475371079815
aa(lp615
S'2HD1'
p616
aF-2.8269361457055426
aF1.1209616697735219
aF-1.357648350274144
aa(lp617
S'3HD1'
p618
aF-2.1712078469106784
aF2.699073883430939
aF-1.8554919394313185
aa(lp619
S'1HD2'
p620
aF-1.757991443430429
aF1.9572649166366085
aF-4.82906061371453
aa(lp621
S'2HD2'
p622
aF-0.5564063722135916
aF2.800216101174616
aF-3.821457211023377
aa(lp623
S'3HD2'
p624
aF-0.11657021948246027
aF1.2904433989394248
aF-4.656403644236983
aaa(lp625
(lp626
S'N'
p627
aF0.19372433060234878
aF1.0709476804194127
aF0.5139983944887028
aa(lp628
S'H'
p629
aF-0.3257416191409818
aF1.4117220669621624
aF1.3107072149078558
aa(lp630
S'CA'
p631
aF-0.5053948243178805
aF0.3205277051662709
aF-0.5222053827504572
aa(lp632
S'C'
p633
aF-0.20350070391503622
aF-1.1699013845356219
aF-0.4224954602924331
aa(lp634
S'O'
p635
aF0.8409128167715665
aF-1.6332960680121924
aF-0.8800047663537056
aa(lp636
S'CB'
p637
aF-0.106872235300628
aF0.8370580857824044
aF-1.9104395531783154
aa(lp638
S'CG'
p639
aF-1.1541657319974794
aF0.6478817985129962
aF-3.015847018374497
aa(lp640
S'CD1'
p641
aF-0.6758888131517362
aF-0.41963928057198907
aF-3.9906392703998406
aa(lp642
S'CD2'
p643
aF-2.486895444555968
aF0.2618084582601873
aF-2.3920642924115194
aa(lp644
S'HA'
p645
aF-1.5769510793866335
aF0.46318247003295243
aF-0.3884338974336626
aa(lp646
S'1HB'
p647
aF0.10693942158722758
aF1.9018585996752035
aF-1.8359516951576114
aa(lp648
S'2HB'
p649
aF0.8028409293179891
aF0.32531704870264166
aF-2.2241975317033513
aa(lp650
S'HG'
p651
aF-1.2690297460252298
aF1.5794164801137052
aF-3.5718482731001373
aa(lp652
S'1HD1'
p653
aF-1.4194864297433583
aF-0.5545590733356816
aF-4.77642501353843
aa(lp654
S'2HD1'
p655
aF0.26859739315112696
aF-0.10919579147150893
aF-4.43557819449927
aa(lp656
S'3HD1'
p657
aF-0.536112948175346
aF-1.3602158436397047
aF-3.4596708753160743
aa(lp658
S'1HD2'
p659
aF-3.2304468135014877
aF0.12816197436326227
aF-3.1784636687345365
aa(lp660
S'2HD2'
p661
aF-2.373185278112626
aF-0.6698208857708547
aF-1.8379760653323658
aa(lp662
S'3HD2'
p663
aF-2.8132257568322236
aF1.0503750388163702
aF-1.714140052308237
aaa(lp664
(lp665
S'N'
p666
aF0.1860920831328969
aF1.0871695746184422
aF0.4381019203555477
aa(lp667
S'H'
p668
aF-0.23812349798036614
aF1.2893870385401678
aF1.3323296531092417
aa(lp669
S'CA'
p670
aF-0.5741624675295108
aF0.33699313711618756
aF-0.5546776779509005
aa(lp671
S'C'
p672
aF-0.25366897601879035
aF-1.1501974565965045
aF-0.48484172824182437
aa(lp673
S'O'
p674
aF0.8798628583958265
aF-1.563352293678283
aF-0.7309121672721042
aa(lp675
S'CB'
p676
aF-0.2734636098828451
aF0.8656627236628338
aF-1.9629722725832155
aa(lp677
S'CG'
p678
aF0.7529445290177199
aF0.06051927224193432
aF-2.770549114148607
aa(lp679
S'CD1'
p680
aF2.097871344889578
aF0.773846694672267
aF-2.7372347275007534
aa(lp681
S'CD2'
p682
aF0.8645929049271047
aF-1.342831672370263
aF-2.194196993988697
aa(lp683
S'HA'
p684
aF-1.6359010143500434
aF0.46911035415272284
aF-0.35008711326636005
aa(lp685
S'1HB'
p686
aF-1.200992398972793
aF0.8844109827184976
aF-2.5320749418720743
aa(lp687
S'2HB'
p688
aF0.09769874411710833
aF1.8861733285995648
aF-1.8792667638942597
aa(lp689
S'HG'
p690
aF0.43262458828271155
aF0.001484124191252656
aF-3.810902413207225
aa(lp691
S'1HD1'
p692
aF2.8267172973548056
aF0.20203476290252054
aF-3.310960874944635
aa(lp693
S'2HD1'
p694
aF1.9932400353942659
aF1.7682565207093328
aF-3.1727325885221553
aa(lp695
S'3HD1'
p696
aF2.437428945021833
aF0.8631118678679103
aF-1.7063713199404844
aa(lp697
S'1HD2'
p698
aF1.5936122666175903
aF-1.9158208525328368
aF-2.7686873504761005
aa(lp699
S'2HD2'
p700
aF1.1859538972148373
aF-1.2851482033538075
aF-1.1541423175230483
aa(lp701
S'3HD2'
p702
aF-0.10637450654908892
aF-1.8356324624623594
aF-2.24683412096016
aaa.