(lp0
(lp1
(lp2
S'N'
p3
aF-0.4282
aF-0.2894
aF-1.0708000000000026
aa(lp4
S'H'
p5
aF-0.11720000000000005
aF0.5806000000000001
aF-1.4777999999999991
aa(lp6
S'CA'
p7
aF-0.9481999999999996
aF-0.29139999999999977
aF0.2911999999999992
aa(lp8
S'C'
p9
aF0.15679999999999908
aF-0.015400000000000023
aF1.3031999999999997
aa(lp10
S'O'
p11
aF1.3368000000000007
aF0.015599999999999671
aF0.954200000000003
aa(lp12
S'CB'
p13
aF-1.612200000000001
aF-1.6374
aF0.603200000000004
aa(lp14
S'CG'
p15
aF-3.1232
aF-1.7094
aF0.3502000000000038
aa(lp16
S'CD1'
p17
aF-3.4221999999999997
aF-2.8384
aF-0.6268
aa(lp18
S'CD2'
p19
aF-3.8502000000000005
aF-1.9203999999999999
aF1.6691999999999994
aa(lp20
S'HA'
p21
aF-1.6962000000000006
aF0.4965999999999996
aF0.37620000000000003
aa(lp22
S'1HB'
p23
aF-1.1382000000000008
aF-2.4074
aF-0.0027999999999977375
aa(lp24
S'2HB'
p25
aF-1.4411999999999998
aF-1.8744
aF1.6532000000000011
aa(lp26
S'HG'
p27
aF-3.4602
aF-0.7774
aF-0.1048000000000016
aa(lp28
S'1HD1'
p29
aF-4.4962
aF-2.8894
aF-0.8067999999999997
aa(lp30
S'2HD1'
p31
aF-2.9052000000000002
aF-2.6514
aF-1.5678000000000025
aa(lp32
S'3HD1'
p33
aF-3.080200000000001
aF-3.7834
aF-0.2058000000000007
aa(lp34
S'1HD2'
p35
aF-4.9252
aF-1.9704000000000002
aF1.4891999999999996
aa(lp36
S'2HD2'
p37
aF-3.5151999999999997
aF-2.8524
aF2.1241999999999974
aa(lp38
S'3HD2'
p39
aF-3.6341999999999994
aF-1.0904000000000003
aF2.3412000000000033
aaa(lp40
(lp41
S'N'
p42
aF-0.3877499904736852
aF-0.2864651687465686
aF-1.0859737068560407
aa(lp43
S'H'
p44
aF-0.22270659627196066
aF0.6101894775996629
aF-1.521016375126711
aa(lp45
S'CA'
p46
aF-0.9039840696057917
aF-0.3302740325515323
aF0.27701571313032014
aa(lp47
S'C'
p48
aF0.15948722367174029
aF0.09157471284080271
aF1.2826286826098998
aa(lp49
S'O'
p50
aF1.3549534326796961
aF-0.08502498914230573
aF1.0473456862425439
aa(lp51
S'CB'
p52
aF-1.4008255277540078
aF-1.7422878029883613
aF0.6102103672920148
aa(lp53
S'CG'
p54
aF-2.917796850173553
aF-1.890736486937166
aF0.7848385299421539
aa(lp55
S'CD1'
p56
aF-3.2210920952367816
aF-3.1968994268288693
aF1.5058713785527211
aa(lp57
S'CD2'
p58
aF-3.4576659769253837
aF-0.6993970784230911
aF1.561985710147769
aa(lp59
S'HA'
p60
aF-1.74206273015416
aF0.36239081150130154
aF0.3515849597853279
aa(lp61
S'1HB'
p62
aF-1.092609022482173
aF-2.4162919294155354
aF-0.18817990283730568
aa(lp63
S'2HB'
p64
aF-0.92686554914609
aF-2.0682376300974052
aF1.5358564383610611
aa(lp65
S'HG'
p66
aF-3.3949094199921137
aF-1.9316010784215623
aF-0.19389467215327216
aa(lp67
S'1HD1'
p68
aF-4.298697279757293
aF-3.30246915463167
aF1.629964484187776
aa(lp69
S'2HD1'
p70
aF-2.840996009286708
aF-4.033562717207916
aF0.9180240310401471
aa(lp71
S'3HD1'
p72
aF-2.742087827485099
aF-3.19258686377086
aF2.4834338130169082
aa(lp73
S'1HD2'
p74
aF-4.535821770211298
aF-0.804191965093579
aF1.685768249836289
aa(lp75
S'2HD2'
p76
aF-2.9818574121386714
aF-0.6588662207134838
aF2.542198166327002
aa(lp77
S'3HD2'
p78
aF-3.2429751938235767
aF0.21908120521722602
aF1.0160923962738226
aaa(lp79
(lp80
S'N'
p81
aF-0.40856073329769144
aF-0.29139047721974204
aF-1.0626611110758226
aa(lp82
S'H'
p83
aF-0.1426458810601457
aF0.5695959514373177
aF-1.5193323944163075
aa(lp84
S'CA'
p85
aF-0.9478277062535732
aF-0.2396568842812783
aF0.2914853977040347
aa(lp86
S'C'
p87
aF0.1628095039293458
aF-0.08154614624503731
aF1.3213402330447908
aa(lp88
S'O'
p89
aF1.3362248166820663
aF0.042997556308738166
aF0.9691678747433048
aa(lp90
S'CB'
p91
aF-1.753033177736756
aF-1.51009287927087
aF0.5897563002881625
aa(lp92
S'CG'
p93
aF-3.157614739935591
aF-1.5681211005946458
aF-0.026250485925331413
aa(lp94
S'CD1'
p95
aF-3.5764315955849826
aF-0.17220483429697814
aF-0.46911753020559316
aa(lp96
S'CD2'
p97
aF-3.157576372568267
aF-2.5364657974115206
aF-1.1990972562557871
aa(lp98
S'HA'
p99
aF-1.610511193824436
aF0.6215678374851026
aF0.36565125183742697
aa(lp100
S'1HB'
p101
aF-1.195163428982096
aF-2.3695622096508515
aF0.22196313346664576
aa(lp102
S'2HB'
p103
aF-1.8611152670091926
aF-1.6079733387547024
aF1.6693482035690912
aa(lp104
S'HG'
p105
aF-3.8709831129443804
aF-1.9074267230963984
aF0.7252402052542005
aa(lp106
S'1HD1'
p107
aF-4.57340321288599
aF-0.21289606105345737
aF-0.9066010365932806
aa(lp108
S'2HD1'
p109
aF-3.585652460049209
aF0.49547603193725254
aF0.39262966968729773
aa(lp110
S'3HD1'
p111
aF-2.870675254512041
aF0.20096334181581213
aF-1.2103425293603618
aa(lp112
S'1HD2'
p113
aF-4.15665807077655
aF-2.577896996031064
aF-1.6365812172031584
aa(lp114
S'2HD2'
p115
aF-2.445927877497487
aF-2.197660408650111
aF-1.9522588113087012
aa(lp116
S'3HD2'
p117
aF-2.8724629305998852
aF-3.529436781353409
aF-0.8511591148305936
aaa(lp118
(lp119
S'N'
p120
aF-0.4322586802008897
aF-0.2910175474667641
aF-1.0623866812311862
aa(lp121
S'H'
p122
aF-0.11100339027909592
aF0.5568078730341394
aF-1.508821553356709
aa(lp123
S'CA'
p124
aF-0.956027749613144
aF-0.22250220239408136
aF0.29609247187224064
aa(lp125
S'C'
p126
aF0.16938547462017772
aF-0.12280228391010539
aF1.3170523148509194
aa(lp127
S'O'
p128
aF1.3299043454729644
aF0.07951416073680484
aF0.9580634478647305
aa(lp129
S'CB'
p130
aF-1.817678529396135
aF-1.4574446145943671
aF0.5938728813156834
aa(lp131
S'CG'
p132
aF-2.720696685422524
aF-1.3548789297051538
aF1.8290730635411834
aa(lp133
S'CD1'
p134
aF-3.7908936461470097
aF-0.29870567732018505
aF1.589618420231385
aa(lp135
S'CD2'
p136
aF-3.3467381049100786
aF-2.712268261733308
aF2.114126290820173
aa(lp137
S'HA'
p138
aF-1.5781472877368108
aF0.6675893130906019
aF0.3828240944038943
aa(lp139
S'1HB'
p140
aF-2.4536323202198687
aF-1.6525842474986618
aF-0.267544729142159
aa(lp141
S'2HB'
p142
aF-1.1589627062326016
aF-2.314389982814661
aF0.7353758855232857
aa(lp143
S'HG'
p144
aF-2.129143894882618
aF-1.0411084069770813
aF2.688425933479605
aa(lp145
S'1HD1'
p146
aF-4.43360044549407
aF-0.2260139030187749
aF2.46784724919452
aa(lp147
S'2HD1'
p148
aF-3.316582401193572
aF0.6652044834378344
aF1.408300895159558
aa(lp149
S'3HD1'
p150
aF-4.3902603814123555
aF-0.5778211097719242
aF0.7240231961083314
aa(lp151
S'1HD2'
p152
aF-3.9886814795024033
aF-2.6407664892710554
aF2.992322282812725
aa(lp153
S'2HD2'
p154
aF-3.9405000622133564
aF-3.0266397329986514
aF1.2556443072504286
aa(lp155
S'3HD2'
p156
aF-2.5603846304229823
aF-3.4439720355143617
aF2.2983864346294878
aaa(lp157
(lp158
S'N'
p159
aF-0.41089991169825363
aF-0.2902375811081072
aF-1.0745667820470233
aa(lp160
S'H'
p161
aF-0.1533663263908337
aF0.5921227101914394
aF-1.4930243889518273
aa(lp162
S'CA'
p163
aF-0.9349094760818037
aF-0.3034450145173385
aF0.28657521647381856
aa(lp164
S'C'
p165
aF0.15501667601620106
aF0.020178455382944216
aF1.2996935870024207
aa(lp166
S'O'
p167
aF1.3441590381546924
aF-0.0186185699488971
aF0.9813223675225682
aa(lp168
S'CB'
p169
aF-1.546698922195206
aF-1.6739732157479676
aF0.6050734476396656
aa(lp170
S'CG'
p171
aF-2.7728054638357835
aF-1.65698924998563
aF1.527182060251634
aa(lp172
S'CD1'
p173
aF-2.516090536815041
aF-0.7161356715143534
aF2.696924335337278
aa(lp174
S'CD2'
p175
aF-3.9983258773165256
aF-1.2234436938034834
aF0.735708139735799
aa(lp176
S'HA'
p177
aF-1.7127768079666776
aF0.45427931346524053
aF0.3651707428710924
aa(lp178
S'1HB'
p179
aF-1.8420506357435982
aF-2.1475686172852684
aF-0.3300649169603269
aa(lp180
S'2HB'
p181
aF-0.7857202702882307
aF-2.2937589985168936
aF1.0776092397436607
aa(lp182
S'HG'
p183
aF-2.9371968673600852
aF-2.655422665592466
aF1.9323143609226257
aa(lp184
S'1HD1'
p185
aF-3.386016826381862
aF-0.7044245582052889
aF3.352355567844216
aa(lp186
S'2HD1'
p187
aF-1.6460705297483857
aF-1.060006864126714
aF3.2564435845102615
aa(lp188
S'3HD1'
p189
aF-2.331214729771511
aF0.2896490611994097
aF2.3206597908876283
aa(lp190
S'1HD2'
p191
aF-4.869242322149548
aF-1.2127406243112817
aF1.391198025563833
aa(lp192
S'2HD2'
p193
aF-3.8346127994024317
aF-0.2243281067687164
aF0.33084881618740125
aa(lp194
S'3HD2'
p195
aF-4.168324664145263
aF-1.9225039515571272
aF-0.08280586045367011
aaa(lp196
(lp197
S'N'
p198
aF-0.4489878176318167
aF-0.28866654890928456
aF-1.0639708469497704
aa(lp199
S'H'
p200
aF-0.08507220832442704
aF0.5520095108069394
aF-1.4895412781623305
aa(lp201
S'CA'
p202
aF-0.9628476559474688
aF-0.22954184360567884
aF0.298859052850268
aa(lp203
S'C'
p204
aF0.17112409003160609
aF-0.1252433283972249
aF1.310696934650747
aa(lp205
S'O'
p206
aF1.325783591872142
aF0.09144221010524654
aF0.9439561376111211
aa(lp207
S'CB'
p208
aF-1.8119285767496263
aF-1.471027259422249
aF0.5997519777330688
aa(lp209
S'CG'
p210
aF-2.847293564755637
aF-1.3146600467415246
aF1.7200241037853854
aa(lp211
S'CD1'
p212
aF-4.248804306943304
aF-1.4202971283335712
aF1.1357866122416675
aa(lp213
S'CD2'
p214
aF-2.6136462812228975
aF-2.380948215880722
aF2.779900269783822
aa(lp215
S'HA'
p216
aF-1.5903923419675683
aF0.6551997148276502
aF0.394363198461354
aa(lp217
S'1HB'
p218
aF-2.3458422840635946
aF-1.754557178760092
aF-0.30662759947646345
aa(lp219
S'2HB'
p220
aF-1.1467264054635484
aF-2.289353879349366
aF0.8747730940767621
aa(lp221
S'HG'
p222
aF-2.74850988640346
aF-0.3260017283711364
aF2.1710523893820413
aa(lp223
S'1HD1'
p224
aF-4.984340882909059
aF-1.3092985066862022
aF1.9324623627254875
aa(lp225
S'2HD1'
p226
aF-4.395329925874735
aF-0.634177597571419
aF0.3949078594412811
aa(lp227
S'3HD1'
p228
aF-4.372979252768433
aF-2.39450126312604
aF0.662682092518402
aa(lp229
S'1HD2'
p230
aF-3.3499605405826163
aF-2.26801316264483
aF3.5773794138460104
aa(lp231
S'2HD2'
p232
aF-2.7139537423044873
aF-3.368724816905552
aF2.330250628708459
aa(lp233
S'3HD2'
p234
aF-1.6108301695302576
aF-2.2694924700878945
aF3.1932058018777134
aaa(lp235
(lp236
S'N'
p237
aF-0.4193992218147181
aF-0.2912425568952197
aF-1.0630717312554014
aa(lp238
S'H'
p239
aF-0.12594327102666608
aF0.5674385066047628
aF-1.5070339324996171
aa(lp240
S'CA'
p241
aF-0.9519624134937537
aF-0.2434977518145781
aF0.2927412648677562
aa(lp242
S'C'
p243
aF0.16366400512357057
aF-0.08352356279168302
aF1.3176168441111666
aa(lp244
S'O'
p245
aF1.3336409012115933
aF0.05082536489667333
aF0.9597475547760533
aa(lp246
S'CB'
p247
aF-1.7517480436164514
aF-1.5181616952934376
aF0.5930424087952556
aa(lp248
S'CG'
p249
aF-2.840959892236118
aF-1.8758186025190502
aF-0.42646535750198344
aa(lp250
S'CD1'
p251
aF-3.5625070267685577
aF-3.1386800696524237
aF0.023339764164877045
aa(lp252
S'CD2'
p253
aF-3.8099051005356928
aF-0.7116850557378971
aF-0.5638854017896489
aa(lp254
S'HA'
p255
aF-1.6181701098442571
aF0.6153221918163454
aF0.3729323475711258
aa(lp256
S'1HB'
p257
aF-1.0604062814316864
aF-2.3571205757566958
aF0.6472232610503688
aa(lp258
S'2HB'
p259
aF-2.23208898963642
aF-1.4061150850722761
aF1.5647003386834317
aa(lp260
S'HG'
p261
aF-2.38000487237744
aF-2.0809012801733497
aF-1.3933823989244734
aa(lp262
S'1HD1'
p263
aF-4.336286420565774
aF-3.3930827164094612
aF-0.7022735922845752
aa(lp264
S'2HD1'
p265
aF-2.848990429934368
aF-3.9602478865018154
aF0.09394704678844709
aa(lp266
S'3HD1'
p267
aF-4.019884889683074
aF-2.9695386193087727
aF0.996693584875207
aa(lp268
S'1HD2'
p269
aF-4.58368449433291
aF-0.9660877024949346
aF-1.2894987582391009
aa(lp270
S'2HD2'
p271
aF-4.272340123449867
aF-0.5061434451914117
aF0.4011345440748543
aa(lp272
S'3HD2'
p273
aF-3.271035199147116
aF0.17348671609514166
aF-0.9040341394433677
aaa(lp274
(lp275
S'N'
p276
aF-0.4461304877387863
aF-0.2882423866582242
aF-1.065646298939533
aa(lp277
S'H'
p278
aF-0.0840709666934236
aF0.5611130777898321
aF-1.4758233317346794
aa(lp279
S'CA'
p280
aF-0.9623520559301803
aF-0.2563156185534856
aF0.2973925757857671
aa(lp281
S'C'
p282
aF0.165007718489564
aF-0.08502199892870217
aF1.308193958301691
aa(lp283
S'O'
p284
aF1.3275457918728386
aF0.06846692635058094
aF0.9358830965867629
aa(lp285
S'CB'
p286
aF-1.7377852310413753
aF-1.5439988709082866
aF0.6009864369587657
aa(lp287
S'CG'
p288
aF-2.9626071245561008
aF-1.3836075801892735
aF1.5113660078128655
aa(lp289
S'CD1'
p290
aF-4.017818949666966
aF-2.4136043764237174
aF1.1292605199002026
aa(lp291
S'CD2'
p292
aF-2.539964497953829
aF-1.5455591409228508
aF2.963664152876295
aa(lp293
S'HA'
p294
aF-1.6396406090320248
aF0.591798651448342
aF0.3908612917097303
aa(lp295
S'1HB'
p296
aF-2.07856556666413
aF-1.9743668886053063
aF-0.33994189835502975
aa(lp297
S'2HB'
p298
aF-1.061748906577047
aF-2.2534198218814376
aF1.0773778750903833
aa(lp299
S'HG'
p300
aF-3.395493274435128
aF-0.39371305664978773
aF1.3667132736200722
aa(lp301
S'1HD1'
p302
aF-4.888302182632537
aF-2.2987184497686957
aF1.7758648540817996
aa(lp303
S'2HD1'
p304
aF-4.315706627772284
aF-2.261902043680082
aF0.09142848461069275
aa(lp305
S'3HD1'
p306
aF-3.607369696447482
aF-3.415895694864919
aF1.2477616739408477
aa(lp307
S'1HD2'
p308
aF-3.410447730919396
aF-1.4306732142678231
aF3.610268487057896
aa(lp309
S'2HD2'
p310
aF-2.1082461670200607
aF-2.5360788692084046
aF3.1088121828762594
aa(lp311
S'3HD2'
p312
aF-1.7989860479531143
aF-0.7864528532945224
aF3.213869230198229
aaa.