(lp0
(lp1
(lp2
S'N'
p3
aF-0.9508000000000025
aF0.3116000000000099
aF-0.493000000000012
aa(lp4
S'H'
p5
aF-1.6618000000000008
aF-0.37339999999999235
aF-0.7039999999999964
aa(lp6
S'CA'
p7
aF-0.30480000000000174
aF0.28660000000000424
aF0.8140000000000043
aa(lp8
S'C'
p9
aF1.1352000000000033
aF-0.19740000000000463
aF0.7080000000000097
aa(lp10
S'O'
p11
aF1.7822000000000018
aF-0.02740000000001718
aF-0.3250000000000056
aa(lp12
S'CB'
p13
aF-1.086799999999998
aF-0.6204000000000065
aF1.7739999999999838
aa(lp14
S'CG'
p15
aF-2.6087999999999965
aF-0.4314000000000135
aF1.7769999999999981
aa(lp16
S'CD1'
p17
aF-3.2708000000000026
aF-1.6444000000000074
aF2.4169999999999847
aa(lp18
S'CD2'
p19
aF-2.9608000000000003
aF0.8435999999999921
aF2.528000000000003
aa(lp20
S'HA'
p21
aF-0.2988000000000015
aF1.2985999999999904
aF1.2169999999999959
aa(lp22
S'1HB'
p23
aF-0.8817999999999999
aF-1.6584000000000174
aF1.513999999999993
aa(lp24
S'2HB'
p25
aF-0.7288000000000012
aF-0.4443999999999903
aF2.787999999999994
aa(lp26
S'HG'
p27
aF-2.968800000000003
aF-0.358400000000006
aF0.7499999999999829
aa(lp28
S'1HD1'
p29
aF-4.351799999999999
aF-1.5094000000000165
aF2.4189999999999943
aa(lp30
S'2HD1'
p31
aF-3.0178000000000025
aF-2.5394000000000174
aF1.847999999999996
aa(lp32
S'3HD1'
p33
aF-2.9167999999999963
aF-1.7534000000000163
aF3.4409999999999856
aa(lp34
S'1HD2'
p35
aF-4.0428000000000015
aF0.9785999999999972
aF2.5299999999999843
aa(lp36
S'2HD2'
p37
aF-2.6028000000000033
aF0.7715999999999894
aF3.55499999999999
aa(lp38
S'3HD2'
p39
aF-2.488799999999999
aF1.6966000000000008
aF2.038999999999999
aaa(lp40
(lp41
S'N'
p42
aF-0.9956683250215947
aF0.36089668134421116
aF-0.45705445183635085
aa(lp43
S'H'
p44
aF-1.5741736614824124
aF-0.4250845620175284
aF-0.7165521604387302
aa(lp45
S'CA'
p46
aF-0.3000796424452067
aF0.33980321639371036
aF0.8237325915116191
aa(lp47
S'C'
p48
aF1.0992825194732607
aF-0.24349026242861996
aF0.6802987832437775
aa(lp49
S'O'
p50
aF1.7706391094759617
aF-0.0321250732917695
aF-0.3304247624803206
aa(lp51
S'CB'
p52
aF-1.0987578152345026
aF-0.4772539048009757
aF1.8477037029278587
aa(lp53
S'CG'
p54
aF-2.366089798172736
aF0.19437662040294246
aF2.391235746726707
aa(lp55
S'CD1'
p56
aF-1.9952989332250988
aF1.5092795872472453
aF3.0653821123294818
aa(lp57
S'CD2'
p58
aF-3.3491891914619387
aF0.42198896498608063
aF1.2533806577510627
aa(lp59
S'HA'
p60
aF-0.2100179662987926
aF1.3638362116644658
aF1.1855589574476861
aa(lp61
S'1HB'
p62
aF-1.394770950654514
aF-1.417679714578648
aF1.3852650367646255
aa(lp63
S'2HB'
p64
aF-0.4516874885447728
aF-0.7002976009552233
aF2.6951236117826705
aa(lp65
S'HG'
p66
aF-2.8234916170718414
aF-0.4483512133128843
aF3.143737246947632
aa(lp67
S'1HD1'
p68
aF-2.895579121415346
aF1.9863030253731224
aF3.451653030508297
aa(lp69
S'2HD1'
p70
aF-1.3062164892231458
aF1.3149639048230988
aF3.8873917235459983
aa(lp71
S'3HD1'
p72
aF-1.5187577050161516
aF2.168217947878855
aF2.339711598456116
aa(lp73
S'1HD2'
p74
aF-4.250273359377629
aF0.8986669739285553
aF1.6401356165070262
aa(lp75
S'2HD2'
p76
aF-2.892311438506269
aF1.0660286799340897
aF0.5009449034013205
aa(lp77
S'3HD2'
p78
aF-3.610463099844706
aF-0.5348328539359887
aF0.8018211914201453
aaa(lp79
(lp80
S'N'
p81
aF-0.9486213109478441
aF0.332075311117968
aF-0.4705202186532391
aa(lp82
S'H'
p83
aF-1.6182704435941018
aF-0.37608994399038964
aF-0.7365597093373013
aa(lp84
S'CA'
p85
aF-0.3172575269555965
aF0.25530870663659555
aF0.8410866815647301
aa(lp86
S'C'
p87
aF1.149676200489119
aF-0.1366498616043857
aF0.7238692764252463
aa(lp88
S'O'
p89
aF1.7344730810084386
aF-0.07464421215977934
aF-0.3578760299994359
aa(lp90
S'CB'
p91
aF-1.0545343356223942
aF-0.7566216232010231
aF1.7264803312803991
aa(lp92
S'CG'
p93
aF-0.8507557342293645
aF-2.2322986263403055
aF1.3601776367500793
aa(lp94
S'CD1'
p95
aF-0.18243356538694733
aF-2.9562763642989855
aF2.5208381011297343
aa(lp96
S'CD2'
p97
aF-2.1942700148962153
aF-2.861999743690299
aF1.0246245404264025
aa(lp98
S'HA'
p99
aF-0.37447604170281934
aF1.2377406264958115
aF1.3094012813925084
aa(lp100
S'1HB'
p101
aF-0.7256305131464196
aF-0.6227336899196223
aF2.754805327029474
aa(lp102
S'2HB'
p103
aF-2.1232623313133385
aF-0.5480560762477041
aF1.677288016326899
aa(lp104
S'HG'
p105
aF-0.19025878113850725
aF-2.305287670812977
aF0.4959453911443808
aa(lp106
S'1HD1'
p107
aF-0.036801478657238595
aF-4.005231236219898
aF2.260087315918798
aa(lp108
S'2HD1'
p109
aF0.7854631902095897
aF-2.49720424946365
aF2.726363437490763
aa(lp110
S'3HD1'
p111
aF-0.8127928916456617
aF-2.885852056692213
aF3.4059304899213076
aa(lp112
S'1HD2'
p113
aF-2.049879358772805
aF-3.911600735305323
aF0.7636703359670567
aa(lp114
S'2HD2'
p115
aF-2.855654909952507
aF-2.7918638710247476
aF1.888590384633692
aa(lp116
S'3HD2'
p117
aF-2.642346638384951
aF-2.337424022065016
aF0.18064014971514397
aaa(lp118
(lp119
S'N'
p120
aF-0.9454847521029349
aF0.31630855946602277
aF-0.4865468515460632
aa(lp121
S'H'
p122
aF-1.6493898126256177
aF-0.37010652312415937
aF-0.7170181082425916
aa(lp123
S'CA'
p124
aF-0.31130041936395864
aF0.2685379350805938
aF0.8256250882370746
aa(lp125
S'C'
p126
aF1.1444274276766357
aF-0.16712773989877577
aF0.717899255702191
aa(lp127
S'O'
p128
aF1.7617475564158616
aF-0.047612231523679174
aF-0.3399593841506129
aa(lp129
S'CB'
p130
aF-1.0730192621193888
aF-0.6916348416336777
aF1.7477436508135638
aa(lp131
S'CG'
p132
aF-1.567187612919182
aF-1.9886232243043576
aF1.0958358534333597
aa(lp133
S'CD1'
p134
aF-0.5436361431410247
aF-2.466243800396294
aF0.07472764466771528
aa(lp135
S'CD2'
p136
aF-1.800340717321369
aF-3.040272413924305
aF2.1702019976688005
aa(lp137
S'HA'
p138
aF-0.3390731686521903
aF1.2678503013526177
aF1.2594331898359055
aa(lp139
S'1HB'
p140
aF-0.4229697438249791
aF-0.9650834228703625
aF2.5773528944848545
aa(lp141
S'2HB'
p142
aF-1.9410418816020751
aF-0.17072865139053686
aF2.150946419941942
aa(lp143
S'HG'
p144
aF-2.501530915436553
aF-1.797294789907654
aF0.5667167522545793
aa(lp145
S'1HD1'
p146
aF-0.8949239835700785
aF-3.3883518284967864
aF-0.3885008493601443
aa(lp147
S'2HD1'
p148
aF-0.4109412839357751
aF-1.7033445022282871
aF-0.6918242030211776
aa(lp149
S'3HD1'
p150
aF0.40747098734706777
aF-2.6512444289435124
aF0.572542865178135
aa(lp151
S'1HD2'
p152
aF-2.152883612516402
aF-3.9618454288528357
aF1.706601215526406
aa(lp153
S'2HD2'
p154
aF-0.8665195869768321
aF-3.2336665903667856
aF2.6981127752062424
aa(lp155
S'3HD2'
p156
aF-2.549208593691999
aF-2.679887295562301
aF2.875787194653082
aaa(lp157
(lp158
S'N'
p159
aF-0.9348322881963248
aF0.3082307179119713
aF-0.4872673778133501
aa(lp160
S'H'
p161
aF-1.659338966588044
aF-0.35439064567021417
aF-0.7254647780726329
aa(lp162
S'CA'
p163
aF-0.3158580400071755
aF0.23970856772165572
aF0.8311990021190202
aa(lp164
S'C'
p165
aF1.1590672249366305
aF-0.12851195230240348
aF0.7295126634905802
aa(lp166
S'O'
p167
aF1.7509620698549087
aF-0.06503668766100323
aF-0.3479795097236253
aa(lp168
S'CB'
p169
aF-1.046235433795167
aF-0.7850601310270118
aF1.7075978706192165
aa(lp170
S'CG'
p171
aF-0.7772273229048756
aF-0.6831954115961971
aF3.2137901608698725
aa(lp172
S'CD1'
p173
aF-1.365187300254962
aF0.6156521795082919
aF3.748912576880027
aa(lp174
S'CD2'
p175
aF-1.3819666573618208
aF-1.888164277430482
aF3.9207281848370465
aa(lp176
S'HA'
p177
aF-0.39264026112980843
aF1.22116878446283
aF1.300014886527646
aa(lp178
S'1HB'
p179
aF-2.118555189554355
aF-0.6722663248133682
aF1.5537768750159193
aa(lp180
S'2HB'
p181
aF-0.7573924729190588
aF-1.785686212556342
aF1.386501017760797
aa(lp182
S'HG'
p183
aF0.29817666519509334
aF-0.6607380947971204
aF3.3920369877725367
aa(lp184
S'1HD1'
p185
aF-1.1741325342513675
aF0.6879854805841221
aF4.8198518701841735
aa(lp186
S'2HD1'
p187
aF-0.9016444745509923
aF1.4614749118517156
aF3.240837824319457
aa(lp188
S'3HD1'
p189
aF-2.439463674080003
aF0.628757837184071
aF3.570608021755356
aa(lp190
S'1HD2'
p191
aF-1.189670336867927
aF-1.8168835928463583
aF4.991075413137158
aa(lp192
S'2HD2'
p193
aF-2.45748362596024
aF-1.9114287801146768
aF3.7453685168066726
aa(lp194
S'3HD2'
p195
aF-0.9311247791010595
aF-2.801919188869848
aF3.53154498552502
aaa(lp196
(lp197
S'N'
p198
aF-0.9117124427744082
aF0.2633268651247007
aF-0.5084001020789827
aa(lp199
S'H'
p200
aF-1.7186769303702918
aF-0.3077796912531349
aF-0.7156454084706185
aa(lp201
S'CA'
p202
aF-0.3158481406221325
aF0.19656063065260623
aF0.8205385734643996
aa(lp203
S'C'
p204
aF1.1780062161134555
aF-0.08663899350068544
aF0.7418865948399707
aa(lp205
S'O'
p206
aF1.7682312976533738
aF-0.06546881102348923
aF-0.3383796577547676
aa(lp207
S'CB'
p208
aF-1.0063734234746122
aF-0.8892842432936913
aF1.656342822954704
aa(lp209
S'CG'
p210
aF-0.7209963293926438
aF-2.3356112194912404
aF1.232896023348677
aa(lp211
S'CD1'
p212
aF-0.5901773358130792
aF-2.405963374392705
aF-0.28210429520559643
aa(lp213
S'CD2'
p214
aF0.5490219771480369
aF-2.8232793890193157
aF1.9143387997288217
aa(lp215
S'HA'
p216
aF-0.45778665838588145
aF1.1593348050155055
aF1.3112985416309855
aa(lp217
S'1HB'
p218
aF-0.6933497226291303
aF-0.7794343447733801
aF2.693384366242183
aa(lp219
S'2HB'
p220
aF-2.083725510437953
aF-0.7349099357502425
aF1.606352284987845
aa(lp221
S'HG'
p222
aF-1.5572014537761962
aF-2.9715975845259166
aF1.5260791290090583
aa(lp223
S'1HD1'
p224
aF-0.3889094233427477
aF-3.43358268693942
aF-0.582829711309479
aa(lp225
S'2HD1'
p226
aF-1.5190575247729137
aF-2.0695065173961433
aF-0.7425653445224071
aa(lp227
S'3HD1'
p228
aF0.22826072565534627
aF-1.7652733300294812
aF-0.6067231587881927
aa(lp229
S'1HD2'
p230
aF0.750203926937016
aF-3.8520388135106867
aF1.6144457027771093
aa(lp231
S'2HD2'
p232
aF1.385803602226066
aF-2.1890246757587453
aF1.622447603152898
aa(lp233
S'3HD2'
p234
aF0.4213590204382447
aF-2.779795596269935
aF2.9963782302729407
aaa(lp235
(lp236
S'N'
p237
aF-0.9440912765711381
aF0.2878006733090544
aF-0.5098847653589286
aa(lp238
S'H'
p239
aF-1.7011399367001112
aF-0.3567490163159973
aF-0.6866898099735581
aa(lp240
S'CA'
p241
aF-0.29998996381300114
aF0.2859329954277811
aF0.7986682563725451
aa(lp242
S'C'
p243
aF1.136828447819571
aF-0.2098107882428166
aF0.7042651158229245
aa(lp244
S'O'
p245
aF1.8083927292646982
aF-0.007173864178026679
aF-0.30635879686300826
aa(lp246
S'CB'
p247
aF-1.0892571687344563
aF-0.5943847283001408
aF1.7759491701972074
aa(lp248
S'CG'
p249
aF-1.3979625229927013
aF0.03663189814448886
aF3.139673857002687
aa(lp250
S'CD1'
p251
aF-0.28021397245263624
aF-0.2952840312523358
aF4.118793356133513
aa(lp252
S'CD2'
p253
aF-1.5545742571083703
aF1.5417344714118861
aF2.978186988554652
aa(lp254
S'HA'
p255
aF-0.28759776527292535
aF1.3068384498912364
aF1.178579412384204
aa(lp256
S'1HB'
p257
aF-2.0372035001913575
aF-0.8645998143069005
aF1.313652122865317
aa(lp258
S'2HB'
p259
aF-0.5229687049440734
aF-1.508129444928075
aF1.9550105245215483
aa(lp260
S'HG'
p261
aF-2.3235776341934913
aF-0.38354086555327627
aF3.533508231535104
aa(lp262
S'1HD1'
p263
aF-0.5003261088310749
aF0.15312075557097587
aF5.087648244428387
aa(lp264
S'2HD1'
p265
aF-0.20370614895541755
aF-1.3769044860292423
aF4.230277636424147
aa(lp266
S'3HD1'
p267
aF0.6627426314033633
aF0.09953753849792096
aF3.7424401027872496
aa(lp268
S'1HD2'
p269
aF-1.775558477182721
aF1.9903275269032386
aF3.9474935680448873
aa(lp270
S'2HD2'
p271
aF-0.6294771116433131
aF1.9640592817253544
aF2.5846694844381277
aa(lp272
S'3HD2'
p273
aF-2.371898026086015
aF1.7506537782454141
aF2.2872111713972196
aaa(lp274
(lp275
S'N'
p276
aF-0.9292202181816793
aF0.30024403507520414
aF-0.49026652498834566
aa(lp277
S'H'
p278
aF-1.6703183543296545
aF-0.34468033175461277
aF-0.7251475877992011
aa(lp279
S'CA'
p280
aF-0.3168793732307486
aF0.2278440185369892
aF0.8300394725781444
aa(lp281
S'C'
p282
aF1.1641642455011652
aF-0.11516971203882015
aF0.7329190316300962
aa(lp283
S'O'
p284
aF1.7522537002409202
aF-0.06823800981876618
aF-0.34754439142069105
aa(lp285
S'CB'
p286
aF-1.0345428389005102
aF-0.8197430977945165
aF1.6911029915702713
aa(lp287
S'CG'
p288
aF-2.486353347227453
aF-1.1236507669833167
aF1.2962202538876835
aa(lp289
S'CD1'
p290
aF-2.5139014206580987
aF-2.300612047604694
aF0.3310885283867828
aa(lp291
S'CD2'
p292
aF-3.3000833564643033
aF-1.4209985121694704
aF2.5463661615721023
aa(lp293
S'HA'
p294
aF-0.4135543188368825
aF1.2011640396937835
aF1.31044356426283
aa(lp295
S'1HB'
p296
aF-0.4760695251146709
aF-1.7530158522844645
aF1.6407192291481407
aa(lp297
S'2HB'
p298
aF-1.0372849420064163
aF-0.4767874198119745
aF2.7257700316416615
aa(lp299
S'HG'
p300
aF-2.9116550337913716
aF-0.2615649153183048
aF0.7826246349763664
aa(lp301
S'1HD1'
p302
aF-3.5452204694702223
aF-2.5167875617253403
aF0.0504336395073397
aa(lp303
S'2HD1'
p304
aF-1.9403714993667651
aF-2.053098406515628
aF-0.5620679119182669
aa(lp305
S'3HD1'
p306
aF-2.0782731832735233
aF-3.1757872379347956
aF0.8123726700576681
aa(lp307
S'1HD2'
p308
aF-4.3323215718070704
aF-1.6369630344398733
aF2.2660438615200094
aa(lp309
S'2HD2'
p310
aF-2.876430170831682
aF-2.284843569640021
aF3.0595286066000202
aa(lp311
S'3HD2'
p312
aF-3.277431909941287
aF-0.5573429625862434
aF3.2096360942876663
aaa(lp313
(lp314
S'N'
p315
aF-1.0244145151423643
aF0.37727127409727346
aF-0.4421244246890842
aa(lp316
S'H'
p317
aF-1.5414502718903762
aF-0.44627318718259185
aF-0.7147221989633238
aa(lp318
S'CA'
p319
aF-0.292997700438834
aF0.37064840132123755
aF0.8189114910266975
aa(lp320
S'C'
p321
aF1.076959847336458
aF-0.2761075277653926
aF0.6579205425705478
aa(lp322
S'O'
p323
aF1.7819026401351268
aF-0.025538960470539163
aF-0.3199854099448341
aa(lp324
S'CB'
p325
aF-1.094507723259738
aF-0.37455412461610094
aF1.89340945689459
aa(lp326
S'CG'
p327
aF-1.9104445822950002
aF0.5074644804303174
aF2.8464032776613504
aa(lp328
S'CD1'
p329
aF-2.4771730882885707
aF1.6949274794746931
aF2.0796227181824163
aa(lp330
S'CD2'
p331
aF-3.0223798725627162
aF-0.31800384358363276
aF3.4761119057639362
aa(lp332
S'HA'
p333
aF-0.14948033609560984
aF1.4018698743136588
aF1.140948817700671
aa(lp334
S'1HB'
p335
aF-1.7851427329218224
aF-1.0567894616073028
aF1.3997301800461932
aa(lp336
S'2HB'
p337
aF-0.40357357430253316
aF-0.9627213500382337
aF2.496679973946449
aa(lp338
S'HG'
p339
aF-1.2591531120062085
aF0.8967557965849208
aF3.6294299003860693
aa(lp340
S'1HD1'
p341
aF-3.057664039318558
aF2.3225641990569343
aF2.7566562505900425
aa(lp342
S'2HD1'
p343
aF-1.6600185405992547
aF2.2789157475325608
aF1.6567490396903213
aa(lp344
S'3HD1'
p345
aF-3.120828016059429
aF1.3366834496884852
aF1.2776554189246307
aa(lp346
S'1HD2'
p347
aF-3.6021869023918076
aF0.3099343640428929
aF4.153809785031356
aa(lp348
S'2HD2'
p349
aF-3.6749664738162293
aF-0.7059545939420757
aF2.693810210022
aa(lp350
S'3HD2'
p351
aF-2.5884501330476937
aF-1.14848440250707
aF4.032457142478194
aaa(lp352
(lp353
S'N'
p354
aF-0.9549352654378152
aF0.3178993301703406
aF-0.48958412423245407
aa(lp355
S'H'
p356
aF-1.652744028054758
aF-0.3794588979540999
aF-0.7058372917980367
aa(lp357
S'CA'
p358
aF-0.30502310460538895
aF0.2914856719872348
aF0.8162112279814829
aa(lp359
S'C'
p360
aF1.132249969563763
aF-0.2011741132774462
aF0.7055520835274243
aa(lp361
S'O'
p362
aF1.7804524285342047
aF-0.028751990926024318
aF-0.3263418954784168
aa(lp363
S'CB'
p364
aF-1.08795582247464
aF-0.6087779704855745
aF1.779778938799699
aa(lp365
S'CG'
p366
aF-0.9183126101527177
aF-2.1187501481881865
aF1.5666306264040104
aa(lp367
S'CD1'
p368
aF-2.024336549993435
aF-2.863664750867426
aF2.3011748927450246
aa(lp369
S'CD2'
p370
aF-0.9471751770348349
aF-2.428115435117455
aF0.07681652005511869
aa(lp371
S'HA'
p372
aF-0.2910301232704121
aF1.304380555706585
aF1.2156735553773437
aa(lp373
S'1HB'
p374
aF-0.7770152564242906
aF-0.3813410439144337
aF2.7983163258484804
aa(lp375
S'2HB'
p376
aF-2.1490122013552537
aF-0.3785980136429548
aF1.6860210148428878
aa(lp377
S'HG'
p378
aF0.03544839207220213
aF-2.4402331132706125
aF1.9848765514250766
aa(lp379
S'1HD1'
p380
aF-1.9035891081245024
aF-3.936257405763328
aF2.150327115348522
aa(lp381
S'2HD1'
p382
aF-1.967678543571093
aF-2.63955683153612
aF3.3663201930685265
aa(lp383
S'3HD1'
p384
aF-2.9923624933790345
aF-2.5501105291309027
aF1.9148608715606736
aa(lp385
S'1HD2'
p386
aF-0.8253711984995746
aF-3.500489467054502
aF-0.07494555175488737
aa(lp387
S'2HD2'
p388
aF-1.9012214391942426
aF-2.1081899489392155
aF-0.3421314635338755
aa(lp389
S'3HD2'
p390
aF-0.1349267469570639
aF-1.896270176529593
aF-0.4203495575827334
aaa(lp391
(lp392
S'N'
p393
aF-1.018089127697205
aF0.35235044017274014
aF-0.4730935376590977
aa(lp394
S'H'
p395
aF-1.621887366936835
aF-0.4314535027456895
aF-0.6776028659466793
aa(lp396
S'CA'
p397
aF-0.28047736550985686
aF0.3716034846410175
aF0.7842461970831006
aa(lp398
S'C'
p399
aF1.0759092381760138
aF-0.30548796505804154
aF0.6371287267203034
aa(lp400
S'O'
p401
aF1.8445446219679091
aF0.012987542989934875
aF-0.2706785201975957
aa(lp402
S'CB'
p403
aF-1.0900499722153938
aF-0.3263953728032289
aF1.884282918960386
aa(lp404
S'CG'
p405
aF-2.115334694934006
aF-1.3600452878350837
aF1.4019136718949756
aa(lp406
S'CD1'
p407
aF-1.7254669444670836
aF-2.7395199590232773
aF1.9158424302808819
aa(lp408
S'CD2'
p409
aF-3.5014992996059693
aF-0.966599913579093
aF1.8896015087652192
aa(lp410
S'HA'
p411
aF-0.1168498348095417
aF1.4092293108994776
aF1.072530216547191
aa(lp412
S'1HB'
p413
aF-0.3993721076022636
aF-0.8330389897221652
aF2.5561015944739087
aa(lp414
S'2HB'
p415
aF-1.6274857703662402
aF0.43215434721034995
aF2.4539416634147244
aa(lp416
S'HG'
p417
aF-2.1099910640573687
aF-1.3965178025789038
aF0.31234393971748975
aa(lp418
S'1HD1'
p419
aF-2.4542435441119888
aF-3.4746056071418114
aF1.5727043272666903
aa(lp420
S'2HD1'
p421
aF-0.7382009870470796
aF-3.00411874429885
aF1.535757686900858
aa(lp422
S'3HD1'
p423
aF-1.7050245547106626
aF-2.7299436249218063
aF3.004589601356984
aa(lp424
S'1HD2'
p425
aF-4.230275899250873
aF-1.7016855616976172
aF1.5464634057510305
aa(lp426
S'2HD2'
p427
aF-3.507777233284835
aF-0.9309685853333267
aF2.9798189164395636
aa(lp428
S'3HD2'
p429
aF-3.7615533914603207
aF0.014513937860715975
aF1.4933080823464135
aaa(lp430
(lp431
S'N'
p432
aF-0.9559546364265737
aF0.33010990611668267
aF-0.47777001054708734
aa(lp433
S'H'
p434
aF-1.626534345992311
aF-0.3845732184465116
aF-0.7206215795832462
aa(lp435
S'CA'
p436
aF-0.31023981474668494
aF0.28300797421521245
aF0.828812852142476
aa(lp437
S'C'
p438
aF1.1358985201232477
aF-0.1801422920981402
aF0.7121434592688878
aa(lp439
S'O'
p440
aF1.7568302770423339
aF-0.04840236978723206
aF-0.3425647212810188
aa(lp441
S'CB'
p442
aF-1.0809315551560799
aF-0.6537206724403806
aF1.7670130886589248
aa(lp443
S'CG'
p444
aF-1.7112939055693337
aF0.00892281948669793
aF2.9984528597351137
aa(lp445
S'CD1'
p446
aF-1.1960600658090275
aF1.4361352241350742
aF3.127943563585414
aa(lp447
S'CD2'
p448
aF-3.2269340977953482
aF-0.016379413551321775
aF2.8689360472651604
aa(lp449
S'HA'
p450
aF-0.3162116098913681
aF1.2865807172632555
aF1.2523598826760176
aa(lp451
S'1HB'
p452
aF-1.8801384898699638
aF-1.1307943431998635
aF1.2025549518823178
aa(lp453
S'2HB'
p454
aF-0.39986410538769607
aF-1.4294041718200643
aF2.1197342783485604
aa(lp455
S'HG'
p456
aF-1.4151039236719694
aF-0.5352498648130943
aF3.8962154031092493
aa(lp457
S'1HD1'
p458
aF-1.643819819922777
aF1.9068673450919211
aF4.00316666251246
aa(lp459
S'2HD1'
p460
aF-0.11153996853997256
aF1.4228952043070555
aF3.238514176744964
aa(lp461
S'3HD1'
p462
aF-1.4636616627730494
aF2.0011880848565373
aF2.2351531907134863
aa(lp463
S'1HD2'
p464
aF-3.675011838120978
aF0.4538747209678
aF3.7449779341589036
aa(lp465
S'2HD2'
p466
aF-3.524477825973551
aF0.5282660035954624
aF1.9721450463051724
aa(lp467
S'3HD2'
p468
aF-3.5689955105413063
aF-1.0485085217680816
aF2.7967384442446037
aaa(lp469
(lp470
S'N'
p471
aF-0.9493991864934164
aF0.3165424398685063
aF-0.487797938133955
aa(lp472
S'H'
p473
aF-1.650913288331127
aF-0.37370309005897084
aF-0.7121036967269003
aa(lp474
S'CA'
p475
aF-0.30854185309011406
aF0.2781899988315092
aF0.8212551427186537
aa(lp476
S'C'
p477
aF1.1390723190885108
aF-0.18161485469077115
aF0.7129052226221574
aa(lp478
S'O'
p479
aF1.769782008826103
aF-0.039414493950348684
aF-0.33425873047994414
aa(lp480
S'CB'
p481
aF-1.0801376002519614
aF-0.6563448612547991
aF1.7610964049779805
aa(lp482
S'CG'
p483
aF-2.455711513868895
aF-0.15530387970816495
aF2.2171801067119894
aa(lp484
S'CD1'
p485
aF-3.476355962799448
aF-0.3969663186346637
aF1.1133693555053634
aa(lp486
S'CD2'
p487
aF-2.8578395517184783
aF-0.8683922898693892
aF3.4997400314207567
aa(lp488
S'HA'
p489
aF-0.31966027540814
aF1.283690425299817
aF1.2409124708534112
aa(lp490
S'1HB'
p491
aF-1.2259457845976258
aF-1.6112269963563377
aF1.2588205032648327
aa(lp492
S'2HB'
p493
aF-0.47733901983495663
aF-0.8270545910848345
aF2.6534360598116096
aa(lp494
S'HG'
p495
aF-2.4096157051888145
aF0.9187250077433744
aF2.398880754321566
aa(lp496
S'1HD1'
p497
aF-4.454390295303878
aF-0.039566654376370636
aF1.4377585113516544
aa(lp498
S'2HD1'
p499
aF-3.1745780338861853
aF0.1404718261698361
aF0.21427630018242827
aa(lp500
S'3HD1'
p501
aF-3.5324502487978657
aF-1.4628019714000469
aF0.8975087700051468
aa(lp502
S'1HD2'
p503
aF-3.835873884222913
aF-0.5109926256111095
aF3.824129187267051
aa(lp504
S'2HD2'
p505
aF-2.9051338999745857
aF-1.9429702827243136
aF3.318551229628484
aa(lp506
S'3HD2'
p507
aF-2.1206461814393274
aF-0.6647754564995276
aF4.27607251173115
aaa(lp508
(lp509
S'N'
p510
aF-0.9520140291292465
aF0.3379739553691623
aF-0.4654790369428087
aa(lp511
S'H'
p512
aF-1.607095075807525
aF-0.3801411133564425
aF-0.7411302120756664
aa(lp513
S'CA'
p514
aF-0.3184801728371224
aF0.2558565617785919
aF0.8446322509260914
aa(lp515
S'C'
p516
aF1.149564301049562
aF-0.13345116686475236
aF0.7234632981809729
aa(lp517
S'O'
p518
aF1.7280249767243516
aF-0.08023823692656173
aF-0.36148630008857097
aa(lp519
S'CB'
p520
aF-1.052330777796583
aF-0.7629233639667465
aF1.725473185771286
aa(lp521
S'CG'
p522
aF-0.9852554006679951
aF-2.2211758553012446
aF1.2542518308861836
aa(lp523
S'CD1'
p524
aF-1.3002849445296754
aF-3.147845181771297
aF2.419997234425841
aa(lp525
S'CD2'
p526
aF-1.965639067034013
aF-2.43020888775628
aF0.1093574872608093
aa(lp527
S'HA'
p528
aF-0.3759331620631514
aF1.234634933001621
aF1.3184951573188723
aa(lp529
S'1HB'
p530
aF-0.6329156648174716
aF-0.7200824038836049
aF2.729185104174119
aa(lp531
S'2HB'
p532
aF-2.1037268181879316
aF-0.4806484428167181
aF1.7812964348627427
aa(lp533
S'HG'
p534
aF0.025289916890353203
aF-2.4465745686151306
aF0.9110032603176428
aa(lp535
S'1HD1'
p536
aF-1.2523674769861743
aF-4.183915109863629
aF2.0850434758158167
aa(lp537
S'2HD1'
p538
aF-0.5713971476426043
aF-2.9905693861398097
aF3.2157540463084597
aa(lp539
S'3HD1'
p540
aF-2.3001032577363505
aF-2.9334254807464157
aF2.795283168599969
aa(lp541
S'1HD2'
p542
aF-1.9177994567633228
aF-3.466899932092496
aF-0.2263761129078885
aa(lp543
S'2HD2'
p544
aF-2.977298003939611
aF-2.206222607196694
aF0.4512775678353873
aa(lp545
S'3HD2'
p546
aF-1.7075326941779625
aF-1.76797344053728
aF-0.716990691618863
aaa(lp547
(lp548
S'N'
p549
aF-0.968817759925263
aF0.35510260238419855
aF-0.4536962528315036
aa(lp550
S'H'
p551
aF-1.5718719525506444
aF-0.401149733128461
aF-0.7433357628928882
aa(lp552
S'CA'
p553
aF-0.3162760543680916
aF0.2839741720285033
aF0.8475662375614402
aa(lp554
S'C'
p555
aF1.1338117895083353
aF-0.16224052260411315
aF0.7135077005870646
aa(lp556
S'O'
p557
aF1.7231539773357087
aF-0.07568651868011428
aF-0.3640419224241507
aa(lp558
S'CB'
p559
aF-1.0722770569639863
aF-0.6819651491730797
aF1.768025748800608
aa(lp560
S'CG'
p561
aF-0.3709752561759293
aF-1.0303293568428171
aF3.0869454442430735
aa(lp562
S'CD1'
p563
aF0.4781147612233837
aF-2.2795109237775213
aF2.896568042266434
aa(lp564
S'CD2'
p565
aF0.48183999703795244
aF0.14723076308589422
aF3.535909037242837
aa(lp566
S'HA'
p567
aF-0.3292487280988196
aF1.2774959708601799
aF1.2961274318064977
aa(lp568
S'1HB'
p569
aF-2.038305628208151
aF-0.2439726489444889
aF2.0127324493290146
aa(lp570
S'2HB'
p571
aF-1.2453186215693608
aF-1.6128728581402052
aF1.2287331989684205
aa(lp572
S'HG'
p573
aF-1.117952659591505
aF-1.2489208666300762
aF3.8504469246839634
aa(lp574
S'1HD1'
p575
aF0.9762183722230662
aF-2.528025456504291
aF3.8337096109382554
aa(lp576
S'2HD1'
p577
aF-0.15948422582143956
aF-3.110729129933222
aF2.5946494680204815
aa(lp578
S'3HD1'
p579
aF1.2256536772952193
aF-2.0971900690528305
aF2.125709640943197
aa(lp580
S'1HD2'
p581
aF0.979640678858247
aF-0.10015382746460078
aF4.473845253377714
aa(lp582
S'2HD2'
p583
aF1.2306902925440202
aF0.3649620887206557
aF2.774344657326217
aa(lp584
S'3HD2'
p585
aF-0.15272974024501984
aF1.0208273564807318
aF3.681453671405522
aaa(lp586
(lp587
S'N'
p588
aF-0.966499055458744
aF0.3183035197837225
aF-0.49361175542183167
aa(lp589
S'H'
p590
aF-1.662055918032146
aF-0.3880100698119757
aF-0.6899730654589169
aa(lp591
S'CA'
p592
aF-0.2972380119070027
aF0.3144823054382524
aF0.800939925240234
aa(lp593
S'C'
p594
aF1.1179902655812226
aF-0.23798840423025563
aF0.6879840154520873
aa(lp595
S'O'
p596
aF1.8078027198167108
aF-0.006787351179735279
aF-0.3053391198115333
aa(lp597
S'CB'
p598
aF-1.0975949034394339
aF-0.5170498796107938
aF1.8101520295097453
aa(lp599
S'CG'
p600
aF-2.511307099480312
aF-0.006400688368920465
aF2.1209706747827024
aa(lp601
S'CD1'
p602
aF-2.8811040776575165
aF-0.37251543411177823
aF3.551958511167289
aa(lp603
S'CD2'
p604
aF-2.5642575744088405
aF1.4997397980617149
aF1.9103618375053137
aa(lp605
S'HA'
p606
aF-0.23738785391447592
aF1.3404536172090271
aF1.1616694998686712
aa(lp607
S'1HB'
p608
aF-1.1896488956729665
aF-1.5329557454670468
aF1.4291345309185068
aa(lp609
S'2HB'
p610
aF-0.5444242471081124
aF-0.5526008466261786
aF2.7486387655472004
aa(lp611
S'HG'
p612
aF-3.2272311529887494
aF-0.49148221771982015
aF1.456927257911009
aa(lp613
S'1HD1'
p614
aF-3.885069822074225
aF-0.009850736897250523
aF3.772430961673212
aa(lp615
S'2HD1'
p616
aF-2.8540565597188503
aF-1.4556319221541025
aF3.668920492615199
aa(lp617
S'3HD1'
p618
aF-2.1709428262577606
aF0.08565147876698495
aF4.239053902618482
aa(lp619
S'1HD2'
p620
aF-3.5690143224473787
aF1.8621934726334093
aF2.1302600209005
aa(lp621
S'2HD2'
p622
aF-1.8497342388753077
aF1.984804548292257
aF2.574599438866325
aa(lp623
S'3HD2'
p624
aF-2.3129111795620103
aF1.73087023295988
aF0.8749731607943529
aaa(lp625
(lp626
S'N'
p627
aF-0.9651443518290344
aF0.35665599164268913
aF-0.4487056092338089
aa(lp628
S'H'
p629
aF-1.566368361753765
aF-0.3952670958685749
aF-0.7546441003681473
aa(lp630
S'CA'
p631
aF-0.32052671950667344
aF0.2644199560635049
aF0.8562390722909481
aa(lp632
S'C'
p633
aF1.144088444608974
aF-0.13125886813091725
aF0.7198987293010095
aa(lp634
S'O'
p635
aF1.7079509884804995
aF-0.09454998370670023
aF-0.3727880919900046
aa(lp636
S'CB'
p637
aF-1.0526821793383896
aF-0.7559361702737935
aF1.7376900114160654
aa(lp638
S'CG'
p639
aF-2.095856856806586
aF-0.17548320851132881
aF2.7003955486756714
aa(lp640
S'CD1'
p641
aF-2.5656254608017104
aF-1.2632735100446688
aF3.6568649515268428
aa(lp642
S'CD2'
p643
aF-1.4908008926693184
aF0.9955578431733907
aF3.460067935649864
aa(lp644
S'HA'
p645
aF-0.3696091735670564
aF1.2407183727527724
aF1.3359538982797234
aa(lp646
S'1HB'
p647
aF-1.55895788480238
aF-1.4720055280499773
aF1.0924694406722752
aa(lp648
S'2HB'
p649
aF-0.3140415707748867
aF-1.2934415610039773
aF2.3332124764137596
aa(lp650
S'HG'
p651
aF-2.9625810563280566
aF0.16825267327528132
aF2.1348225599852215
aa(lp652
S'1HD1'
p653
aF-3.307723561082528
aF-0.8509737825219474
aF4.341134886745608
aa(lp654
S'2HD1'
p655
aF-3.0119718312657975
aF-2.0797452117039397
aF3.0886758298753016
aa(lp656
S'3HD1'
p657
aF-1.7164638517834936
aF-1.6386809145233399
aF4.22649627302539
aa(lp658
S'1HD2'
p659
aF-2.2318418999847185
aF1.4087489238686366
aF4.144041148802888
aa(lp660
S'2HD2'
p661
aF-0.6250326803574333
aF0.6524710831416239
aF4.027555272637384
aa(lp662
S'3HD2'
p663
aF-1.1794547465094636
aF1.7655070006041924
aF2.753745153741334
aaa(lp664
(lp665
S'N'
p666
aF-0.9192166469870474
aF0.28581785124016196
aF-0.4936850330062174
aa(lp667
S'H'
p668
aF-1.6908226240973014
aF-0.32098345320694965
aF-0.7303670834642373
aa(lp669
S'CA'
p670
aF-0.3197903162743318
aF0.18918640820266927
aF0.831650561575314
aa(lp671
S'C'
p672
aF1.1792023078345832
aF-0.06651752933624444
aF0.7416471772268797
aa(lp673
S'O'
p674
aF1.7506272795240965
aF-0.08750327689963411
aF-0.34924562233174156
aa(lp675
S'CB'
p676
aF-0.9883254393026618
aF-0.9341545379059168
aF1.63523684074723
aa(lp677
S'CG'
p678
aF-2.350490909210233
aF-0.5907494280365955
aF2.2500800427972525
aa(lp679
S'CD1'
p680
aF-3.3546222927627127
aF-1.6818879063718175
aF1.9027027469627678
aa(lp681
S'CD2'
p682
aF-2.2041614632322304
aF-0.4434465143274775
aF3.7578991781223667
aa(lp683
S'HA'
p684
aF-0.47654365458308046
aF1.1338091592878008
aF1.351810391878866
aa(lp685
S'1HB'
p686
aF-1.1270643317640139
aF-1.7936294249181177
aF0.9808451856094509
aa(lp687
S'2HB'
p688
aF-0.321134059285882
aF-1.225223217067482
aF2.4464770557528994
aa(lp689
S'HG'
p690
aF-2.7160140228142176
aF0.3456043277020793
aF1.8278982128527086
aa(lp691
S'1HD1'
p692
aF-4.322971428285108
aF-1.4382418525490488
aF2.340092221218408
aa(lp693
S'2HD1'
p694
aF-3.4540796928865887
aF-1.7526619359793596
aF0.8193578054535031
aa(lp695
S'3HD1'
p696
aF-3.006999197265454
aF-2.635397979070576
aF2.2989182498635397
aa(lp697
S'1HD2'
p698
aF-3.17266684735083
aF-0.1980754893635619
aF4.19529645868255
aa(lp699
S'2HD2'
p700
aF-1.8404829374389193
aF-1.3788136812372662
aF4.181355424910581
aa(lp701
S'3HD2'
p702
aF-1.4944676096908807
aF0.3549303745588661
aF3.9771546855510063
aaa(lp703
(lp704
S'N'
p705
aF-0.9577414751987781
aF0.31754685300822616
aF-0.4909986383164706
aa(lp706
S'H'
p707
aF-1.6566441412751716
aF-0.38173312433551637
aF-0.7006258708923483
aa(lp708
S'CA'
p709
aF-0.3022002459081421
aF0.29828659784449274
aF0.810672879106872
aa(lp710
S'C'
p711
aF1.1278395196983242
aF-0.2126610757130416
aF0.7007104142820001
aa(lp712
S'O'
p713
aF1.788746342683801
aF-0.021439250804174748
aF-0.3197587841800503
aa(lp714
S'CB'
p715
aF-1.0921214013651943
aF-0.5803853418999283
aF1.7893133598081223
aa(lp716
S'CG'
p717
aF-0.6953836073216764
aF-0.4549224351381711
aF3.2655156433060055
aa(lp718
S'CD1'
p719
aF-0.2410168972702541
aF0.9690219119500731
aF3.5503074781475976
aa(lp720
S'CD2'
p721
aF-1.8787195130203898
aF-0.8371988705050617
aF4.143268376851961
aa(lp722
S'HA'
p723
aF-0.27479732244889865
aF1.316059610569361
aF1.198264383599415
aa(lp724
S'1HB'
p725
aF-2.1486883652650297
aF-0.3284133096578954
aF1.706764309157593
aa(lp726
S'2HB'
p727
aF-0.9652615316602748
aF-1.6237542337532678
aF1.499137673419348
aa(lp728
S'HG'
p729
aF0.14217930827727604
aF-1.1204612214211034
aF3.4754215421426577
aa(lp730
S'1HD1'
p731
aF0.04126356577259327
aF1.0584216434053844
aF4.599417304714898
aa(lp732
S'2HD1'
p733
aF0.6181282038215534
aF1.2102653337868217
aF2.9233016514677876
aa(lp734
S'3HD1'
p735
aF-1.0541714193328209
aF1.6616210852528153
aF3.333404024072834
aa(lp736
S'1HD2'
p737
aF-1.5961323805069414
aF-0.7489504016572146
aF5.193140140584953
aa(lp738
S'2HD2'
p739
aF-2.715643282955349
aF-0.171662074932855
aF3.935727110937603
aa(lp740
S'3HD2'
p741
aF-2.1706395222187633
aF-1.866036984338041
aF3.932043748188022
aaa(lp742
(lp743
S'N'
p744
aF-0.9642233443266637
aF0.355027068321489
aF-0.4504867623077844
aa(lp745
S'H'
p746
aF-1.5704959911901062
aF-0.39424064454961105
aF-0.7529109215842953
aa(lp747
S'CA'
p748
aF-0.3204089439176825
aF0.26459863100729075
aF0.8546472214467327
aa(lp749
S'C'
p750
aF1.1442435002779126
aF-0.13312463152023052
aF0.720697887158241
aa(lp751
S'O'
p752
aF1.7108847791565416
aF-0.09226042325894948
aF-0.3719474247128947
aa(lp753
S'CB'
p754
aF-1.0533453459224447
aF-0.7526336210214677
aF1.7383682045906277
aa(lp755
S'CG'
p756
aF-1.0854258459551365
aF-2.1920062951525243
aF1.2093264798822052
aa(lp757
S'CD1'
p758
aF0.17335329436046387
aF-2.9252196706668547
aF1.6532253668747292
aa(lp759
S'CD2'
p760
aF-2.335853255178801
aF-2.89303970413329
aF1.7188678950341054
aa(lp761
S'HA'
p762
aF-0.36854897912328033
aF1.2420866210492671
aF1.3322671187857167
aa(lp763
S'1HB'
p764
aF-0.5766748578511065
aF-0.7697844531657564
aF2.7163564942744
aa(lp765
S'2HB'
p766
aF-2.0841533628889986
aF-0.42306962424363304
aF1.8650149739347495
aa(lp767
S'HG'
p768
aF-1.0965532323464486
aF-2.1791344876292684
aF0.1186292268173676
aa(lp769
S'1HD1'
p770
aF0.14986791462093274
aF-3.948214111328709
aF1.276857446730854
aa(lp771
S'2HD1'
p772
aF1.0501841216923946
aF-2.4139474395903213
aF1.257505256227787
aa(lp773
S'3HD1'
p774
aF0.2201710795713825
aF-2.9396822122897377
aF2.740978983222545
aa(lp775
S'1HD2'
p776
aF-2.35839795317758
aF-3.9162103198676386
aF1.3427899407614061
aa(lp777
S'2HD2'
p778
aF-2.325197840887261
aF-2.9080871608770944
aF2.809774415406873
aa(lp779
S'3HD2'
p780
aF-3.2198333049858228
aF-2.3590522233270255
aF1.3726863792286625
aaa(lp781
(lp782
S'N'
p783
aF-0.974932357229371
aF0.32947820917530585
aF-0.485603921427552
aa(lp784
S'H'
p785
aF-1.644084266292512
aF-0.39904887941738487
aF-0.6938393741819042
aa(lp786
S'CA'
p787
aF-0.29617539486638744
aF0.3238997107674775
aF0.8036605457781831
aa(lp788
S'C'
p789
aF1.1115504245133476
aF-0.2449872368090248
aF0.6827115551716372
aa(lp790
S'O'
p791
aF1.8036415938749202
aF-0.009341803716371777
aF-0.30692880534035716
aa(lp792
S'CB'
p793
aF-1.09896251960536
aF-0.4950554241239716
aF1.8224761912156966
aa(lp794
S'CG'
p795
aF-2.472300571010374
aF0.07552734714778064
aF2.199250523795456
aa(lp796
S'CD1'
p797
aF-2.6342339903163765
aF1.4599298132389513
aF1.5866092098175675
aa(lp798
S'CD2'
p799
aF-3.564230313942948
aF-0.8679349058825319
aF1.7160027471775294
aa(lp800
S'HA'
p801
aF-0.22240792655996333
aF1.3513330011396985
aF1.160008962997302
aa(lp802
S'1HB'
p803
aF-1.2556260223192348
aF-1.4939893809342655
aF1.4191593221800145
aa(lp804
S'2HB'
p805
aF-0.5143069822027602
aF-0.5826400681446093
aF2.7378410543802474
aa(lp806
S'HG'
p807
aF-2.5373173455807887
aF0.180012461138295
aF3.2827733338824694
aa(lp808
S'1HD1'
p809
aF-3.6093866523442406
aF1.865007768717528
aF1.8547624043263604
aa(lp810
S'2HD1'
p811
aF-1.8521660848472294
aF2.1179435822927006
aF1.9647912704322652
aa(lp812
S'3HD1'
p813
aF-2.55599942669026
aF1.3883655427328865
aF0.5023735766449775
aa(lp814
S'1HD2'
p815
aF-4.540016491592461
aF-0.46273791813695564
aF1.9849204606700859
aa(lp816
S'2HD2'
p817
aF-3.5008853355314167
aF-0.9728728456632284
aF0.6324731248299786
aa(lp818
S'3HD2'
p819
aF-3.435002402978796
aF-1.8445241405886268
aF2.1831115286021614
aaa(lp820
(lp821
S'N'
p822
aF-0.9337952596254763
aF0.2694037830281339
aF-0.5188622310316287
aa(lp823
S'H'
p824
aF-1.7235021187077422
aF-0.33920193830584533
aF-0.6826644064688605
aa(lp825
S'CA'
p826
aF-0.3011097983276718
aF0.2730617413881274
aF0.7950684088436363
aa(lp827
S'C'
p828
aF1.1449833765904596
aF-0.19865287037420082
aF0.710896831068756
aa(lp829
S'O'
p830
aF1.8134238000704328
aF-0.00461071573621652
aF-0.3044386024119051
aa(lp831
S'CB'
p832
aF-1.0826474869728688
aF-0.6247156571967041
aF1.7624068107575561
aa(lp833
S'CG'
p834
aF-1.01834527568514
aF-0.22310485196639496
aF3.241413229521778
aa(lp835
S'CD1'
p836
aF-0.5773128302915371
aF-1.4200016723011661
aF4.073733710816487
aa(lp837
S'CD2'
p838
aF-0.05659152811730034
aF0.9437873968924868
aF3.4098003091694755
aa(lp839
S'HA'
p840
aF-0.3075797472257416
aF1.2922635962208993
aF1.1790393958552765
aa(lp841
S'1HB'
p842
aF-2.129644476294613
aF-0.6263502205605551
aF1.465155010840692
aa(lp843
S'2HB'
p844
aF-0.7008553913994265
aF-1.6419540621637312
aF1.678294842419048
aa(lp845
S'HG'
p846
aF-2.0101209609919137
aF0.07197349981847934
aF3.5824568577311324
aa(lp847
S'1HD1'
p848
aF-0.5307850114417105
aF-1.1346775877656663
aF5.125324091552758
aa(lp849
S'2HD1'
p850
aF-1.2930951473108974
aF-2.232491373710895
aF3.9503231774511116
aa(lp851
S'3HD1'
p852
aF0.40801987505921433
aF-1.748779804872748
aF3.744386782321759
aa(lp853
S'1HD2'
p854
aF-0.011368158301683695
aF1.2293723278036155
aF4.460910719192611
aa(lp855
S'2HD2'
p856
aF0.9363414635836849
aF0.6490928063460635
aF3.0699868716858965
aa(lp857
S'3HD2'
p858
aF-0.4052194296767992
aF1.7908718918475781
aF2.817527192557808
aaa(lp859
(lp860
S'N'
p861
aF-0.9726365396364018
aF0.36500170930296144
aF-0.4416273021112542
aa(lp862
S'H'
p863
aF-1.5465822810992618
aF-0.4043929844757256
aF-0.7572680647542813
aa(lp864
S'CA'
p865
aF-0.3210180412510663
aF0.2756087769440658
aF0.8588884556580783
aa(lp866
S'C'
p867
aF1.137643779065825
aF-0.1409742278244296
aF0.7162199795049742
aa(lp868
S'O'
p869
aF1.702593082920872
aF-0.09524327394688309
aF-0.37621306829756884
aa(lp870
S'CB'
p871
aF-1.0598270289470508
aF-0.7259120962922433
aF1.7551418908936827
aa(lp872
S'CG'
p873
aF-1.7343710679797364
aF-0.13355163118983665
aF2.9998882179776842
aa(lp874
S'CD1'
p875
aF-3.102230681171632
aF0.4183488183346319
aF2.621942491168601
aa(lp876
S'CD2'
p877
aF-1.8547993620498766
aF-1.2073830601929225
aF4.070676753624453
aa(lp878
S'HA'
p879
aF-0.3532240973119142
aF1.2573758900490235
aF1.3300700613883412
aa(lp880
S'1HB'
p881
aF-1.8302609400962804
aF-1.2188140898859645
aF1.1639395454461412
aa(lp882
S'2HB'
p883
aF-0.34989892704356806
aF-1.4824020498146346
aF2.0915152553971668
aa(lp884
S'HG'
p885
aF-1.1340366303445522
aF0.6922818418457044
aF3.3801455490093035
aa(lp886
S'1HD1'
p887
aF-3.581281289099477
aF0.8396061320646256
aF3.505357903459421
aa(lp888
S'2HD1'
p889
aF-2.9839774844281757
aF1.197441060425561
aF1.868999956991067
aa(lp890
S'3HD1'
p891
aF-3.7205052569252857
aF-0.3837297777797323
aF2.2220419102340205
aa(lp892
S'1HD2'
p893
aF-2.333512144000789
aF-0.7865260606179959
aF4.955743111761292
aa(lp894
S'2HD2'
p895
aF-2.456065004132562
aF-2.0342310942740736
aF3.6921811047893938
aa(lp896
S'3HD2'
p897
aF-0.8617850867559601
aF-1.5718597491897408
aF4.3351486656309834
aaa(lp898
(lp899
S'N'
p900
aF-0.9616645692163521
aF0.35069242933514
aF-0.45525711012673553
aa(lp901
S'H'
p902
aF-1.5802362596384487
aF-0.39263674452953357
aF-0.7471968352242497
aa(lp903
S'CA'
p904
aF-0.31861075123422505
aF0.2677320959141431
aF0.8501594403495046
aa(lp905
S'C'
p906
aF1.1424672005876433
aF-0.1413486897513046
aF0.7195373537815963
aa(lp907
S'O'
p908
aF1.7180443795013811
aF-0.08443909096844349
aF-0.3672428487801154
aa(lp909
S'CB'
p910
aF-1.0592796943038914
aF-0.7356331414084701
aF1.7432119121027598
aa(lp911
S'CG'
p912
aF-0.7229778523764122
aF-0.6706435785722971
aF3.2387417271979144
aa(lp913
S'CD1'
p914
aF-1.9740264607205165
aF-0.3055298273079987
aF4.025587536869664
aa(lp915
S'CD2'
p916
aF-0.1634062583689806
aF-2.010470677572293
aF3.691997698990053
aa(lp917
S'HA'
p918
aF-0.35998854731941693
aF1.2509733375331118
aF1.3188528782923905
aa(lp919
S'1HB'
p920
aF-2.1306762813945768
aF-0.570163046907797
aF1.6377889497256335
aa(lp921
S'2HB'
p922
aF-0.8328800579641389
aF-1.7434780746834448
aF1.395640631446276
aa(lp923
S'HG'
p924
aF0.01872703308243906
aF0.10910125737411339
aF3.4109562843682575
aa(lp925
S'1HD1'
p926
aF-1.735326962051674
aF-0.2588864571473434
aF5.088299607637328
aa(lp927
S'2HD1'
p928
aF-2.3414710548794475
aF0.665923477247135
aF3.6942494206012686
aa(lp929
S'3HD1'
p930
aF-2.7413099669723273
aF-1.0603331616910376
aF3.8595094003249244
aa(lp931
S'1HD2'
p932
aF0.07653223239281415
aF-1.964456813003192
aF4.7544478130746475
aa(lp933
S'2HD2'
p934
aF-0.905500331496762
aF-2.791457202811747
aF3.5209262693969694
aa(lp935
S'3HD2'
p936
aF0.7396773265596457
aF-2.238633009263009
aF3.1252737899921046
aaa(lp937
(lp938
S'N'
p939
aF-0.9829113844481879
aF0.3401005900605174
aF-0.47857626243121765
aa(lp940
S'H'
p941
aF-1.6248334776950837
aF-0.40870226610599175
aF-0.6979556342928442
aa(lp942
S'CA'
p943
aF-0.2962742384750569
aF0.33135911003272417
aF0.8079671749609271
aa(lp944
S'C'
p945
aF1.1059867523762663
aF-0.24947192577129623
aF0.6793070747608623
aa(lp946
S'O'
p947
aF1.7980323482420664
aF-0.013285508215955644
aF-0.3107423529977353
aa(lp948
S'CB'
p949
aF-1.0995586449326469
aF-0.4771022754050322
aF1.8328775859716364
aa(lp950
S'CG'
p951
aF-1.2062697666523463
aF0.14089791208895763
aF3.2334008827285023
aa(lp952
S'CD1'
p953
aF-1.8649994931777232
aF-0.8527222071944355
aF4.179322764253111
aa(lp954
S'CD2'
p955
aF0.18158135899178895
aF0.527399855146107
aF3.7240438293417744
aa(lp956
S'HA'
p957
aF-0.21085305676751814
aF1.3586831070368874
aF1.1609680629131773
aa(lp958
S'1HB'
p959
aF-2.111823440530985
aF-0.6119933081913036
aF1.4536027609883428
aa(lp960
S'2HB'
p961
aF-0.6394580879598051
aF-1.4591772989736045
aF1.9385569385248602
aa(lp962
S'HG'
p963
aF-1.836330925467869
aF1.0298578720793674
aF3.191470873357058
aa(lp964
S'1HD1'
p965
aF-1.9403029156251699
aF-0.413484578331055
aF5.174705956776562
aa(lp966
S'2HD1'
p967
aF-2.8625880086926596
aF-1.096631151546605
aF3.81520385431061
aa(lp968
S'3HD1'
p969
aF-1.2641178884785926
aF-1.7602612869246876
aF4.22876076478472
aa(lp970
S'1HD2'
p971
aF0.1059185416481655
aF0.967440227255455
aF4.718951166225713
aa(lp972
S'2HD2'
p973
aF0.8121608162497097
aF-0.3607251937193643
aF3.766990839272737
aa(lp974
S'3HD2'
p975
aF0.6212354370019166
aF1.2514011162948804
aF3.0393355224372574
aaa(lp976
(lp977
S'N'
p978
aF-0.9650032545445254
aF0.3599855942928105
aF-0.4416057637985868
aa(lp979
S'H'
p980
aF-1.557042412635388
aF-0.3911110716361646
aF-0.7652312166255189
aa(lp981
S'CA'
p982
aF-0.3247717522942782
aF0.24705972631131204
aF0.8636349695019853
aa(lp983
S'C'
p984
aF1.151419161573621
aF-0.10254827062162145
aF0.7236755671940379
aa(lp985
S'O'
p986
aF1.6953982579005606
aF-0.11338597834628275
aF-0.3804735562719015
aa(lp987
S'CB'
p988
aF-1.0313739315097747
aF-0.8194251654343271
aF1.7093082728563
aa(lp989
S'CG'
p990
aF-2.563863199155651
aF-0.7641995721891276
aF1.7054640042760498
aa(lp991
S'CD1'
p992
aF-3.06494818317078
aF-0.45035894746319355
aF3.1089546173783225
aa(lp993
S'CD2'
p994
aF-3.0320334523878563
aF0.2869547968827789
aF0.7103493845615491
aa(lp995
S'HA'
p996
aF-0.4035535226873153
aF1.2070317934316022
aF1.3722478507806057
aa(lp997
S'1HB'
p998
aF-0.7342700548272907
aF-1.8031046548369056
aF1.3475266417735057
aa(lp999
S'2HB'
p1000
aF-0.6986991446930698
aF-0.7197267868816407
aF2.7434091961372076
aa(lp1001
S'HG'
p1002
aF-2.9630943025711574
aF-1.7375922012617715
aF1.419634831984829
aa(lp1003
S'1HD1'
p1004
aF-4.154605848743893
aF-0.4109091216606926
aF3.1056556627094203
aa(lp1005
S'2HD1'
p1006
aF-2.732670204118059
aF-1.2279860403084548
aF3.7968997090169396
aa(lp1007
S'3HD1'
p1008
aF-2.6692448797999306
aF0.5123067707531448
aF3.429618944475082
aa(lp1009
S'1HD2'
p1010
aF-4.121540214629607
aF0.32543588304864657
aF0.7068535245829304
aa(lp1011
S'2HD2'
p1012
aF-2.6351247883038136
aF1.2609081023203799
aF0.9967188508148315
aa(lp1013
S'3HD2'
p1014
aF-2.6750099370321974
aF0.028052418139404595
aF-0.2866525049873697
aaa(lp1015
(lp1016
S'N'
p1017
aF-1.0115248990316639
aF0.38139131365383916
aF-0.43231734236361674
aa(lp1018
S'H'
p1019
aF-1.513611771476922
aF-0.4402673563919717
aF-0.738485274153833
aa(lp1020
S'CA'
p1021
aF-0.3044510989315946
aF0.3477849036073027
aF0.842102623901754
aa(lp1022
S'C'
p1023
aF1.0935137360434202
aF-0.23368860988827986
aF0.6815664184016631
aa(lp1024
S'O'
p1025
aF1.736074033396823
aF-0.05522025098086958
aF-0.3528664257859133
aa(lp1026
S'CB'
p1027
aF-1.0946892558992687
aF-0.47904561805822055
aF1.8647560078567735
aa(lp1028
S'CG'
p1029
aF-1.67356569919672
aF0.30521141276090535
aF3.050179549467984
aa(lp1030
S'CD1'
p1031
aF-3.084043672262741
aF-0.1858352817672846
aF3.34437511586643
aa(lp1032
S'CD2'
p1033
aF-0.7696749703587636
aF0.13326013909657064
aF4.261529750609662
aa(lp1034
S'HA'
p1035
aF-0.2122192992991701
aF1.3684453577001334
aF1.212559817903414
aa(lp1036
S'1HB'
p1037
aF-1.9246708811265358
aF-0.9640141032334435
aF1.3530284727641848
aa(lp1038
S'2HB'
p1039
aF-0.44004432830160134
aF-1.2519274929116433
aF2.2665403110515303
aa(lp1040
S'HG'
p1041
aF-1.7358326926380627
aF1.3622631760996353
aF2.7912618190008356
aa(lp1042
S'1HD1'
p1043
aF-3.494378317339462
aF0.37137354997985295
aF4.1861130779857305
aa(lp1044
S'2HD1'
p1045
aF-3.71337811552027
aF-0.032963600205588195
aF2.4678111378783765
aa(lp1046
S'3HD1'
p1047
aF-3.055113321074266
aF-1.2467183286979235
aF3.591335022562391
aa(lp1048
S'1HD2'
p1049
aF-1.179864155841061
aF0.6914038452984257
aF5.104318831780409
aa(lp1050
S'2HD2'
p1051
aF-0.7075980197523067
aF-0.9235371237517844
aF4.52215015932631
aa(lp1052
S'3HD2'
p1053
aF0.22693856605732177
aF0.5086783068700191
aF4.029457222425349
aaa(lp1054
(lp1055
S'N'
p1056
aF-0.9761324632017667
aF0.37005283796005456
aF-0.43441481489625167
aa(lp1057
S'H'
p1058
aF-1.5317522499717626
aF-0.40644664066647573
aF-0.7648633165457266
aa(lp1059
S'CA'
p1060
aF-0.3226251384539319
aF0.2727074976087208
aF0.8645228515115031
aa(lp1061
S'C'
p1062
aF1.1386775916962852
aF-0.13120651097483305
aF0.7169667451469248
aa(lp1063
S'O'
p1064
aF1.6918322599312199
aF-0.10510718392744306
aF-0.38221146521641997
aa(lp1065
S'CB'
p1066
aF-1.0525791041773835
aF-0.7441083233536057
aF1.7511173440306653
aa(lp1067
S'CG'
p1068
aF-1.3164835524170415
aF-0.3000237742890372
aF3.1953729846571557
aa(lp1069
S'CD1'
p1070
aF-0.08908360687460992
aF0.4181168573470293
aF3.7393411885770074
aa(lp1071
S'CD2'
p1072
aF-2.539492189466446
aF0.6046594181749098
aF3.232443120559324
aa(lp1073
S'HA'
p1074
aF-0.3620753627570157
aF1.2493864605253573
aF1.3462851198540045
aa(lp1075
S'1HB'
p1076
aF-2.0143199732429906
aF-0.9755087385437093
aF1.2947574546683271
aa(lp1077
S'2HB'
p1078
aF-0.4623710578863903
aF-1.659473410045114
aF1.7889091441943792
aa(lp1079
S'HG'
p1080
aF-1.4949921627064866
aF-1.1759199310356983
aF3.8196210112050633
aa(lp1081
S'1HD1'
p1082
aF-0.27599749629832293
aF0.7338211910464866
aF4.765458127148765
aa(lp1083
S'2HD1'
p1084
aF0.7663861855157756
aF-0.25819065612646386
aF3.7193516531432786
aa(lp1085
S'3HD1'
p1086
aF0.12380244320985434
aF1.2916660798394033
aF3.124403561201345
aa(lp1087
S'1HD2'
p1088
aF-2.727658025547259
aF0.9200232969342179
aF4.259122837952192
aa(lp1089
S'2HD2'
p1090
aF-2.362424339867891
aF1.482467983110652
aF2.609700717985033
aa(lp1091
S'3HD2'
p1092
aF-3.405475808298136
aF0.060958376559630656
aF2.855259412982184
aaa(lp1093
(lp1094
S'N'
p1095
aF-0.9668653634524835
aF0.36108281169591017
aF-0.44157859102731256
aa(lp1096
S'H'
p1097
aF-1.5538230767332672
aF-0.39473806256951544
aF-0.7632763511140763
aa(lp1098
S'CA'
p1099
aF-0.3237964643237996
aF0.2553761535831239
aF0.8627421108723607
aa(lp1100
S'C'
p1101
aF1.1476517581883154
aF-0.1134683262025877
aF0.7217354507546818
aa(lp1102
S'O'
p1103
aF1.6968331463212496
aF-0.10825257650693432
aF-0.37962261948564413
aa(lp1104
S'CB'
p1105
aF-1.0393039015812913
aF-0.7931142193905292
aF1.7232315326613705
aa(lp1106
S'CG'
p1107
aF-1.3753911923118998
aF-2.113695374218355
aF1.0201797945062314
aa(lp1108
S'CD1'
p1109
aF-2.5265382700880523
aF-1.8943456706861748
aF0.04818848133117326
aa(lp1110
S'CD2'
p1111
aF-0.14105183364114982
aF-2.6340008986843757
aF0.29876901773171105
aa(lp1112
S'HA'
p1113
aF-0.3889685510877633
aF1.2221010689073732
aF1.3601760634712485
aa(lp1114
S'1HB'
p1115
aF-0.4109923655604413
aF-1.024724704226164
aF2.5820430352725814
aa(lp1116
S'2HB'
p1117
aF-1.9733906466258835
aF-0.3641186756044329
aF2.0881723170958733
aa(lp1118
S'HG'
p1119
aF-1.6989803567765167
aF-2.8480457198545626
aF1.760211295528366
aa(lp1120
S'1HD1'
p1121
aF-2.765235112608182
aF-2.833496979084399
aF-0.4513359297888673
aa(lp1122
S'2HD1'
p1123
aF-3.401868671713392
aF-1.5417218720141594
aF0.5939165680195346
aa(lp1124
S'3HD1'
p1125
aF-2.2374883698042423
aF-1.1520830670279025
aF-0.6949147297750371
aa(lp1126
S'1HD2'
p1127
aF-0.3797486761612783
aF-3.5731522070825994
aF-0.20075539338833048
aa(lp1128
S'2HD2'
p1129
aF0.18272218007723312
aF-1.9014498822352746
aF-0.44211585614551735
aa(lp1130
S'3HD2'
p1131
aF0.6599325463862358
aF-2.7991784875005714
aF1.0197554164279778
aaa(lp1132
(lp1133
S'N'
p1134
aF-0.9174091269174289
aF0.2829840274642652
aF-0.49336722028193347
aa(lp1135
S'H'
p1136
aF-1.6958568128584361
aF-0.3140912532402177
aF-0.7327462281851872
aa(lp1137
S'CA'
p1138
aF-0.3203587843670187
aF0.1750713016138113
aF0.8322944002155303
aa(lp1139
S'C'
p1140
aF1.1835118898016048
aF-0.04793502478349854
aF0.7425326390787258
aa(lp1141
S'O'
p1142
aF1.7501128343412657
aF-0.09602905105431803
aF-0.3487135908271737
aa(lp1143
S'CB'
p1144
aF-0.9686821090159455
aF-0.9757821278998305
aF1.6124836403956726
aa(lp1145
S'CG'
p1146
aF0.0030587069959127078
aF-1.9291634455383968
aF2.321322020898835
aa(lp1147
S'CD1'
p1148
aF-0.7701050892152383
aF-2.816370641945218
aF3.287818857351135
aa(lp1149
S'CD2'
p1150
aF0.7424807628696275
aF-2.762429421572538
aF1.285922660037853
aa(lp1151
S'HA'
p1152
aF-0.4988504567221333
aF1.1058263894853742
aF1.3688852026908078
aa(lp1153
S'1HB'
p1154
aF-1.6292503517102175
aF-0.5549292151094617
aF2.367370004386747
aa(lp1155
S'2HB'
p1156
aF-1.569029062127277
aF-1.5685015127790543
aF0.923170020424084
aa(lp1157
S'HG'
p1158
aF0.7211033354475196
aF-1.3498868063021625
aF2.902258753071079
aa(lp1159
S'1HD1'
p1160
aF-0.08039258928197102
aF-3.4927451662655007
aF3.7915322384383536
aa(lp1161
S'2HD1'
p1162
aF-1.273502657826014
aF-2.1943807567243194
aF4.029019552574548
aa(lp1163
S'3HD1'
p1164
aF-1.5094787865644268
aF-3.3962462718750785
aF2.73671016618247
aa(lp1165
S'1HD2'
p1166
aF1.4338277864995108
aF-3.4393709006465825
aF1.789553007442735
aa(lp1167
S'2HD2'
p1168
aF0.02449855303507409
aF-3.343487614929017
aF0.7063358052055457
aa(lp1169
S'3HD2'
p1170
aF1.3005356493646612
aF-2.105450678765057
aF0.6196474352560084
aaa(lp1171
(lp1172
S'N'
p1173
aF-0.9547541270670259
aF0.33845077752513664
aF-0.466890852385349
aa(lp1174
S'H'
p1175
aF-1.6067983598377222
aF-0.3844331267034988
aF-0.7366577508693081
aa(lp1176
S'CA'
p1177
aF-0.3158158819047816
aF0.2668952985211252
aF0.8414694696565194
aa(lp1178
S'C'
p1179
aF1.143781846363363
aF-0.1494439833866433
aF0.7198262455337002
aa(lp1180
S'O'
p1181
aF1.7335865224461362
aF-0.07146896595612887
aF-0.3577471119355701
aa(lp1182
S'CB'
p1183
aF-1.0637730616343526
aF-0.7235151195644638
aF1.7426471774581047
aa(lp1184
S'CG'
p1185
aF-2.186001761722178
aF-1.5212698163380138
aF1.0665812128696344
aa(lp1186
S'CD1'
p1187
aF-2.4518851773909858
aF-2.794417150518197
aF1.8581700422136076
aa(lp1188
S'CD2'
p1189
aF-3.4381483422426102
aF-0.6620440364487336
aF0.976664584459348
aa(lp1190
S'HA'
p1191
aF-0.3548709205734722
aF1.2553556502428092
aF1.2990739244303138
aa(lp1192
S'1HB'
p1193
aF-0.34581480742709986
aF-1.4363976534451006
aF2.1448417051478565
aa(lp1194
S'2HB'
p1195
aF-1.5034068413515926
aF-0.17306306735922322
aF2.5748572939278525
aa(lp1196
S'HG'
p1197
aF-1.8719606440375525
aF-1.8122782311719798
aF0.06330244856770238
aa(lp1198
S'1HD1'
p1199
aF-3.2484550659655227
aF-3.3620041995643035
aF1.3780790566999277
aa(lp1200
S'2HD1'
p1201
aF-1.54551340615611
aF-3.3993652026369308
aF1.890574772521023
aa(lp1202
S'3HD1'
p1203
aF-2.7522054472857977
aF-2.5355915252689294
aF2.873573425704439
aa(lp1204
S'1HD2'
p1205
aF-4.234712137956344
aF-1.2296011113032879
aF0.4955740668426869
aa(lp1206
S'2HD2'
p1207
aF-3.75333861342548
aF-0.3718207636637729
aF1.9789123307205467
aa(lp1208
S'3HD2'
p1209
aF-3.223629338302976
aF0.23185781450167325
aF0.3904913354824028
aaa.