(lp0
(lp1
(lp2
S'N'
p3
aF-0.44759999999999855
aF1.0816000000000088
aF-0.28500000000000225
aa(lp4
S'H'
p5
aF-1.0076000000000007
aF1.0305999999999926
aF0.5539999999999964
aa(lp6
S'CA'
p7
aF0.8854
aF0.4906000000000006
aF-0.286000000000007
aa(lp8
S'C'
p9
aF0.8244
aF-1.0054000000000087
aF-0.008999999999991851
aa(lp10
S'O'
p11
aF-0.2546000000000007
aF-1.5973999999999933
aF0.02600000000000475
aa(lp12
S'CB'
p13
aF1.7724000000000004
aF1.1826000000000079
aF0.7389999999999987
aa(lp14
S'HA'
p15
aF1.3163999999999974
aF0.630599999999987
aF-1.2769999999999926
aa(lp16
S'1HB'
p17
aF2.7634
aF0.7305999999999813
aF0.7269999999999982
aa(lp18
S'2HB'
p19
aF1.8523999999999987
aF2.2416000000000054
aF0.4939999999999941
aa(lp20
S'3HB'
p21
aF1.3364000000000005
aF1.0725999999999942
aF1.7309999999999888
aaa.