(lp0
(lp1
(lp2
S'N'
p3
aF0.030000000000000072
aF-0.003800000000000403
aF1.2406000000000001
aa(lp4
S'H'
p5
aF-0.179
aF0.7932000000000002
aF1.8236000000000003
aa(lp6
S'CA'
p7
aF-0.712
aF-0.18980000000000036
aF-0.0014000000000001125
aa(lp8
S'C'
p9
aF0.14799999999999996
aF0.1452000000000005
aF-1.2124000000000001
aa(lp10
S'O'
p11
aF0.7129999999999999
aF-0.7448
aF-1.8504
aa(lp12
S'CB'
p13
aF-1.9729999999999999
aF0.6611999999999988
aF0.003599999999999781
aa(lp14
S'HA'
p15
aF-0.995
aF-1.2398000000000011
aF-0.07239999999999983
aa(lp16
S'1HB'
p17
aF-2.517
aF0.5112000000000002
aF-0.9294000000000001
aa(lp18
S'2HB'
p19
aF-2.606
aF0.3701999999999984
aF0.8426000000000001
aa(lp20
S'3HB'
p21
aF-1.703
aF1.7111999999999994
aF0.10060000000000022
aaa.