(lp0
(lp1
(lp2
S'N'
p3
aF1.2832000000000008
aF-0.33179999999999976
aF0.078599999999998
aa(lp4
S'H'
p5
aF1.5641999999999996
aF-1.0187999999999975
aF-0.6053999999999995
aa(lp6
S'CA'
p7
aF0.2362000000000002
aF0.6231999999999985
aF-0.2623999999999995
aa(lp8
S'C'
p9
aF-0.9817999999999998
aF0.44919999999999904
aF0.6356000000000002
aa(lp10
S'O'
p11
aF-2.101800000000001
aF0.27819999999999967
aF0.15360000000000085
aa(lp12
S'CB'
p13
aF-0.17579999999999885
aF0.45620000000000405
aF-1.7303999999999995
aa(lp14
S'CG'
p15
aF-0.5077999999999996
aF1.753200000000001
aF-2.4803999999999995
aa(lp16
S'CD1'
p17
aF0.6191999999999993
aF2.7571999999999988
aF-2.2813999999999997
aa(lp18
S'CD2'
p19
aF-0.7148000000000003
aF1.4482000000000013
aF-3.9564000000000004
aa(lp20
S'HA'
p21
aF0.6262000000000008
aF1.6302000000000034
aF-0.12040000000000006
aa(lp22
S'1HB'
p23
aF0.6341999999999999
aF-0.03679999999999252
aF-2.2644
aa(lp24
S'2HB'
p25
aF-1.0558000000000014
aF-0.18579999999999158
aF-1.7744
aa(lp26
S'HG'
p27
aF-1.418800000000001
aF2.189200000000001
aF-2.0684000000000005
aa(lp28
S'1HD1'
p29
aF0.3841999999999999
aF3.679200000000003
aF-2.814400000000001
aa(lp30
S'2HD1'
p31
aF0.7321999999999989
aF2.972200000000002
aF-1.2194000000000003
aa(lp32
S'3HD1'
p33
aF1.549199999999999
aF2.3421999999999996
aF-2.6693999999999996
aa(lp34
S'1HD2'
p35
aF-0.950800000000001
aF2.3701999999999983
aF-4.4884
aa(lp36
S'2HD2'
p37
aF0.19620000000000104
aF1.0142000000000038
aF-4.369400000000001
aa(lp38
S'3HD2'
p39
aF-1.5367999999999995
aF0.7421999999999983
aF-4.0694
aaa(lp40
(lp41
S'N'
p42
aF1.2789505316116203
aF-0.32987888055647446
aF0.07748433295293516
aa(lp43
S'H'
p44
aF1.5198401329222317
aF-1.0313170923165462
aF-0.6074584639748413
aa(lp45
S'CA'
p46
aF0.2535975063746552
aF0.655411619945118
aF-0.2449327932341311
aa(lp47
S'C'
p48
aF-0.9765817644513514
aF0.47696364730295576
aF0.6353769719564495
aa(lp49
S'O'
p50
aF-2.0758064064571564
aF0.2288207056249496
aF0.13952995229958576
aa(lp51
S'CB'
p52
aF-0.14500942242334602
aF0.541591141321994
aF-1.7210870585330622
aa(lp53
S'CG'
p54
aF0.9001971983999321
aF1.0297843107741032
aF-2.7322327201899212
aa(lp55
S'CD1'
p56
aF2.2971762107368834
aF0.7441710153595229
aF-2.1967547238422656
aa(lp57
S'CD2'
p58
aF0.6753508383220636
aF0.33948321314463814
aF-4.069457648528938
aa(lp59
S'HA'
p60
aF0.6619224852426798
aF1.6497735441092927
aF-0.06642768012823941
aa(lp61
S'1HB'
p62
aF-0.35842074271562047
aF-0.5023735158624127
aF-1.943753631958336
aa(lp63
S'2HB'
p64
aF-1.0554564886228393
aF1.1195141426504378
aF-1.881274898846419
aa(lp65
S'HG'
p66
aF0.8068347901800088
aF2.108979731555616
aF-2.8602550014365478
aa(lp67
S'1HD1'
p68
aF3.0398454796909746
aF1.0906131100136824
aF-2.9147131014679006
aa(lp69
S'2HD1'
p70
aF2.4375610042641176
aF1.2655326899831123
aF-1.2504782769304752
aa(lp71
S'3HD1'
p72
aF2.4148336944309485
aF-0.32754287003944504
aF-2.0429104377155873
aa(lp73
S'1HD2'
p74
aF1.418402311740591
aF0.6872762266158547
aF-4.787586138167919
aa(lp75
S'2HD2'
p76
aF0.7698333312377191
aF-0.7386470473861269
aF-3.9422169323241456
aa(lp77
S'3HD2'
p78
aF-0.3237559374633656
aF0.5758632755526458
aF-4.4370554133148925
aaa(lp79
(lp80
S'N'
p81
aF1.1923746051628115
aF-0.4223345471951194
aF0.0994038792418259
aa(lp82
S'H'
p83
aF1.5897715051581114
aF-0.984192129194499
aF-0.6400586021755426
aa(lp84
S'CA'
p85
aF0.26225106943021786
aF0.6472091247872646
aF-0.2432293678296431
aa(lp86
S'C'
p87
aF-0.9900819623626369
aF0.5860413448035047
aF0.6216628105211456
aa(lp88
S'O'
p89
aF-2.054315217388505
aF0.1732762067988446
aF0.16222128024221952
aa(lp90
S'CB'
p91
aF-0.1280778945733977
aF0.5566403889975875
aF-1.724273797938788
aa(lp92
S'CG'
p93
aF0.9874892460267638
aF0.880586843282704
aF-2.726360944632768
aa(lp94
S'CD1'
p95
aF0.5808879403744817
aF2.0826284379755577
aF-3.568344544752227
aa(lp96
S'CD2'
p97
aF2.2822465944368204
aF1.152633060564431
aF-1.9746766595762952
aa(lp98
S'HA'
p99
aF0.7541049250601057
aF1.6028097062576863
aF-0.06859743090113024
aa(lp100
S'1HB'
p101
aF-0.47494583502107685
aF-0.4542627808141909
aF-1.9308855428955622
aa(lp102
S'2HB'
p103
aF-0.950381174332398
aF1.2462083090726421
aF-1.9097121966078734
aa(lp104
S'HG'
p105
aF1.1295973561183277
aF0.03483848535419576
aF-3.399856304755938
aa(lp106
S'1HD1'
p107
aF1.3740751452989313
aF2.3122302498255367
aF-4.28075037427592
aa(lp108
S'2HD1'
p109
aF-0.33695750018868187
aF1.8529950604204786
aF-4.109696795278684
aa(lp110
S'3HD1'
p111
aF0.415654399660662
aF2.941845542104728
aF-2.9195434619887486
aa(lp112
S'1HD2'
p113
aF3.0754337993612704
aF1.3822348724144091
aF-2.687082489099991
aa(lp114
S'2HD2'
p115
aF2.141850065044074
aF1.999892234688767
aF-1.3028510077910902
aa(lp116
S'3HD2'
p117
aF2.559383718643428
aF0.2714036163875514
aF-1.395553459296595
aaa(lp118
(lp119
S'N'
p120
aF1.2753373531048993
aF-0.33469967612065876
aF0.0798193120749679
aa(lp121
S'H'
p122
aF1.5269519493866919
aF-1.0282899665688543
aF-0.610368781080759
aa(lp123
S'CA'
p124
aF0.2526629516026028
aF0.6519586133191543
aF-0.24598812858840996
aa(lp125
S'C'
p126
aF-0.9778395788005255
aF0.4820855979903185
aF0.6352772578500854
aa(lp127
S'O'
p128
aF-2.077112675293658
aF0.22894543138004086
aF0.14126033974411592
aa(lp129
S'CB'
p130
aF-0.14725529250331013
aF0.5343094184840135
aF-1.7217045867828311
aa(lp131
S'CG'
p132
aF0.8785467677845982
aF1.0595970363179907
aF-2.7334007129291105
aa(lp133
S'CD1'
p134
aF1.8832866179123366
aF-0.037726097600028374
aF-3.0554826486747055
aa(lp135
S'CD2'
p136
aF0.15934493085772422
aF1.5285895587898948
aF-3.989134256172442
aa(lp137
S'HA'
p138
aF0.6641842068171993
aF1.645948641726302
aF-0.07267027049594393
aa(lp139
S'1HB'
p140
aF-0.3291358964466544
aF-0.5149309620758248
aF-1.948823651838698
aa(lp141
S'2HB'
p142
aF-1.0758910336044234
aF1.083827671036731
aF-1.8749277914908333
aa(lp143
S'HG'
p144
aF1.4269070056045383
aF1.895181455887919
aF-2.2955951312492457
aa(lp145
S'1HD1'
p146
aF2.613229890708735
aF0.3354278149477504
aF-3.7739281762198122
aa(lp147
S'2HD1'
p148
aF2.3964900912333156
aF-0.3404415599404649
aF-2.142166414377242
aa(lp149
S'3HD1'
p150
aF1.3617733388224313
aF-0.8948441163086781
aF-3.4797403554259843
aa(lp151
S'1HD2'
p152
aF0.888959817314034
aF1.9032358969198444
aF-4.708395153752148
aa(lp153
S'2HD2'
p154
aF-0.38747701022144093
aF0.6937178030184425
aF-4.428707817899609
aa(lp155
S'3HD2'
p156
aF-0.5384645805373055
aF2.3248147543523165
aF-3.7334736926155734
aaa(lp157
(lp158
S'N'
p159
aF1.2593254497718016
aF-0.34854165901135425
aF0.08425843275696954
aa(lp160
S'H'
p161
aF1.5168267752905205
aF-1.0265340457635803
aF-0.6177788816801761
aa(lp162
S'CA'
p163
aF0.2623805129338306
aF0.6653186406810587
aF-0.23772617187614606
aa(lp164
S'C'
p165
aF-0.9784798392771419
aF0.5136256411996233
aF0.6329177393867694
aa(lp166
S'O'
p167
aF-2.060052898719016
aF0.19613142289425078
aF0.13832888141259136
aa(lp168
S'CB'
p169
aF-0.129058703066389
aF0.5716575678125639
aF-1.7185016253485008
aa(lp170
S'CG'
p171
aF1.02185149688857
aF0.2993066992686721
aF-2.694125382768862
aa(lp172
S'CD1'
p173
aF0.4604092527130681
aF0.07779148148958137
aF-4.092612999713488
aa(lp174
S'CD2'
p175
aF1.993201195074053
aF1.4704218882640787
aF-2.67427650523824
aa(lp176
S'HA'
p177
aF0.6954890305090617
aF1.6471722175725254
aF-0.05113955512881041
aa(lp178
S'1HB'
p179
aF-0.8579399700515392
aF-0.22823146029964148
aF-1.83408554007643
aa(lp180
S'2HB'
p181
aF-0.5990454068218548
aF1.5092196756679437
aF-2.0130161278892853
aa(lp182
S'HG'
p183
aF1.543741732603479
aF-0.6106232346350272
aF-2.3977437078099593
aa(lp184
S'1HD1'
p185
aF1.2785472601588326
aF-0.11542175066623706
aF-4.786362844897308
aa(lp186
S'2HD1'
p187
aF-0.21583968398218012
aF-0.7766082218699281
aF-4.082100030687942
aa(lp188
S'3HD1'
p189
aF-0.08241840205215967
aF0.9665260458781462
aF-4.411274279575269
aa(lp190
S'1HD2'
p191
aF2.8110570169040323
aF1.276267495369265
aF-3.36821232822078
aa(lp192
S'2HD2'
p193
aF1.4722919499010603
aF2.380454243749981
aF-2.9726649605478945
aa(lp194
S'3HD2'
p195
aF2.391990339532615
aF1.593871080083826
aF-1.667264332868382
aaa(lp196
(lp197
S'N'
p198
aF1.2791178293240313
aF-0.3283987349070787
aF0.07664208776390657
aa(lp199
S'H'
p200
aF1.5061773416168238
aF-1.0355473726900595
aF-0.6077545676626332
aa(lp201
S'CA'
p202
aF0.2584082468205049
aF0.664699284162875
aF-0.23915099750683627
aa(lp203
S'C'
p204
aF-0.9758215497285019
aF0.4842776176377201
aF0.6346103151860985
aa(lp205
S'O'
p206
aF-2.067881868032859
aF0.21496920579654455
aF0.13565316221946366
aa(lp207
S'CB'
p208
aF-0.13555706895076292
aF0.5662409681533789
aF-1.7186817643305008
aa(lp209
S'CG'
p210
aF-0.23952629260740432
aF1.9010007690207866
aF-2.4690094757477405
aa(lp211
S'CD1'
p212
aF-0.8828481667649356
aF1.6692347176713993
aF-3.829006337388367
aa(lp213
S'CD2'
p214
aF-1.0491651408792824
aF2.887809339692994
aF-1.6410313478863452
aa(lp215
S'HA'
p216
aF0.6715232660430062
aF1.6556423037662302
aF-0.051318857572862836
aa(lp217
S'1HB'
p218
aF0.6010070024749293
aF-0.047508154127976834
aF-2.234681167027514
aa(lp219
S'2HB'
p220
aF-1.1037661207391694
aF0.07057380463174812
aF-1.7874952444155499
aa(lp221
S'HG'
p222
aF0.7603479837613681
aF2.3019184873698215
aF-2.637349650898617
aa(lp223
S'1HD1'
p224
aF-0.9570813151040841
aF2.6169629118899134
aF-4.362252724690686
aa(lp225
S'2HD1'
p226
aF-0.27375129397887993
aF0.9754698643570441
aF-4.407260025546048
aa(lp227
S'3HD1'
p228
aF-1.8799899419688026
aF1.2510153551254886
aF-3.6935779617244284
aa(lp229
S'1HD2'
p230
aF-1.1216934290739817
aF3.8354135975705077
aF-2.1745571840592084
aa(lp231
S'2HD2'
p232
aF-2.049231569253331
aF2.487282275273614
aF-1.47403670873057
aa(lp233
S'3HD2'
p234
aF-0.5572440835519286
aF3.0473992705857427
aF-0.68243877159776
aaa(lp235
(lp236
S'N'
p237
aF1.2596747307747818
aF-0.3544227766507871
aF0.08701441282124167
aa(lp238
S'H'
p239
aF1.5542330136135452
aF-1.0153300178993834
aF-0.6187376941371779
aa(lp240
S'CA'
p241
aF0.2487663295760647
aF0.6403356768684274
aF-0.25154994374617834
aa(lp242
S'C'
p243
aF-0.9818880695716039
aF0.49865701021543435
aF0.6348009491139358
aa(lp244
S'O'
p245
aF-2.080786004392788
aF0.2307601074663102
aF0.14847227594818158
aa(lp246
S'CB'
p247
aF-0.15544321797428262
aF0.5058543938273967
aF-1.7250469495730578
aa(lp248
S'CG'
p249
aF-0.0006907360630596937
aF1.7726938011812379
aF-2.5757135031166207
aa(lp250
S'CD1'
p251
aF-0.5128226871830085
aF2.975437366854351
aF-1.7961163123353796
aa(lp252
S'CD2'
p253
aF1.461171714734827
aF1.9513829114466805
aF-2.958832775432358
aa(lp254
S'HA'
p255
aF0.6729223520211358
aF1.6313175782825002
aF-0.09345965405916501
aa(lp256
S'1HB'
p257
aF0.44923354673898763
aF-0.27642725185306477
aF-2.181199815449577
aa(lp258
S'2HB'
p259
aF-1.2014807826332141
aF0.2010109433396895
aF-1.7719285452920395
aa(lp260
S'HG'
p261
aF-0.6036853117144152
aF1.6801863883796484
aF-3.480348744698441
aa(lp262
S'1HD1'
p263
aF-0.40283648223270446
aF3.8749933795866434
aF-2.4004357764251996
aa(lp264
S'2HD1'
p265
aF-1.5656321747608262
aF2.8299113099941797
aF-1.5519066695264572
aa(lp266
S'3HD1'
p267
aF0.061370575554356654
aF3.0834094346071237
aF-0.8763374641266333
aa(lp268
S'1HD2'
p269
aF1.5718666143938436
aF2.8513263456659517
aF-3.564313125563644
aa(lp270
S'2HD2'
p271
aF2.0649284379056763
aF2.045110662546313
aF-2.0559092305517273
aa(lp272
S'3HD2'
p273
aF1.7965241502838416
aF1.0860041293785498
aF-3.5304684177060204
aaa(lp274
(lp275
S'N'
p276
aF1.2724225432544227
aF-0.35524874040196386
aF0.08591602796192427
aa(lp277
S'H'
p278
aF1.6418195678418592
aF-0.9873971275116415
aF-0.6093258399521031
aa(lp279
S'CA'
p280
aF0.2099551231686242
aF0.5711602836710024
aF-0.28874822356525387
aa(lp281
S'C'
p282
aF-0.9922547938207152
aF0.4322172583652791
aF0.6347100327795554
aa(lp283
S'O'
p284
aF-2.131942440444235
aF0.33926832587725464
aF0.17744800277589418
aa(lp285
S'CB'
p286
aF-0.22015699013701182
aF0.3240677260921376
aF-1.7404444169806994
aa(lp287
S'CG'
p288
aF0.8643737368357771
aF-0.2351057415149237
aF-2.6693772107694427
aa(lp289
S'CD1'
p290
aF2.1687127171455
aF0.5155107887503099
aF-2.438551196340433
aa(lp291
S'CD2'
p292
aF1.0368873943315933
aF-1.7245480535530275
aF-2.4094509960699986
aa(lp293
S'HA'
p294
aF0.5926621683927695
aF1.5880112266954258
aF-0.2049181740236973
aa(lp295
S'1HB'
p296
aF-1.0516173428012487
aF-0.3784133629093942
aF-1.7404051399290006
aa(lp297
S'2HB'
p298
aF-0.5668631995974893
aF1.2660316162126701
aF-2.164301508499228
aa(lp299
S'HG'
p300
aF0.5691167402762808
aF-0.08048988982881067
aF-3.707505451590407
aa(lp301
S'1HD1'
p302
aF2.938560810633448
aF0.11761944674787173
aF-3.0999023836172657
aa(lp303
S'2HD1'
p304
aF2.020830011805666
aF1.5748563959465331
aF-2.651157851869945
aa(lp305
S'3HD1'
p306
aF2.4804365216493647
aF0.39174474230943424
aF-1.4028995968852713
aa(lp307
S'1HD2'
p308
aF1.8067354878195372
aF-2.1224393955554746
aF-3.0708021833468218
aa(lp309
S'2HD2'
p310
aF1.333425441695331
aF-1.8805492364818424
aF-1.3719859039389428
aa(lp311
S'3HD2'
p312
aF0.095191179631118
aF-2.238719047456059
aF-2.5995494659417213
aaa(lp313
(lp314
S'N'
p315
aF1.2699422677280343
aF-0.33956055718412637
aF0.08180675181538821
aa(lp316
S'H'
p317
aF1.5251678894584737
aF-1.0273531508383076
aF-0.6130703813000541
aa(lp318
S'CA'
p319
aF0.2550044824557878
aF0.655575058673042
aF-0.24404658648154137
aa(lp320
S'C'
p321
aF-0.9782099068739547
aF0.49183014847672746
aF0.6346017358493339
aa(lp322
S'O'
p323
aF-2.071904732768342
aF0.21950850087263707
aF0.14070848011684378
aa(lp324
S'CB'
p325
aF-0.14245252686971333
aF0.5433396936510236
aF-1.721052391675401
aa(lp326
S'CG'
p327
aF0.4134782606250642
aF1.6351351001839554
aF-2.6437824441766993
aa(lp328
S'CD1'
p329
aF-0.679448645516677
aF2.0999994675797446
aF-3.597282259466223
aa(lp330
S'CD2'
p331
aF0.935378169801282
aF2.7920413113491094
aF-1.8057224801112468
aa(lp332
S'HA'
p333
aF0.6739246694304832
aF1.6462300434030024
aF-0.0680989289956444
aa(lp334
S'1HB'
p335
aF0.19991771816963566
aF-0.4173497205054624
aF-2.1010293183951148
aa(lp336
S'2HB'
p337
aF-1.2299355463053256
aF0.572156966804332
aF-1.7906889281145184
aa(lp338
S'HG'
p339
aF1.2268376144660267
aF1.2257136653821867
aF-3.2439113055425386
aa(lp340
S'1HD1'
p341
aF-0.2846710990074026
aF2.875515521936597
aF-4.254001025915673
aa(lp342
S'2HD1'
p343
aF-1.020640552213697
aF1.2569627074382095
aF-4.19778047249813
aa(lp344
S'3HD1'
p345
aF-1.5152307884345368
aF2.5001997861539658
aF-3.0251031663557573
aa(lp346
S'1HD2'
p347
aF1.3314007273629271
aF3.5680979929521883
aF-2.462044170169982
aa(lp348
S'2HD2'
p349
aF0.12308815303285447
aF3.203267759067166
aF-1.2063672120476958
aa(lp350
S'3HD2'
p351
aF1.7276208156348023
aF2.4353819661851026
aF-1.147237323384191
aaa(lp352
(lp353
S'N'
p354
aF1.2851076006181825
aF-0.336503021610637
aF0.08089951347371421
aa(lp355
S'H'
p356
aF1.611008449597676
aF-1.0031967948901341
aF-0.6040406658885472
aa(lp357
S'CA'
p358
aF0.2178093186650812
aF0.5884336727079118
aF-0.2809947927028681
aa(lp359
S'C'
p360
aF-0.9893295866618687
aF0.4228567067348757
aF0.6347589578137369
aa(lp361
S'O'
p362
aF-2.124595782219088
aF0.32840943705794934
aF0.16937698730391207
aa(lp363
S'CB'
p364
aF-0.20436477088947083
aF0.3674277332021099
aF-1.7384032504839877
aa(lp365
S'CG'
p366
aF0.30131765521578313
aF-0.9275948871294712
aF-2.38853761871706
aa(lp367
S'CD1'
p368
aF-0.6735693153217851
aF-1.3662983079601367
aF-3.472847861787539
aa(lp369
S'CD2'
p370
aF1.6912381079954797
aF-0.6975587727924486
aF-2.9630613528181047
aa(lp371
S'HA'
p372
aF0.5915870314060524
aF1.6058616286291667
aF-0.1749496326622425
aa(lp373
S'1HB'
p374
aF-1.292410824721146
aF0.35925219191489943
aF-1.788001085779308
aa(lp375
S'2HB'
p376
aF0.1594360088855105
aF1.2023645184963356
aF-2.3369185445222023
aa(lp377
S'HG'
p378
aF0.3443302797329634
aF-1.7175610809361574
aF-1.6385314008930258
aa(lp379
S'1HD1'
p380
aF-0.31396616627872764
aF-2.2857330848681623
aF-3.9340758598648606
aa(lp381
S'2HD1'
p382
aF-1.6540889490986552
aF-1.5421196077462107
aF-3.0307730736355776
aa(lp383
S'3HD1'
p384
aF-0.7505612531193311
aF-0.5871007776824984
aF-4.229445145898053
aa(lp385
S'1HD2'
p386
aF2.050841257038539
aF-1.6169935497004655
aF-3.4242893508954135
aa(lp387
S'2HD2'
p388
aF1.6482718537569867
aF0.09288946846687729
aF-3.7139424878100202
aa(lp389
S'3HD2'
p390
aF2.3706764359156605
aF-0.40201959620167527
aF-2.164163265667382
aaa.