(lp0
(lp1
(lp2
S'N'
p3
aF-0.46300000000000524
aF0.018400000000000465
aF1.153800000000004
aa(lp4
S'H'
p5
aF0.2710000000000036
aF-0.5436000000000007
aF1.5597999999999956
aa(lp6
S'CA'
p7
aF-0.9069999999999936
aF-0.26560000000000017
aF-0.20520000000000493
aa(lp8
S'C'
p9
aF0.23999999999999772
aF-0.13360000000000055
aF-1.1982
aa(lp10
S'O'
p11
aF0.8589999999999975
aF0.924400000000001
aF-1.3101999999999947
aa(lp12
S'CB'
p13
aF-2.0450000000000133
aF0.684399999999999
aF-0.600200000000001
aa(lp14
S'CG'
p15
aF-2.9060000000000032
aF1.2094000000000011
aF0.555800000000005
aa(lp16
S'CD1'
p17
aF-2.935000000000014
aF2.7314
aF0.517799999999994
aa(lp18
S'CD2'
p19
aF-4.309000000000009
aF0.6323999999999994
aF0.4467999999999961
aa(lp20
S'HA'
p21
aF-1.2770000000000123
aF-1.2896000000000012
aF-0.2412000000000063
aa(lp22
S'1HB'
p23
aF-1.6170000000000015
aF1.5453999999999997
aF-1.1122000000000014
aa(lp24
S'2HB'
p25
aF-2.70500000000001
aF0.16640000000000016
aF-1.296199999999999
aa(lp26
S'HG'
p27
aF-2.4620000000000006
aF0.907399999999998
aF1.5057999999999936
aa(lp28
S'1HD1'
p29
aF-3.546000000000004
aF3.104400000000001
aF1.3397999999999968
aa(lp30
S'2HD1'
p31
aF-1.920000000000013
aF3.117399999999999
aF0.6178000000000026
aa(lp32
S'3HD1'
p33
aF-3.359000000000006
aF3.0634000000000006
aF-0.4291999999999945
aa(lp34
S'1HD2'
p35
aF-4.921000000000004
aF1.0054000000000005
aF1.2687999999999988
aa(lp36
S'2HD2'
p37
aF-4.754000000000002
aF0.934399999999999
aF-0.502200000000002
aa(lp38
S'3HD2'
p39
aF-4.2600000000000025
aF-0.45559999999999967
aF0.4947999999999979
aaa(lp40
(lp41
S'N'
p42
aF-0.366154613710372
aF0.07196932482134771
aF1.1194873358566293
aa(lp43
S'H'
p44
aF0.17539672361725211
aF-0.5876290675171826
aF1.6588861770336247
aa(lp45
S'CA'
p46
aF-0.8585119311066243
aF-0.32058285617217686
aF-0.19585294604901377
aa(lp47
S'C'
p48
aF0.20204879674775733
aF-0.10595071489968647
aF-1.2676388325327672
aa(lp49
S'O'
p50
aF0.8472210244519722
aF0.9421933137676612
aF-1.3148817343084753
aa(lp51
S'CB'
p52
aF-2.120272163986382
aF0.4758430254028114
aF-0.5495278389672336
aa(lp53
S'CG'
p54
aF-2.9563474650511714
aF-0.08237227815430981
aF-1.7081273236141281
aa(lp55
S'CD1'
p56
aF-3.4676821431557263
aF-1.4699497140519675
aF-1.344388809904888
aa(lp57
S'CD2'
p58
aF-4.110054657866817
aF0.8643345988532207
aF-2.0046518626865124
aa(lp59
S'HA'
p60
aF-1.1091366019947728
aF-1.3803551109032892
aF-0.16875972836750514
aa(lp61
S'1HB'
p62
aF-2.7613063430679454
aF0.5201987360208533
aF0.3300270212801514
aa(lp63
S'2HB'
p64
aF-1.8285537109916803
aF1.492340914789279
aF-0.8118775770178885
aa(lp65
S'HG'
p66
aF-2.330420386521129
aF-0.1799409857150398
aF-2.5947640246748107
aa(lp67
S'1HD1'
p68
aF-4.061612110084625
aF-1.8663408098456375
aF-2.1670961050951902
aa(lp69
S'2HD1'
p70
aF-2.6225101986200405
aF-2.1316450914142946
aF-1.156203763349379
aa(lp71
S'3HD1'
p72
aF-4.086130627245924
aF-1.4061275399604378
aF-0.4493116050667887
aa(lp73
S'1HD2'
p74
aF-4.703628009625987
aF0.4685776365418306
aF-2.8289310040357516
aa(lp75
S'2HD2'
p76
aF-4.7378529494297315
aF0.9623542771406224
aF-1.1195301491470038
aa(lp77
S'3HD2'
p78
aF-3.7154266935694142
aF1.8427937110706014
aF-2.279358134026
aaa(lp79
(lp80
S'N'
p81
aF-0.45984489204819834
aF0.024482725385958637
aF1.1427061702007426
aa(lp82
S'H'
p83
aF0.2852202299226959
aF-0.5234064901353351
aF1.5492936411562028
aa(lp84
S'CA'
p85
aF-0.9140646279758253
aF-0.286919596501655
aF-0.2074871587032367
aa(lp86
S'C'
p87
aF0.2135954836098924
aF-0.12531857777044514
aF-1.2191040740835228
aa(lp88
S'O'
p89
aF0.8750938064914443
aF0.9111619390214296
aF-1.265408578570183
aa(lp90
S'CB'
p91
aF-2.088434008406904
aF0.6208186308673798
aF-0.5935918969270231
aa(lp92
S'CG'
p93
aF-3.086847900607178
aF0.026747941504698558
aF-1.5965139855768062
aa(lp94
S'CD1'
p95
aF-2.352301006994094
aF-0.374154504564868
aF-2.8688315912943425
aa(lp96
S'CD2'
p97
aF-3.785496167306138
aF-1.1705248809805202
aF-0.9683377459936746
aa(lp98
S'HA'
p99
aF-1.2495378537247377
aF-1.3223323987159488
aF-0.22969174868754055
aa(lp100
S'1HB'
p101
aF-2.6402340238424675
aF0.8782509461909961
aF0.30966351877356035
aa(lp102
S'2HB'
p103
aF-1.6912367764862668
aF1.5383048656570097
aF-1.0262515413660793
aa(lp104
S'HG'
p105
aF-3.8277618261608515
aF0.7806408990169074
aF-1.8627938449994295
aa(lp106
S'1HD1'
p107
aF-3.061017364578513
aF-0.795941090883217
aF-3.5808197935099217
aa(lp108
S'2HD1'
p109
aF-1.8782570393737332
aF0.50485130118822
aF-3.3059449750005827
aa(lp110
S'3HD1'
p111
aF-1.5916906883350146
aF-1.1169401948676534
aF-2.631024187223791
aa(lp112
S'1HD2'
p113
aF-4.495369404470735
aF-1.5930153871161172
aF-1.6807335344306513
aa(lp114
S'2HD2'
p115
aF-3.0451870363485263
aF-1.9256607552397713
aF-0.7031016209512784
aa(lp116
S'3HD2'
p117
aF-4.316504768118442
aF-0.8525751122739458
aF-0.07159039559737068
aaa(lp118
(lp119
S'N'
p120
aF-0.37535783269192746
aF0.06421304188241539
aF1.1366759532465767
aa(lp121
S'H'
p122
aF0.16448059584013036
aF-0.6098327043713087
aF1.66138425605615
aa(lp123
S'CA'
p124
aF-0.8547306532494576
aF-0.29160865338039793
aF-0.19388280911268388
aa(lp125
S'C'
p126
aF0.23963250900184788
aF-0.1188079061339663
aF-1.2386455433535248
aa(lp127
S'O'
p128
aF0.8259753810994089
aF0.9560362220032608
aF-1.36553185683653
aa(lp129
S'CB'
p130
aF-2.0683775538274842
aF0.570279659319732
aF-0.5668435807070593
aa(lp131
S'CG'
p132
aF-3.439368755206137
aF-0.08033141448317865
aF-0.344112001474689
aa(lp133
S'CD1'
p134
aF-3.320915221336248
aF-1.1665931071097144
aF0.7156428265142498
aa(lp135
S'CD2'
p136
aF-4.4443303849415425
aF0.9836476151360912
aF0.07220968579369358
aa(lp137
S'HA'
p138
aF-1.1583396348576451
aF-1.3377944581536536
aF-0.18279911939403004
aa(lp139
S'1HB'
p140
aF-2.0371972503764013
aF1.4866694144520973
aF0.020016373085272487
aa(lp141
S'2HB'
p142
aF-1.9938934951206386
aF0.8353326529885846
aF-1.6216630133806047
aa(lp143
S'HG'
p144
aF-3.773497976462885
aF-0.5518713803340198
aF-1.2689891414818038
aa(lp145
S'1HD1'
p146
aF-4.295122981293572
aF-1.6280141962896368
aF0.8739457604698365
aa(lp147
S'2HD1'
p148
aF-2.611132659876774
aF-1.9233989621562153
aF0.3828852372463809
aa(lp149
S'3HD1'
p150
aF-2.97266997313985
aF-0.7260894437583088
aF1.6500847828082819
aa(lp151
S'1HD2'
p152
aF-5.41960997282132
aF0.52189282151722
aF0.22965248821744572
aa(lp153
S'2HD2'
p154
aF-4.112382447624537
aF1.4550139588383093
aF0.9975471036774599
aa(lp155
S'3HD2'
p156
aF-4.52160023366946
aF1.737854374011921
aF-0.7112311449928911
aaa(lp157
(lp158
S'N'
p159
aF-0.5465715227142336
aF-0.09194767137257923
aF1.1876089239673997
aa(lp160
S'H'
p161
aF0.34931301208124027
aF-0.4619459749592052
aF1.4711828220210084
aa(lp162
S'CA'
p163
aF-0.9471286450281002
aF-0.19540463901575375
aF-0.21036519868642173
aa(lp164
S'C'
p165
aF0.26317928244507915
aF-0.14988377587712529
aF-1.1344823837418154
aa(lp166
S'O'
p167
aF0.8812078732159767
aF0.8991820612246956
aF-1.3139441635601852
aa(lp168
S'CB'
p169
aF-1.9144725073194506
aF0.9394886846543323
aF-0.5701373432116772
aa(lp170
S'CG'
p171
aF-2.5911304615536475
aF0.8268834965135266
aF-1.9424474701783878
aa(lp172
S'CD1'
p173
aF-1.7237570991892701
aF1.5067549868618686
aF-2.993214431436799
aa(lp174
S'CD2'
p175
aF-2.81240294167176
aF-0.6391239772412837
aF-2.2810882480499033
aa(lp176
S'HA'
p177
aF-1.4545646689312575
aF-1.148047827329636
aF-0.35588027489678165
aa(lp178
S'1HB'
p179
aF-2.699588556263917
aF0.9774962950366748
aF0.18303873928354575
aa(lp180
S'2HB'
p181
aF-1.3694926965402718
aF1.8825306285319472
aF-0.5456853917432581
aa(lp182
S'HG'
p183
aF-3.551484409025215
aF1.3423377364430993
aF-1.9181735723786013
aa(lp184
S'1HD1'
p185
aF-2.204077135386413
aF1.4269225412330977
aF-3.968553061581487
aa(lp186
S'2HD1'
p187
aF-1.5976698972535894
aF2.5588782395732275
aF-2.7364797851342515
aa(lp188
S'3HD1'
p189
aF-0.7483042097005335
aF1.0221978168670602
aF-3.0295876275388913
aa(lp190
S'1HD2'
p191
aF-3.2931411882407433
aF-0.7195418703605347
aF-3.2571213933641565
aa(lp192
S'2HD2'
p193
aF-1.852007405208794
aF-1.1558136912994592
aF-2.3072254423997127
aa(lp194
S'3HD2'
p195
aF-3.449398210225027
aF-1.0963293299746795
aF-1.523627824481326
aaa(lp196
(lp197
S'N'
p198
aF-0.46978336060796133
aF0.01551430890500248
aF1.1460088569967906
aa(lp199
S'H'
p200
aF0.29665447024100244
aF-0.513691397337791
aF1.5360093338216358
aa(lp201
S'CA'
p202
aF-0.920311531818849
aF-0.28138095266318575
aF-0.2084429031643948
aa(lp203
S'C'
p204
aF0.21492164995148383
aF-0.12836703060966742
aF-1.213354024938555
aa(lp205
S'O'
p206
aF0.8785187722343187
aF0.9079250717056476
aF-1.2602212627154785
aa(lp207
S'CB'
p208
aF-2.0821245491213283
aF0.6428103093648501
aF-0.5960200232547345
aa(lp209
S'CG'
p210
aF-2.691344401603283
aF0.40021560010770196
aF-1.982116693181582
aa(lp211
S'CD1'
p212
aF-4.136191663068891
aF0.8813774695474816
aF-1.994390504022085
aa(lp213
S'CD2'
p214
aF-1.8646118288895683
aF1.1252501588051287
aF-3.03381205872647
aa(lp215
S'HA'
p216
aF-1.2684557060756856
aF-1.3136636485411723
aF-0.2393147304817141
aa(lp217
S'1HB'
p218
aF-2.8760853932226844
aF0.527583784162107
aF0.13989982694877778
aa(lp219
S'2HB'
p220
aF-1.7314890017419502
aF1.6734135102475363
aF-0.5637437898262656
aa(lp221
S'HG'
p222
aF-2.694458042123137
aF-0.6691589696027151
aF-2.19733364162982
aa(lp223
S'1HD1'
p224
aF-4.569123123443328
aF0.7096006150572656
aF-2.979792484372999
aa(lp225
S'2HD1'
p226
aF-4.7085281279653515
aF0.33307763348844865
aF-1.2467172727723208
aa(lp227
S'3HD1'
p228
aF-4.1667104927813865
aF1.9465844331680344
aF-1.7665051695065537
aa(lp229
S'1HD2'
p230
aF-2.29754249419807
aF0.9525668024065557
aF-4.020299513009833
aa(lp231
S'2HD2'
p232
aF-1.8622925936034171
aF2.194219710546446
aF-2.8219424795093397
aa(lp233
S'3HD2'
p234
aF-0.8414683429821904
aF0.748884290974679
aF-3.015396283490807
aaa(lp235
(lp236
S'N'
p237
aF-0.46097778466636036
aF0.027664900865134068
aF1.1223779645485865
aa(lp238
S'H'
p239
aF0.31913746884724387
aF-0.4748219617181245
aF1.5218265146355983
aa(lp240
S'CA'
p241
aF-0.9270735301585983
aF-0.32981030896306135
aF-0.21216736266676903
aa(lp242
S'C'
p243
aF0.15807688470286246
aF-0.09702246419675709
aF-1.2557249300558708
aa(lp244
S'O'
p245
aF0.9108369612748491
aF0.8739898340127741
aF-1.1763121864615247
aa(lp246
S'CB'
p247
aF-2.1750384971991674
aF0.4858863685194018
aF-0.5728311553927653
aa(lp248
S'CG'
p249
aF-3.0333869080248124
aF0.9489583005858091
aF0.6116874773713533
aa(lp250
S'CD1'
p251
aF-4.507311280104924
aF0.8413957010108928
aF0.24434127477635936
aa(lp252
S'CD2'
p253
aF-2.711157052718905
aF0.10167326979325564
aF1.8335368940117125
aa(lp254
S'HA'
p255
aF-1.1859460127526422
aF-1.3878855906802101
aF-0.21613422222865158
aa(lp256
S'1HB'
p257
aF-1.864694824664161
aF1.3721488146936376
aF-1.123096256429293
aa(lp258
S'2HB'
p259
aF-2.807840364308478
aF-0.11726062877407263
aF-1.224752543781606
aa(lp260
S'HG'
p261
aF-2.819299635197678
aF1.9949614057800864
aF0.8294078106831044
aa(lp262
S'1HD1'
p263
aF-5.1162660995293985
aF1.1707040798137331
aF1.0859617471687255
aa(lp264
S'2HD1'
p265
aF-4.713198768656414
aF1.4727704108110358
aF-0.620667579445799
aa(lp266
S'3HD1'
p267
aF-4.74821021059331
aF-0.19379634482027586
aF0.004912509717868829
aa(lp268
S'1HD2'
p269
aF-3.3208484108672134
aF0.430326685302016
aF2.675326285886957
aa(lp270
S'2HD2'
p271
aF-2.9264684207772618
aF-0.9455612876316151
aF1.617544309602039
aa(lp272
S'3HD2'
p273
aF-1.6561064854865202
aF0.21053607346040937
aF2.0844655503273195
aaa(lp274
(lp275
S'N'
p276
aF-0.455665782969783
aF0.017885239765434102
aF1.1734242082167334
aa(lp277
S'H'
p278
aF0.22371385898848253
aF-0.5971584813612721
aF1.5987047311604405
aa(lp279
S'CA'
p280
aF-0.880655220946276
aF-0.23283609149627402
aF-0.1977328913377939
aa(lp281
S'C'
p282
aF0.292541451859871
aF-0.1360560154780483
aF-1.1648591415256846
aa(lp283
S'O'
p284
aF0.8200656930677066
aF0.9481653485701652
aF-1.4095369065136965
aa(lp285
S'CB'
p286
aF-1.9711661001133112
aF0.7657790626959101
aF-0.6058943743761369
aa(lp287
S'CG'
p288
aF-1.9893275596711844
aF1.1625175946976583
aF-2.0879465659712326
aa(lp289
S'CD1'
p290
aF-1.8160112517290996
aF-0.08150638507357755
aF-2.949045744437604
aa(lp291
S'CD2'
p292
aF-3.29604779783569
aF1.8707790385741014
aF-2.4084882111428842
aa(lp293
S'HA'
p294
aF-1.2898211052646094
aF-1.2414545617304484
aF-0.25472465050056614
aa(lp295
S'1HB'
p296
aF-2.942818684028782
aF0.3365337952507065
aF-0.36624931069594513
aa(lp297
S'2HB'
p298
aF-1.8444765259501628
aF1.6764856223315852
aF-0.02139774133629524
aa(lp299
S'HG'
p300
aF-1.1528721835653517
aF1.8305661584979807
aF-2.2959261808087823
aa(lp301
S'1HD1'
p302
aF-1.8280926000486541
aF0.19962471773364698
aF-4.002193570745561
aa(lp303
S'2HD1'
p304
aF-0.8641949188864535
aF-0.5579031822579577
aF-2.7130144749700977
aa(lp305
S'3HD1'
p306
aF-2.6297774369092943
aF-0.7777014590089605
aF-2.75044560625694
aa(lp307
S'1HD2'
p308
aF-3.3090418105090844
aF2.1533295766779084
aF-3.4620262261437156
aa(lp309
S'2HD2'
p310
aF-4.133407419341984
aF1.203304160248704
aF-2.2014322982224055
aa(lp311
S'3HD2'
p312
aF-3.385545152119504
aF2.7661522420159375
aF-1.7918497026676987
aaa(lp313
(lp314
S'N'
p315
aF-0.3743913253485348
aF0.07185106278615228
aF1.1145284744143
aa(lp316
S'H'
p317
aF0.19387113077160334
aF-0.5715568914287668
aF1.6460141143118001
aa(lp318
S'CA'
p319
aF-0.8651584337476791
aF-0.3313888705335685
aF-0.19849902015304913
aa(lp320
S'C'
p321
aF0.18571058691600897
aF-0.09908136264398626
aF-1.2753200466878492
aa(lp322
S'O'
p323
aF0.8599680414086457
aF0.930176061820141
aF-1.286723521885154
aa(lp324
S'CB'
p325
aF-2.143150307003726
aF0.442245658127589
aF-0.5465038878700612
aa(lp326
S'CG'
p327
aF-3.4492243056585927
aF-0.1488609474698943
aF0.00025994675754925645
aa(lp328
S'CD1'
p329
aF-3.3206331640254048
aF-1.6630110156889937
aF0.09596203244852147
aa(lp330
S'CD2'
p331
aF-3.752491506824634
aF0.46106760726857754
aF1.360312211492818
aa(lp332
S'HA'
p333
aF-1.097333706747564
aF-1.395168546545757
aF-0.1678976556270052
aa(lp334
S'1HB'
p335
aF-2.0517062208535775
aF1.4565979035607763
aF-0.1602675595776628
aa(lp336
S'2HB'
p337
aF-2.232303977083956
aF0.49575856324232603
aF-1.6314338358839466
aa(lp338
S'HG'
p339
aF-4.2654073446128695
aF0.07427517839685283
aF-0.6880376024582833
aa(lp340
S'1HD1'
p341
aF-4.24868184340107
aF-2.0834842941793537
aF0.4833015098900018
aa(lp342
S'2HD1'
p343
aF-3.123060231421653
aF-2.0744925864578927
aF-0.8949147778664254
aa(lp344
S'3HD1'
p345
aF-2.5003535580698215
aF-1.9168959076287007
aF0.7645940909815496
aa(lp346
S'1HD2'
p347
aF-4.680912327865714
aF0.04120148984452876
aF1.7483537331070025
aa(lp348
S'2HD2'
p349
aF-2.937772853585332
aF0.2376589086897003
aF2.04949366036041
aa(lp350
S'3HD2'
p351
aF-3.8557602585806956
aF1.5415564895538587
aF1.2599461805426955
aaa(lp352
(lp353
S'N'
p354
aF-0.46748386557617855
aF0.01977273136153281
aF1.132754781283424
aa(lp355
S'H'
p356
aF0.3142536920431689
aF-0.4877255085666926
aF1.523018701569549
aa(lp357
S'CA'
p358
aF-0.9276169818899069
aF-0.3069384138581932
aF-0.21153549349380146
aa(lp359
S'C'
p360
aF0.18246466759544314
aF-0.11362886167173847
aF-1.2357225606399163
aa(lp361
S'O'
p362
aF0.8983824878274911
aF0.8885200527351178
aF-1.2085154287192574
aa(lp363
S'CB'
p364
aF-2.133838537891877
aF0.5637429001369914
aF-0.5851443896617285
aa(lp365
S'CG'
p366
aF-3.4769472229683185
aF-0.17038798299855426
aF-0.6890910418388454
aa(lp367
S'CD1'
p368
aF-3.6513721595944513
aF-0.7127195362996287
aF-2.1013347983401873
aa(lp369
S'CD2'
p370
aF-3.5232597926462335
aF-1.292841125537323
aF0.3374483332923202
aa(lp371
S'HA'
p372
aF-1.230885858408805
aF-1.3527434528815765
aF-0.22811285420869534
aa(lp373
S'1HB'
p374
aF-2.242214228494839
aF1.3471836284564382
aF0.16332894646763868
aa(lp375
S'2HB'
p376
aF-1.9376336224908801
aF1.034428692858322
aF-1.5488935871725653
aa(lp377
S'HG'
p378
aF-4.290782331717825
aF0.5302555014478516
aF-0.498628122955765
aa(lp379
S'1HD1'
p380
aF-4.605475916412192
aF-1.2341545448796205
aF-2.175270940067061
aa(lp381
S'2HD1'
p382
aF-3.634154600158208
aF0.11273527906535011
aF-2.8131703857041757
aa(lp383
S'3HD1'
p384
aF-2.841903415170433
aF-1.4054159878727845
aF-2.328043813993658
aa(lp385
S'1HD2'
p386
aF-4.478355596317033
aF-1.8141516677239702
aF0.26349345234791405
aa(lp387
S'2HD2'
p388
aF-2.7115172660728697
aF-1.9942481313213083
aF0.14596652530675133
aa(lp389
S'3HD2'
p390
aF-3.414118083055118
aF-0.8748667119739881
aF1.338027903758314
aaa.