(lp0
(lp1
(lp2
S'N'
p3
aF1.1939999999999997
aF-0.43440000000000223
aF-0.11799999999999923
aa(lp4
S'H'
p5
aF1.2150000000000005
aF0.5595999999999975
aF-0.2970000000000013
aa(lp6
S'CA'
p7
aF-0.04500000000000455
aF-1.046399999999997
aF0.34599999999999936
aa(lp8
S'C'
p9
aF-1.172
aF-0.023400000000000885
aF0.41400000000000076
aa(lp10
S'O'
p11
aF-1.191999999999996
aF0.9446000000000027
aF-0.3449999999999996
aa(lp12
S'CB'
p13
aF0.1620000000000033
aF-1.6803999999999975
aF1.7269999999999996
aa(lp14
S'CG'
p15
aF1.5599999999999994
aF-2.2524
aF1.9930000000000014
aa(lp16
S'CD1'
p17
aF1.8700000000000017
aF-2.1664000000000017
aF3.4810000000000008
aa(lp18
S'CD2'
p19
aF1.621999999999997
aF-3.692399999999998
aF1.5040000000000007
aa(lp20
S'HA'
p21
aF-0.3310000000000059
aF-1.8263999999999982
aF-0.35899999999999893
aa(lp22
S'1HB'
p23
aF-0.03799999999999955
aF-0.928400000000002
aF2.4879999999999987
aa(lp24
S'2HB'
p25
aF-0.5560000000000003
aF-2.4914000000000045
aF1.8479999999999983
aa(lp26
S'HG'
p27
aF2.3039999999999994
aF-1.6574000000000013
aF1.4630000000000003
aa(lp28
S'1HD1'
p29
aF2.8640000000000017
aF-2.5724000000000076
aF3.670000000000001
aa(lp30
S'2HD1'
p31
aF1.8380000000000052
aF-1.1244
aF3.8
aa(lp32
S'3HD1'
p33
aF1.1309999999999973
aF-2.7403999999999997
aF4.039999999999998
aa(lp34
S'1HD2'
p35
aF2.615999999999997
aF-4.098400000000003
aF1.6919999999999995
aa(lp36
S'2HD2'
p37
aF0.8799999999999926
aF-4.288400000000001
aF2.033999999999998
aa(lp38
S'3HD2'
p39
aF1.4139999999999986
aF-3.722399999999999
aF0.43400000000000033
aaa(lp40
(lp41
S'N'
p42
aF1.1950105875438137
aF-0.45180450499054
aF-0.1607287930908004
aa(lp43
S'H'
p44
aF1.2741759313370937
aF0.5526596031695623
aF-0.23054071012665522
aa(lp45
S'CA'
p46
aF-0.053665598496679234
aF-1.0333905858090509
aF0.31616366125666484
aa(lp47
S'C'
p48
aF-1.1354827598842885
aF0.02855351942169987
aF0.4642087445688703
aa(lp49
S'O'
p50
aF-1.2800381604999698
aF0.9039819682083516
aF-0.3891029026080748
aa(lp51
S'CB'
p52
aF0.16753351028067887
aF-1.7366725769780271
aF1.6610455873652297
aa(lp53
S'CG'
p54
aF-0.20559986843238154
aF-3.223307735958988
aF1.7048792019986254
aa(lp55
S'CD1'
p56
aF0.16084751005453657
aF-3.800552138888211
aF3.0645417403098625
aa(lp57
S'CD2'
p58
aF-1.693099650822226
aF-3.3814726006395555
aF1.4269128857465716
aa(lp59
S'HA'
p60
aF-0.3928390617546338
aF-1.7696732759779894
aF-0.4125846917289113
aa(lp61
S'1HB'
p62
aF1.2196637583624446
aF-1.6516895386525898
aF1.9283447161860754
aa(lp63
S'2HB'
p64
aF-0.4210493566934711
aF-1.2242880479462113
aF2.4222408994326026
aa(lp65
S'HG'
p66
aF0.3634523926168529
aF-3.764314521966014
aF0.9479642915304192
aa(lp67
S'1HD1'
p68
aF-0.10481993643068388
aF-4.857436768098321
aF3.096064564064059
aa(lp69
S'2HD1'
p70
aF1.2331121992756902
aF-3.6919295987850944
aF3.2294798500086483
aa(lp71
S'3HD1'
p72
aF-0.38232224692472006
aF-3.2675903078097437
aF3.845107753992627
aa(lp73
S'1HD2'
p74
aF-1.9589477781409
aF-4.439069125702067
aF1.4577570647249356
aa(lp75
S'2HD2'
p76
aF-2.264122585752816
aF-2.842727213787016
aF2.1837776133751987
aa(lp77
S'3HD2'
p78
aF-1.9250469491341968
aF-2.977502252890763
aF0.44160155984723337
aaa(lp79
(lp80
S'N'
p81
aF1.1347908077532938
aF-0.43808477089591324
aF-0.25519920875211344
aa(lp82
S'H'
p83
aF1.2952704877785934
aF0.5583153361307547
aF-0.20965693151193937
aa(lp84
S'CA'
p85
aF-0.021079205954575353
aF-1.0030744119002846
aF0.4312264732912756
aa(lp86
S'C'
p87
aF-1.2073146048912193
aF-0.04874126778767102
aF0.3892880856522701
aa(lp88
S'O'
p89
aF-1.2016674846860909
aF0.9315851144531168
aF-0.35565841867946385
aa(lp90
S'CB'
p91
aF0.33254173633242534
aF-1.326230119072919
aF1.8883430156782652
aa(lp92
S'CG'
p93
aF1.1908674491542113
aF-0.28042618677500597
aF2.6114516561322385
aa(lp94
S'CD1'
p95
aF0.34632103592874275
aF0.9506061119052704
aF2.911696282252259
aa(lp96
S'CD2'
p97
aF1.7537962243733074
aF-0.8820307447144251
aF3.890465788148318
aa(lp98
S'HA'
p99
aF-0.304559877967803
aF-1.9261838827374036
aF-0.07311231507002028
aa(lp100
S'1HB'
p101
aF-0.5908531570160018
aF-1.4435922023458168
aF2.451769153115893
aa(lp102
S'2HB'
p103
aF0.8723559774707358
aF-2.271872442663126
aF1.9137237347221705
aa(lp104
S'HG'
p105
aF2.011928218609494
aF0.02845551553680061
aF1.9632554614207434
aa(lp106
S'1HD1'
p107
aF0.9565264770595345
aF1.6941709964888958
aF3.426411331603365
aa(lp108
S'2HD1'
p109
aF-0.026481288881111564
aF1.3722340709515664
aF1.9788719200238551
aa(lp110
S'3HD1'
p111
aF-0.4932973333599757
aF0.6699777897414211
aF3.5459152812994836
aa(lp112
S'1HD2'
p113
aF2.3648292568657254
aF-0.1383731248736548
aF4.404627219661695
aa(lp114
S'2HD2'
p115
aF0.9344260606145305
aF-1.1894285668244322
aF4.539631494038526
aa(lp116
S'3HD2'
p117
aF2.368343902624231
aF-1.749397883403108
aF3.6450958676621146
aaa(lp118
(lp119
S'N'
p120
aF1.1684996347557821
aF-0.4335138226393823
aF-0.15823908858494765
aa(lp121
S'H'
p122
aF1.2000257108556798
aF0.5627586674372271
aF-0.32048652937307087
aa(lp123
S'CA'
p124
aF-0.019702275428438887
aF-1.0156577154972377
aF0.45447757402744704
aa(lp125
S'C'
p126
aF-1.2266170699428425
aF-0.10075364767462194
aF0.29588934790744875
aa(lp127
S'O'
p128
aF-1.122206000240181
aF0.9871665183740143
aF-0.27164130397688
aa(lp129
S'CB'
p130
aF0.23183486672351739
aF-1.2876572591053708
aF1.9426940617720878
aa(lp131
S'CG'
p132
aF0.26092406070419394
aF-0.050072201114490955
aF2.8493340360900445
aa(lp133
S'CD1'
p134
aF-0.992645342953541
aF-0.023517409792870092
aF3.713764827577169
aa(lp135
S'CD2'
p136
aF1.5174891121631848
aF-0.0797470188971734
aF3.7074206731153665
aa(lp137
S'HA'
p138
aF-0.2367465160039398
aF-1.9609998376729836
aF-0.042201466876496174
aa(lp139
S'1HB'
p140
aF-0.550221262710213
aF-1.949771997872812
aF2.3117608350287107
aa(lp141
S'2HB'
p142
aF1.1894235190847606
aF-1.7975729583528568
aF2.046510980094311
aa(lp143
S'HG'
p144
aF0.2620988514904411
aF0.8503085862985309
aF2.235670400598975
aa(lp145
S'1HD1'
p146
aF-0.9707754978131511
aF0.8556997384249125
aF4.358171466395644
aa(lp147
S'2HD1'
p148
aF-1.87428347646678
aF0.016564341583969022
aF3.0747455362080762
aa(lp149
S'3HD1'
p150
aF-1.029126646498033
aF-0.9228382866920704
aF4.3285803079165515
aa(lp151
S'1HD2'
p152
aF1.5384983698190788
aF0.7999745520465216
aF4.351897646101296
aa(lp153
S'2HD2'
p154
aF1.516737142507055
aF-0.9797069220922991
aF4.3232393210813544
aa(lp155
S'3HD2'
p156
aF2.3973027918731473
aF-0.08098547378481857
aF3.0645090499316616
aaa(lp157
(lp158
S'N'
p159
aF1.165508240986341
aF-0.4424325290155847
aF-0.20060846807103755
aa(lp160
S'H'
p161
aF1.257501414548682
aF0.563199387812698
aF-0.23266628886769758
aa(lp162
S'CA'
p163
aF-0.03640150695847037
aF-1.0280049600359844
aF0.3807218045142652
aa(lp164
S'C'
p165
aF-1.177039162395282
aF-0.018991122061291055
aF0.4197962690051956
aa(lp166
S'O'
p167
aF-1.2095689861812802
aF0.9262292233001319
aF-0.36724331658072207
aa(lp168
S'CB'
p169
aF0.25458153693026764
aF-1.5351956892251122
aF1.798980043479876
aa(lp170
S'CG'
p171
aF0.6905085466295079
aF-0.468236027597425
aF2.8112446939907936
aa(lp172
S'CD1'
p173
aF1.3073867119555427
aF-1.1439838914680824
aF4.0286998897241775
aa(lp174
S'CD2'
p175
aF1.6789711130404743
aF0.4821114760678549
aF2.1537012527784127
aa(lp176
S'HA'
p177
aF-0.3441127733606857
aF-1.8708476355756913
aF-0.23628305836625266
aa(lp178
S'1HB'
p179
aF-0.6428307715125127
aF-2.013129139393774
aF2.1882161747232196
aa(lp180
S'2HB'
p181
aF1.0452687803356444
aF-2.2834917027705397
aF1.7452793989025717
aa(lp182
S'HG'
p183
aF-0.18251165376768494
aF0.09220687457000504
aF3.1480539621361356
aa(lp184
S'1HD1'
p185
aF1.6166859218103609
aF-0.3851055162509807
aF4.747392877314163
aa(lp186
S'2HD1'
p187
aF0.5724028664025049
aF-1.8031012485634048
aF4.490492111780543
aa(lp188
S'3HD1'
p189
aF2.1747143727658944
aF-1.7264527805688985
aF3.719412447329732
aa(lp190
S'1HD2'
p191
aF1.9881976374785741
aF1.241974980537695
aF2.8725499233334424
aa(lp192
S'2HD2'
p193
aF2.553166695565609
aF-0.07634356897829105
aF1.8177086246508927
aa(lp194
S'3HD2'
p195
aF1.2065093785858303
aF0.9652135822417207
aF1.2977367298649367
aaa(lp196
(lp197
S'N'
p198
aF1.1657331098618866
aF-0.434779640481075
aF-0.16815998571261925
aa(lp199
S'H'
p200
aF1.2075357260298119
aF0.5654164783350935
aF-0.3037559487298968
aa(lp201
S'CA'
p202
aF-0.022101699637049863
aF-1.0194287428824762
aF0.4422537202310293
aa(lp203
S'C'
p204
aF-1.2200165743748899
aF-0.08775790636222211
aF0.3211776893270728
aa(lp205
S'O'
p206
aF-1.1311505618797677
aF0.9765498113907338
aF-0.2915154751155687
aa(lp207
S'CB'
p208
aF0.24161972225887696
aF-1.334167223303378
aF1.9203953577527972
aa(lp209
S'CG'
p210
aF1.2907411277563245
aF-0.4527240782683599
aF2.6113969920474354
aa(lp211
S'CD1'
p212
aF1.4594434518926498
aF0.8432222521922605
aF1.8297342550587719
aa(lp213
S'CD2'
p214
aF0.8576603150340243
aF-0.1758942821808983
aF4.043358330090445
aa(lp215
S'HA'
p216
aF-0.25536500232678416
aF-1.9481939475367447
aF-0.07679100447175338
aa(lp217
S'1HB'
p218
aF-0.6922123923235027
aF-1.2289485153018287
aF2.4702695299604844
aa(lp219
S'2HB'
p220
aF0.5720950304896117
aF-2.3690114967946867
aF2.0024221842917336
aa(lp221
S'HG'
p222
aF2.251927637658811
aF-0.9677623929137662
aF2.6159825812895248
aa(lp223
S'1HD1'
p224
aF2.204818668604628
aF1.469312081111886
aF2.320761049068005
aa(lp225
S'2HD1'
p226
aF1.7880402813034764
aF0.6159022904885462
aF0.8156160377329307
aa(lp227
S'3HD1'
p228
aF0.5087523261868611
aF1.3729473184707013
aF1.793793502971735
aa(lp229
S'1HD2'
p230
aF1.6039291048265434
aF0.45033310914885344
aF4.534812445680053
aa(lp231
S'2HD2'
p232
aF-0.10289650353944646
aF0.340212625403013
aF4.0394521508585495
aa(lp233
S'3HD2'
p234
aF0.7621059268470223
aF-1.1172340325625914
aF4.583648838289053
aaa(lp235
(lp236
S'N'
p237
aF1.1387136168308811
aF-0.4387233147246414
aF-0.26000898438508646
aa(lp238
S'H'
p239
aF1.310341225767216
aF0.5537384565785826
aF-0.18792156278837877
aa(lp240
S'CA'
p241
aF-0.027469540169237056
aF-1.0076150026671735
aF0.40538420142247206
aa(lp242
S'C'
p243
aF-1.1880067112732673
aF-0.02026632665681355
aF0.4219391543499045
aa(lp244
S'O'
p245
aF-1.233578591155583
aF0.9128661874700181
aF-0.37939280859886937
aa(lp246
S'CB'
p247
aF0.3264173676164879
aF-1.4142355161996096
aF1.8405520712106986
aa(lp248
S'CG'
p249
aF0.7770826648542926
aF-0.2750275595028461
aF2.76283566168835
aa(lp250
S'CD1'
p251
aF0.3564603195717505
aF-0.5819630300894217
aF4.194640627298128
aa(lp252
S'CD2'
p253
aF2.2856567809608936
aF-0.1046914468523006
aF2.660944813520851
aa(lp254
S'HA'
p255
aF-0.34042744032228134
aF-1.8956779701804385
aF-0.14378564340090852
aa(lp256
S'1HB'
p257
aF-0.5452743092577637
aF-1.882637901894516
aF2.2947897023504655
aa(lp258
S'2HB'
p259
aF1.1312944937261304
aF-2.1493476479316054
aF1.8053247289049854
aa(lp260
S'HG'
p261
aF0.28587874748816955
aF0.651474740717048
aF2.4632139013780927
aa(lp262
S'1HD1'
p263
aF0.6763720256450882
aF0.22774849104943987
aF4.849298364480117
aa(lp264
S'2HD1'
p265
aF-0.7279376201526564
aF-0.6796926965349392
aF4.241342025755954
aa(lp266
S'3HD1'
p267
aF0.8202337355920932
aF-1.514365323541776
aF4.517169977524751
aa(lp268
S'1HD2'
p269
aF2.605160021307309
aF0.7061908256583387
aF3.316811888114577
aa(lp270
S'2HD2'
p271
aF2.7769668748444034
aF-1.0290346465317175
aF2.9626467207978693
aa(lp272
S'3HD2'
p273
aF2.556454931109438
aF0.13274010374068534
aF1.6319833853520735
aaa(lp274
(lp275
S'N'
p276
aF1.1393308504466937
aF-0.4387361688202834
aF-0.24569515133456052
aa(lp277
S'H'
p278
aF1.2859931377595597
aF0.5600042690503049
aF-0.21598469455208655
aa(lp279
S'CA'
p280
aF-0.022918372145896482
aF-1.0069269949436555
aF0.42606442596386673
aa(lp281
S'C'
p282
aF-1.2043716414922225
aF-0.04714432474908231
aF0.39044984545173367
aa(lp283
S'O'
p284
aF-1.1980339745681308
aF0.9328032194627276
aF-0.3548344255289422
aa(lp285
S'CB'
p286
aF0.3218429182290572
aF-1.3496690355030305
aF1.881304800023143
aa(lp287
S'CG'
p288
aF1.2899603455179083
aF-2.5227919138925636
aF2.077193439761835
aa(lp289
S'CD1'
p290
aF2.61177263546553
aF-2.0047039527085992
aF2.627962115904254
aa(lp291
S'CD2'
p292
aF0.667631046041979
aF-3.543031847815329
aF3.019121632483056
aa(lp293
S'HA'
p294
aF-0.3075896331727641
aF-1.9229920852726972
aF-0.09143728748820018
aa(lp295
S'1HB'
p296
aF0.7658930396817414
aF-0.47233571217722947
aF2.3485250151465498
aa(lp297
S'2HB'
p298
aF-0.6015921264176005
aF-1.5891890188986886
aF2.409212837348367
aa(lp299
S'HG'
p300
aF1.4908511803518114
aF-2.99319065484572
aF1.1146749220233871
aa(lp301
S'1HD1'
p302
aF3.3003381493090056
aF-2.838140085648469
aF2.7666262621559294
aa(lp303
S'2HD1'
p304
aF3.0436749949313087
aF-1.291912541105448
aF1.9257045026079112
aa(lp305
S'3HD1'
p306
aF2.4392765218761037
aF-1.5129163583206515
aF3.584376802534824
aa(lp307
S'1HD2'
p308
aF1.3564586624135746
aF-4.377407193215152
aF3.158007549381642
aa(lp309
S'2HD2'
p310
aF0.4671479300082946
aF-3.0733066553314594
aF3.982814925876459
aa(lp311
S'3HD2'
p312
aF-0.26552699515511935
aF-3.9093147975702274
aF2.593301399440941
aaa(lp313
(lp314
S'N'
p315
aF1.1727623487423398
aF-0.4319733715193279
aF-0.15139669636620107
aa(lp316
S'H'
p317
aF1.1981422394446613
aF0.5656261151151587
aF-0.3093369553711299
aa(lp318
S'CA'
p319
aF-0.026796727041054097
aF-1.0297870419124753
aF0.4222424229385841
aa(lp320
S'C'
p321
aF-1.2120360176153149
aF-0.0764375037508957
aF0.3385257449936781
aa(lp322
S'O'
p323
aF-1.132071843530607
aF0.972571802067498
aF-0.3000345161950067
aa(lp324
S'CB'
p325
aF0.22278057614074137
aF-1.4181731044487182
aF1.8851468751035414
aa(lp326
S'CG'
p327
aF-0.9619642845659565
aF-2.0687833820060075
aF2.6120408713408847
aa(lp328
S'CD1'
p329
aF-0.49015538209686443
aF-3.3277755676577248
aF3.3262824523334915
aa(lp330
S'CD2'
p331
aF-1.562707845005615
aF-1.0745937210847154
aF3.5942242008204093
aa(lp332
S'HA'
p333
aF-0.26914165836553733
aF-1.9286819939862834
aF-0.14278660233140733
aa(lp334
S'1HB'
p335
aF1.0574488416639494
aF-2.1164532393632403
aF1.9215713134964387
aa(lp336
S'2HB'
p337
aF0.5010468637206518
aF-0.5230924996259009
aF2.4407893717383327
aa(lp338
S'HG'
p339
aF-1.719024341381916
aF-2.362064011602279
aF1.8838749955423784
aa(lp340
S'1HD1'
p341
aF-1.3324895781552453
aF-3.789614538944298
aF3.843068546139871
aa(lp342
S'2HD1'
p343
aF-0.08318543684488555
aF-4.028678759058668
aF2.5981539060275938
aa(lp344
S'3HD1'
p345
aF0.28068672012755297
aF-3.067705626384856
aF4.050692611762909
aa(lp346
S'1HD2'
p347
aF-2.4049766466772065
aF-1.5359541334566242
aF4.109681120093709
aa(lp348
S'2HD2'
p349
aF-0.8067080403442118
aF-0.7816911769809025
aF4.323706479569819
aa(lp350
S'3HD2'
p351
aF-1.9069446835339776
aF-0.1923612826557371
aF3.0545577078975565
aaa(lp352
(lp353
S'N'
p354
aF1.1795662817463737
aF-0.42510636103962485
aF-0.12324174930061757
aa(lp355
S'H'
p356
aF1.1786455431109228
aF0.5595333944829111
aF-0.3459673744201684
aa(lp357
S'CA'
p358
aF-0.024416144473460886
aF-1.02847145829457
aF0.4367849257500754
aa(lp359
S'C'
p360
aF-1.2217659384096053
aF-0.09774025073928846
aF0.2975301583495882
aa(lp361
S'O'
p362
aF-1.1120297419742475
aF0.9917846755905683
aF-0.2651059603788758
aa(lp363
S'CB'
p364
aF0.19402180201621608
aF-1.3722801764982304
aF1.9153042623907952
aa(lp365
S'CG'
p366
aF-1.0657576977087262
aF-1.7552896710968782
aF2.702881140619252
aa(lp367
S'CD1'
p368
aF-1.642467248960621
aF-3.0474957971827528
aF2.1409003391669588
aa(lp369
S'CD2'
p370
aF-0.7177561137590796
aF-1.9055193164527724
aF4.1763600007406945
aa(lp371
S'HA'
p372
aF-0.23698438585963605
aF-1.9463862326384698
aF-0.10903758184298618
aa(lp373
S'1HB'
p374
aF0.8903375135681421
aF-2.2073397588733403
aF1.9788174399954845
aa(lp375
S'2HB'
p376
aF0.6452951095730969
aF-0.5115506152527738
aF2.4096705479371106
aa(lp377
S'HG'
p378
aF-1.8186012109257441
aF-0.9751280162824718
aF2.585397367423514
aa(lp379
S'1HD1'
p380
aF-2.538269224707633
aF-3.319630598808377
aF2.70037819394936
aa(lp381
S'2HD1'
p382
aF-1.900000165779838
aF-2.9055099573381042
aF1.0921077867343099
aa(lp383
S'3HD1'
p384
aF-0.9037388600658359
aF-3.843789477596685
aF2.2302856957627553
aa(lp385
S'1HD2'
p386
aF-1.6136949735956432
aF-2.176450167856707
aF4.7351086322310145
aa(lp387
S'2HD2'
p388
aF0.034452313997408286
aF-2.6863514066952185
aF4.294227418035386
aa(lp389
S'3HD2'
p390
aF-0.3245710138888409
aF-0.9620887784502581
aF4.55487591481077
aaa(lp391
(lp392
S'N'
p393
aF1.1772070510978436
aF-0.4276202274962231
aF-0.13222306864379624
aa(lp394
S'H'
p395
aF1.1838307085234296
aF0.5619647504210983
aF-0.3330680303497713
aa(lp396
S'CA'
p397
aF-0.024923068987473818
aF-1.029834122587384
aF0.43016434137070214
aa(lp398
S'C'
p399
aF-1.21782779967632
aF-0.08958793272633142
aF0.3138612633718832
aa(lp400
S'O'
p401
aF-1.1182868909575208
aF0.9850775323889267
aF-0.2787345057490553
aa(lp402
S'CB'
p403
aF0.20403682513626498
aF-1.3962258149099
aF1.9021397129988724
aa(lp404
S'CG'
p405
aF0.08447816383699491
aF-2.886719504574827
aF2.243601698551187
aa(lp406
S'CD1'
p407
aF1.4669392929293907
aF-3.4547384257018052
aF2.531530043439955
aa(lp408
S'CD2'
p409
aF-0.839520819650168
aF-3.0614951318600134
aF3.4392075527614123
aa(lp410
S'HA'
p411
aF-0.2493664163303424
aF-1.9395935491449494
aF-0.12575648898482472
aa(lp412
S'1HB'
p413
aF1.2029468595127468
aF-1.0696063446171808
aF2.189227617389988
aa(lp414
S'2HB'
p415
aF-0.5215168987574609
aF-0.8567285210736135
aF2.5112443539985
aa(lp416
S'HG'
p417
aF-0.32474181778449895
aF-3.4241516848216103
aF1.3872777772008078
aa(lp418
S'1HD1'
p419
aF1.3818825326217845
aF-4.514018406693049
aF2.7743494606972012
aa(lp420
S'2HD1'
p421
aF2.100219990439654
aF-3.3343329895537597
aF1.65320602059479
aa(lp422
S'3HD1'
p423
aF1.9093921211775058
aF-2.925429762399434
aF3.3746408509429084
aa(lp424
S'1HD2'
p425
aF-0.9253735063850108
aF-4.1203600276285215
aF3.681586282623508
aa(lp426
S'2HD2'
p427
aF-0.4300200999552892
aF-2.525324735689816
aF4.29610513522974
aa(lp428
S'3HD2'
p429
aF-1.8251937614808371
aF-2.6624498633589133
aF3.199039433666216
aaa(lp430
(lp431
S'N'
p432
aF1.1687483229344544
aF-0.4336207100836256
aF-0.15716958174044582
aa(lp433
S'H'
p434
aF1.1989665414680535
aF0.5637267183608659
aF-0.3185850898052338
aa(lp435
S'CA'
p436
aF-0.02037109975261342
aF-1.0184828169868188
aF0.4494401070192508
aa(lp437
S'C'
p438
aF-1.2240566434614664
aF-0.09658855324571164
aF0.30269857115579507
aa(lp439
S'O'
p440
aF-1.1232871211884463
aF0.9849653619552667
aF-0.2763840066293596
aa(lp441
S'CB'
p442
aF0.23155466411405395
aF-1.3074328072795947
aF1.9352652355623108
aa(lp443
S'CG'
p444
aF0.4829755270360549
aF-0.07955556650600154
aF2.8191685285066157
aa(lp445
S'CD1'
p446
aF1.6017815231027126
aF0.7592386237316151
aF2.217804703863903
aa(lp447
S'CD2'
p448
aF-0.8007536004811635
aF0.7294723489042918
aF2.942210632075908
aa(lp449
S'HA'
p450
aF-0.24200524572610999
aF-1.9568990844478338
aF-0.05721777982662807
aa(lp451
S'1HB'
p452
aF-0.6336655302857719
aF-1.8341564141874516
aF2.3373774800024725
aa(lp453
S'2HB'
p454
aF1.0993394625586637
aF-1.9609333080359823
aF2.0196491149445497
aa(lp455
S'HG'
p456
aF0.8035589807621581
aF-0.4028848719990654
aF3.809282870088644
aa(lp457
S'1HD1'
p458
aF1.7814139407738105
aF1.6320275743406492
aF2.8454332900647086
aa(lp459
S'2HD1'
p460
aF2.512253022237582
aF0.16261408951877393
aF2.158993017623746
aa(lp461
S'3HD1'
p462
aF1.3156918487979044
aF1.0843406575129673
aF1.2182015996833502
aa(lp463
S'1HD2'
p464
aF-0.6218780486342532
aF1.6017652409926335
aF3.571316066294702
aa(lp465
S'2HD2'
p466
aF-1.1219514530254555
aF1.0540705583963814
aF1.9522076311130492
aa(lp467
S'3HD2'
p468
aF-1.5782008951877664
aF0.11111637181495615
aF3.3910286236396225
aaa(lp469
(lp470
S'N'
p471
aF1.1794311285176857
aF-0.4342042509666383
aF-0.1464360663430202
aa(lp472
S'H'
p473
aF1.208731454841535
aF0.5651609892262539
aF-0.2920403505228233
aa(lp474
S'CA'
p475
aF-0.03526728866133705
aF-1.0390113764565316
aF0.3851672596994644
aa(lp476
S'C'
p477
aF-1.1913536168342804
aF-0.04673864925710115
aF0.38468077456702077
aa(lp478
S'O'
p479
aF-1.1615416778635572
aF0.9547932874539824
aF-0.33137161740059934
aa(lp480
S'CB'
p481
aF0.20695354373476604
aF-1.5491040627557666
aF1.8112053095906284
aa(lp482
S'CG'
p483
aF-0.2374299339623271
aF-2.99212484688001
aF2.0856107419990977
aa(lp484
S'CD1'
p485
aF-1.6140990797417363
aF-3.224662003684733
aF1.4794238617681228
aa(lp486
S'CD2'
p487
aF0.7861575039636086
aF-3.957260976568825
aF1.5065546064737894
aa(lp488
S'HA'
p489
aF-0.30725310094075
aF-1.8830926235167083
aF-0.2473740956916632
aa(lp490
S'1HB'
p491
aF1.2721591857525762
aF-1.4834982836910724
aF2.0273391152915377
aa(lp492
S'2HB'
p493
aF-0.3244552850042839
aF-0.9011005567744853
aF2.5073986110336652
aa(lp494
S'HG'
p495
aF-0.3160548089938119
aF-3.1500055743871305
aF3.161497727192296
aa(lp496
S'1HD1'
p497
aF-1.9289947076995118
aF-4.249793214329171
aF1.6742667329637637
aa(lp498
S'2HD1'
p499
aF-2.3293966364611753
aF-2.534120881770541
aF1.9251685917388808
aa(lp500
S'3HD1'
p501
aF-1.5704683526174352
aF-3.057704325749319
aF0.40367319668396273
aa(lp502
S'1HD2'
p503
aF0.47096717176355285
aF-4.982667357635911
aF1.7027529962595154
aa(lp504
S'2HD2'
p505
aF0.8647088113782844
aF-3.800761114048627
aF0.4303713111497051
aa(lp506
S'3HD2'
p507
aF1.7566341352164905
aF-3.781122588376191
aF1.9701938804756376
aaa(lp508
(lp509
S'N'
p510
aF1.187234423111808
aF-0.41951269432802274
aF-0.09890482230919942
aa(lp511
S'H'
p512
aF1.1694924226350238
aF0.5568104884953754
aF-0.35967150749093557
aa(lp513
S'CA'
p514
aF-0.028596946843418555
aF-1.0374683271907443
aF0.4165056118556795
aa(lp515
S'C'
p516
aF-1.2169462432855926
aF-0.09098766869554381
aF0.30997245861275097
aa(lp517
S'O'
p518
aF-1.1111836556178225
aF0.991158201718933
aF-0.26790174066829664
aa(lp519
S'CB'
p520
aF0.1696576202286889
aF-1.4571296488682317
aF1.879355399674974
aa(lp521
S'CG'
p522
aF-0.3990731294167922
aF-2.829112774527763
aF2.2612580539118716
aa(lp523
S'CD1'
p524
aF-0.0011434155085041087
aF-3.8550870974668663
aF1.2083337302026527
aa(lp525
S'CD2'
p526
aF0.11659418293863133
aF-3.2285686352492178
aF3.6360119367226877
aa(lp527
S'HA'
p528
aF-0.2429128609105753
aF-1.9261292920076154
aF-0.17630749409619206
aa(lp529
S'1HB'
p530
aF1.2366711134480723
aF-1.4686148293327115
aF2.095501868342558
aa(lp531
S'2HB'
p532
aF-0.30229217567704003
aF-0.7127904004583164
aF2.5205070770658256
aa(lp533
S'HG'
p534
aF-1.4886643603120508
aF-2.7784642373806525
aF2.2822264883077357
aa(lp535
S'1HD1'
p536
aF-0.4056621536408198
aF-4.830503962259689
aF1.4789007835879073
aa(lp537
S'2HD1'
p538
aF-0.39905225242904696
aF-3.555007186859061
aF0.23875309675840356
aa(lp539
S'3HD1'
p540
aF1.0854825924529206
aF-3.915921150958121
aF1.1520741820562161
aa(lp541
S'1HD2'
p542
aF-0.2891171347605299
aF-4.204012204329069
aF3.9073386221621607
aa(lp543
S'2HD2'
p544
aF1.2051819351128001
aF-3.2801697969064008
aF3.6147510352361447
aa(lp545
S'3HD2'
p546
aF-0.19766541282229022
aF-2.4869263806391015
aF4.3706116050108
aaa(lp547
(lp548
S'N'
p549
aF1.1628635885110794
aF-0.442234761951308
aF-0.20784207908157282
aa(lp550
S'H'
p551
aF1.2608764477845265
aF0.5629017416107658
aF-0.2282158029449441
aa(lp552
S'CA'
p553
aF-0.03512020500302723
aF-1.0259604209439517
aF0.3852853823557925
aa(lp554
S'C'
p555
aF-1.1793901580073223
aF-0.020403353019421012
aF0.4185608658021976
aa(lp556
S'O'
p557
aF-1.209229673285355
aF0.9256967943039209
aF-0.36778836613150134
aa(lp558
S'CB'
p559
aF0.26291850357804636
aF-1.518335084120821
aF1.8071598913223115
aa(lp560
S'CG'
p561
aF1.0187607889444898
aF-2.8499807074188417
aF1.9052586864385452
aa(lp562
S'CD1'
p563
aF1.1219298856371878
aF-3.269011055095673
aF3.3651390600354567
aa(lp564
S'CD2'
p565
aF0.2967407316255851
aF-3.9057311526631455
aF1.082504753481893
aa(lp566
S'HA'
p567
aF-0.3424185926647626
aF-1.8759706882092757
aF-0.22253387242644107
aa(lp568
S'1HB'
p569
aF0.8556018306561407
aF-0.7627694731545825
aF2.3192000082358666
aa(lp570
S'2HB'
p571
aF-0.6803106624337525
aF-1.6329642049254094
aF2.340174811421416
aa(lp572
S'HG'
p573
aF2.031605251499645
aF-2.7219793776075507
aF1.5225397892856982
aa(lp574
S'1HD1'
p575
aF1.659112955893777
aF-4.214499256162796
aF3.4353345775031165
aa(lp576
S'2HD1'
p577
aF1.660080129789767
aF-2.5048918779539715
aF3.926534818696661
aa(lp578
S'3HD1'
p579
aF0.12198197665215071
aF-3.3885843713892663
aF3.7805634230030316
aa(lp580
S'1HD2'
p581
aF0.8344632983453445
aF-4.85199469249448
aF1.1516477533169418
aa(lp582
S'2HD2'
p583
aF-0.7166152907223695
aF-4.035025004787904
aF1.4649634725273128
aa(lp584
S'3HD2'
p585
aF0.2522050421111832
aF-3.5885677284859328
aF0.040302789022187424
aaa(lp586
(lp587
S'N'
p588
aF1.1735122544644323
aF-0.4504484171142264
aF-0.21376017435688305
aa(lp589
S'H'
p590
aF1.3016441007220563
aF0.5508819390426314
aF-0.1912713368282347
aa(lp591
S'CA'
p592
aF-0.046859352133348575
aF-1.0223818663815607
aF0.3409057353753716
aa(lp593
S'C'
p594
aF-1.141759408169316
aF0.029139810970726376
aF0.4647000379529478
aa(lp595
S'O'
p596
aF-1.2865375948838573
aF0.8928085334823717
aF-0.40057426214313196
aa(lp597
S'CB'
p598
aF0.2343303239498512
aF-1.6404416008544227
aF1.7163713040784137
aa(lp599
S'CG'
p600
aF-0.13169879532947815
aF-3.1224074289328723
aF1.8670397090189796
aa(lp601
S'CD1'
p602
aF-1.564650617129389
aF-3.2445188023628213
aF2.368425676991129
aa(lp603
S'CD2'
p604
aF0.04167148194987025
aF-3.8273182593190227
aF0.5299034152327503
aa(lp605
S'HA'
p606
aF-0.3978740022063909
aF-1.8057021107007953
aF-0.3304720347911344
aa(lp607
S'1HB'
p608
aF1.2965298417847257
aF-1.5376916357406814
aF1.9324676459736352
aa(lp609
S'2HB'
p610
aF-0.32380097974442223
aF-1.0829711734279888
aF2.467914496703775
aa(lp611
S'HG'
p612
aF0.5212647279921612
aF-3.5849128242475814
aF2.6074635042309993
aa(lp613
S'1HD1'
p614
aF-1.824278263793948
aF-4.297541745479069
aF2.476097244074589
aa(lp615
S'2HD1'
p616
aF-1.6546115006945767
aF-2.748608883812348
aF3.335358659214525
aa(lp617
S'3HD1'
p618
aF-2.2400242353865893
aF-2.7752297565669073
aF1.6543603667721323
aa(lp619
S'1HD2'
p620
aF-0.21795434796944768
aF-4.880721127257724
aF0.6366499667332439
aa(lp621
S'2HD2'
p622
aF-0.6118172954623294
aF-3.3663581327198404
aF-0.212048860511436
aa(lp623
S'3HD2'
p624
aF1.0783587857816423
aF-3.7395707479192764
aF0.2040126232223587
aaa(lp625
(lp626
S'N'
p627
aF1.1906327747983654
aF-0.41350852739571065
aF-0.08099514397151106
aa(lp628
S'H'
p629
aF1.1632003880569146
aF0.5519282298672857
aF-0.3762650745150415
aa(lp630
S'CA'
p631
aF-0.028694728801144435
aF-1.039923377994507
aF0.4133800919728858
aa(lp632
S'C'
p633
aF-1.2187496048224022
aF-0.0950855851183465
aF0.3012866612512887
aa(lp634
S'O'
p635
aF-1.106388829231745
aF0.9965892606413156
aF-0.2574065347376028
aa(lp636
S'CB'
p637
aF0.15207378759813894
aF-1.472875497561933
aF1.8732517320977555
aa(lp638
S'CG'
p639
aF-0.009211872816947977
aF-0.3648837370186784
aF2.921094370241832
aa(lp640
S'CD1'
p641
aF0.12994156822360026
aF0.9940083792972545
aF2.2487302307601236
aa(lp642
S'CD2'
p643
aF-1.3638953864825152
aF-0.5020549992465402
aF3.6011264449423743
aa(lp644
S'HA'
p645
aF-0.23405153652544633
aF-1.9231478153816077
aF-0.19195384456422682
aa(lp646
S'1HB'
p647
aF-0.5772284811096093
aF-2.25004452837885
aF2.0976631809964825
aa(lp648
S'2HB'
p649
aF1.1496425582616798
aF-1.8963441051706909
aF1.9887025275334416
aa(lp650
S'HG'
p651
aF0.7815053311990978
aF-0.45089296701666637
aF3.666511512269166
aa(lp652
S'1HD1'
p653
aF0.015011286430084637
aF1.781980568471207
aF2.993093622804143
aa(lp654
S'2HD1'
p655
aF1.1147651020866662
aF1.0728767680720062
aF1.7880411985469173
aa(lp656
S'3HD1'
p657
aF-0.6392501933665669
aF1.1028044879050765
aF1.485135809189607
aa(lp658
S'1HD2'
p659
aF-1.4778417511335005
aF0.28551107517270147
aF4.346420953446695
aa(lp660
S'2HD2'
p661
aF-2.154883868465806
aF-0.4153020902151199
aF2.856320326449543
aa(lp662
S'3HD2'
p663
aF-1.4290334809765604
aF-1.4750143627589403
aF4.0886673207663735
aaa(lp664
(lp665
S'N'
p666
aF1.1573150395060108
aF-0.4389328654439648
aF-0.2011413407689988
aa(lp667
S'H'
p668
aF1.239488812098248
aF0.5665550190248037
aF-0.2572001071172335
aa(lp669
S'CA'
p670
aF-0.025922526002824867
aF-1.0209718479315917
aF0.4200417936072263
aa(lp671
S'C'
p672
aF-1.204275911693665
aF-0.056960230567062925
aF0.37320270718215204
aa(lp673
S'O'
p674
aF-1.1666054139077155
aF0.9503099249178361
aF-0.33490305290314737
aa(lp675
S'CB'
p676
aF0.27243520316010256
aF-1.4026771439198293
aF1.8744642674652452
aa(lp677
S'CG'
p678
aF1.7065055625017471
aF-1.140473694064944
aF2.3513631617205593
aa(lp679
S'CD1'
p680
aF1.9224886282044538
aF0.35900191048577257
aF2.511582469817017
aa(lp681
S'CD2'
p682
aF1.947738986829542
aF-1.8711477410462745
aF3.662650648145642
aa(lp683
S'HA'
p684
aF-0.29747025319892384
aF-1.921211460135065
aF-0.13072174229030797
aa(lp685
S'1HB'
p686
aF-0.3998641416369832
aF-0.8456417643173223
aF2.5251555743508547
aa(lp687
S'2HB'
p688
aF0.06990646351126903
aF-2.466409930153301
aF2.003900232746258
aa(lp689
S'HG'
p690
aF2.4112497785593896
aF-1.4996750910682837
aF1.6000237268949042
aa(lp691
S'1HD1'
p692
aF2.941848672792072
aF0.5452837695270563
aF2.849153452708708
aa(lp693
S'2HD1'
p694
aF1.762339422669081
aF0.8534998377110194
aF1.5537948984128327
aa(lp695
S'3HD1'
p696
aF1.21972560988945
aF0.751040655543713
aF3.245928275593948
aa(lp697
S'1HD2'
p698
aF2.968246200135158
aF-1.6851647173695086
aF4.001484445892083
aa(lp699
S'2HD2'
p700
aF1.2448489006966101
aF-1.5110761826418644
aF4.414887312795984
aa(lp701
S'3HD2'
p702
aF1.8044869263064516
aF-2.9416824299653563
aF3.515693759988517
aaa(lp703
(lp704
S'N'
p705
aF1.1604349851373468
aF-0.4438237082382757
aF-0.22197603761423312
aa(lp706
S'H'
p707
aF1.2822128907343215
aF0.5583867266845572
aF-0.20709699731584857
aa(lp708
S'CA'
p709
aF-0.03750966847881286
aF-1.022150393762416
aF0.3757930245520142
aa(lp710
S'C'
p711
aF-1.1691894184039813
aF-0.005084105422942137
aF0.435685500980008
aa(lp712
S'O'
p713
aF-1.2359487889888612
aF0.9126714807390743
aF-0.3824054906019353
aa(lp714
S'CB'
p715
aF0.2707891911113966
aF-1.5380031412037092
aF1.7867050544577217
aa(lp716
S'CG'
p717
aF1.62922823042457
aF-1.122937842549935
aF2.3648582991284948
aa(lp718
S'CD1'
p719
aF1.4141197836633328
aF-0.1805142901762843
aF3.5419327250096266
aa(lp720
S'CD2'
p721
aF2.3999728321828484
aF-2.363554066639379
aF2.79148945526518
aa(lp722
S'HA'
p723
aF-0.3610013740422113
aF-1.8598484304520813
aF-0.24072146494354077
aa(lp724
S'1HB'
p725
aF-0.5017073122840715
aF-1.1772559554938713
aF2.464061401031822
aa(lp726
S'2HB'
p727
aF0.23436858564387653
aF-2.627299541594879
aF1.7745029402056904
aa(lp728
S'HG'
p729
aF2.198841576081991
aF-0.5844824941176119
aF1.6066179189101994
aa(lp730
S'1HD1'
p731
aF2.379960241184115
aF0.11479242138111201
aF3.9526785791885892
aa(lp732
S'2HD1'
p733
aF0.8782475432428888
aF0.7064604891187459
aF3.204479494411211
aa(lp734
S'3HD1'
p735
aF0.8319909803858067
aF-0.686514298903342
aF4.311264283937827
aa(lp736
S'1HD2'
p737
aF3.3658132897036315
aF-2.0682473550819824
aF3.2022353094441414
aa(lp738
S'2HD2'
p739
aF1.831759526926172
aF-2.9015530428208716
aF3.551687285673127
aa(lp740
S'3HD2'
p741
aF2.5543518989913423
aF-3.010462704447163
aF1.9281695156940992
aaa(lp742
(lp743
S'N'
p744
aF1.180735420870706
aF-0.42440104426306186
aF-0.12076083607568477
aa(lp745
S'H'
p746
aF1.1777306345368879
aF0.55940565750699
aF-0.3463807483427887
aa(lp747
S'CA'
p748
aF-0.025077334076307023
aF-1.0304172034434882
aF0.43280489156584945
aa(lp749
S'C'
p750
aF-1.220866986448186
aF-0.0956109153816127
aF0.3019067973080668
aa(lp751
S'O'
p752
aF-1.1125217348831011
aF0.9910235055811711
aF-0.2675701044554464
aa(lp753
S'CB'
p754
aF0.19135357085235505
aF-1.3896979028814853
aF1.90738179441056
aa(lp755
S'CG'
p756
aF0.11286166525614272
aF-0.21911769633301303
aF2.896720462811233
aa(lp757
S'CD1'
p758
aF1.2718781131994072
aF-0.3069691275474385
aF3.880501434080017
aa(lp759
S'CD2'
p760
aF0.1433631469835123
aF1.0948626939804074
aF2.1308176011608646
aa(lp761
S'HA'
p762
aF-0.2399457972693496
aF-1.9423267522568546
aF-0.12348506727581515
aa(lp763
S'1HB'
p764
aF-0.5592116065346863
aF-2.121317739548426
aF2.2008257057282026
aa(lp765
S'2HB'
p766
aF1.1749033901841859
aF-1.8476983670285885
aF2.0130715655966114
aa(lp767
S'HG'
p768
aF-0.8136375288265392
aF-0.2856947153755749
aF3.466045276866921
aa(lp769
S'1HD1'
p770
aF1.2156529021710138
aF0.5249987194697701
aF4.582981488725248
aa(lp771
S'2HD1'
p772
aF1.213822437860859
aF-1.2473596066288912
aF4.427625081360901
aa(lp773
S'3HD1'
p774
aF2.214383938709199
aF-0.259396171372138
aF3.336664525879729
aa(lp775
S'1HD2'
p776
aF0.08713793595511876
aF1.9268305409976159
aF2.833297655806096
aa(lp777
S'2HD2'
p778
aF1.071171800426883
aF1.1625733128065547
aF1.5614764251567221
aa(lp779
S'3HD2'
p780
aF-0.705455597137323
aF1.1383737501885738
aF1.448165033878811
aaa(lp781
(lp782
S'N'
p783
aF1.1345935621514487
aF-0.43793433566411144
aF-0.25692210175639635
aa(lp784
S'H'
p785
aF1.2991690112737537
aF0.5574000716609107
aF-0.20487078917796886
aa(lp786
S'CA'
p787
aF-0.021995484494738288
aF-1.0040350788336871
aF0.4265709309519973
aa(lp788
S'C'
p789
aF-1.2037716418586009
aF-0.04315223850293354
aF0.3957280866570164
aa(lp790
S'O'
p791
aF-1.2079954470718486
aF0.9277215813398572
aF-0.3605061266746675
aa(lp792
S'CB'
p793
aF0.3337496987894583
aF-1.339949037180927
aF1.8809395833773657
aa(lp794
S'CG'
p795
aF0.7801459718541509
aF-0.15557672006307854
aF2.747058271455876
aa(lp796
S'CD1'
p797
aF2.2839448538993707
aF0.03882215571721048
aF2.6067300866357543
aa(lp798
S'CD2'
p799
aF0.02542893679249436
aF1.096240208214577
aF2.3244644060658923
aa(lp800
S'HA'
p801
aF-0.31099960749669653
aF-1.920998433425062
aF-0.08467150001829105
aa(lp802
S'1HB'
p803
aF-0.5358679772297607
aF-1.788671069194578
aF2.356224377517128
aa(lp804
S'2HB'
p805
aF1.140296110044014
aF-2.0725951715632367
aF1.8802127635539552
aa(lp806
S'HG'
p807
aF0.5686133871953184
aF-0.37084382286763584
aF3.7951360548659068
aa(lp808
S'1HD1'
p809
aF2.6004574181655107
aF0.8806557253262514
aF3.2230620083637946
aa(lp810
S'2HD1'
p811
aF2.799332327846789
aF-0.8636164771740983
aF2.934312542764534
aa(lp812
S'3HD1'
p813
aF2.5290346040000102
aF0.2407493092602199
aF1.5653577041242817
aa(lp814
S'1HD2'
p815
aF0.3419415010586361
aF1.9380737778236103
aF2.940796327793934
aa(lp816
S'2HD2'
p817
aF0.23820971045951142
aF1.3128282427124507
aF1.2776893749966525
aa(lp818
S'3HD2'
p819
aF-1.0453011312288019
aF0.9354995854352461
aF2.451734094615943
aaa(lp820
(lp821
S'N'
p822
aF1.1973559791190744
aF-0.43757553578374664
aF-0.11938555084837398
aa(lp823
S'H'
p824
aF1.2282372422853514
aF0.5570762952877764
aF-0.2862000661979801
aa(lp825
S'CA'
p826
aF-0.04919182484251275
aF-1.0449023249116056
aF0.3316562916077179
aa(lp827
S'C'
p828
aF-1.1613765486091931
aF-0.009812943698809085
aF0.430328035894199
aa(lp829
S'O'
p830
aF-1.2150248479527115
aF0.9352145091063854
aF-0.3563987104555568
aa(lp831
S'CB'
p832
aF0.15285542217206055
aF-1.7193991224719454
aF1.6950388424916119
aa(lp833
S'CG'
p834
aF1.4565172717007628
aF-1.367888557432483
aF2.4239703240103116
aa(lp835
S'CD1'
p836
aF1.3145635777012914
aF-1.6958477764832005
aF3.9043574015679168
aa(lp837
S'CD2'
p838
aF2.6107645647544726
aF-2.1396575445497157
aF1.8018073091964886
aa(lp839
S'HA'
p840
aF-0.34686954751346666
aF-1.8017961853326097
aF-0.3936254863809605
aa(lp841
S'1HB'
p842
aF-0.6750454390547269
aF-1.4434267815205066
aF2.3448729990344397
aa(lp843
S'2HB'
p844
aF0.132809709528115
aF-2.8000983315552985
aF1.5537292925977462
aa(lp845
S'HG'
p846
aF1.645194052970514
aF-0.29779067484537813
aF2.336006729880205
aa(lp847
S'1HD1'
p848
aF2.240147599002496
aF-1.4459025206301568
aF4.422152330655142
aa(lp849
S'2HD1'
p850
aF0.49442533266476696
aF-1.1151458813520296
aF4.328201203008351
aa(lp851
S'3HD1'
p852
aF1.1070308571955818
aF-2.7585819223734
aF4.022984148461376
aa(lp853
S'1HD2'
p854
aF3.5365543115031146
aF-1.888888303852285
aF2.319074293195191
aa(lp855
S'2HD2'
p856
aF2.4232727248014596
aF-3.209570989429701
aF1.8905205010907893
aa(lp857
S'3HD2'
p858
aF2.700226908022244
aF-1.8729539410262053
aF0.7489788915497105
aaa(lp859
(lp860
S'N'
p861
aF1.152434544259381
aF-0.43962602797917466
aF-0.2150602164997655
aa(lp862
S'H'
p863
aF1.2537026201691774
aF0.56550594141842
aF-0.24314047462609378
aa(lp864
S'CA'
p865
aF-0.025757995712476844
aF-1.0176944924131084
aF0.41992733391493087
aa(lp866
S'C'
p867
aF-1.2029925635172711
aF-0.05156448942877369
aF0.38131917805441756
aa(lp868
S'O'
p869
aF-1.1773866051988158
aF0.9433790684026342
aF-0.3430458208434949
aa(lp870
S'CB'
p871
aF0.28770833616507957
aF-1.3929330326257525
aF1.8741119496767382
aa(lp872
S'CG'
p873
aF1.10093857256945
aF-2.678761138572911
aF2.06938525700274
aa(lp874
S'CD1'
p875
aF0.72383540203222
aF-3.6868180219946205
aF0.992304239364385
aa(lp876
S'CD2'
p877
aF2.5866248573842903
aF-2.352893562247056
aF2.0173027665420102
aa(lp878
S'HA'
p879
aF-0.3035060022155044
aF-1.9200772931373173
aF-0.12222608149506964
aa(lp880
S'1HB'
p881
aF0.844208473284902
aF-0.5762454463191282
aF2.3315329633591784
aa(lp882
S'2HB'
p883
aF-0.6526370232008197
aF-1.5109350863329516
aF2.41261832887749
aa(lp884
S'HG'
p885
aF0.8593693946967049
aF-3.1188968174657434
aF3.036908856956473
aa(lp886
S'1HD1'
p887
aF1.301894482774576
aF-4.6010832775836015
aF1.131180953014003
aa(lp888
S'2HD1'
p889
aF-0.33891711608239083
aF-3.9164898725657413
aF1.0645463759350196
aa(lp890
S'3HD1'
p891
aF0.9394450106783601
aF-3.2676183192871777
aF0.00995546937001679
aa(lp892
S'1HD2'
p893
aF3.164921941721993
aF-3.2667355449662345
aF2.1570536623044023
aa(lp894
S'2HD2'
p895
aF2.8291073810569203
aF-1.9139982505988864
aF1.0489871510908244
aa(lp896
S'3HD2'
p897
aF2.8308616218560574
aF-1.6440065281493408
aF2.808691783251561
aaa(lp898
(lp899
S'N'
p900
aF1.184514461494571
aF-0.4221682031036917
aF-0.10973194064851177
aa(lp901
S'H'
p902
aF1.1742608466795743
aF0.5591145071226176
aF-0.34961755087584073
aa(lp903
S'CA'
p904
aF-0.028018219185774233
aF-1.0368132801634393
aF0.41835415794561587
aa(lp905
S'C'
p906
aF-1.2161823688601316
aF-0.08787573042056884
aF0.315196607971581
aa(lp907
S'O'
p908
aF-1.1145747201281648
aF0.9877427065650561
aF-0.2742012743929264
aa(lp909
S'CB'
p910
aF0.17974506884675046
aF-1.447591790149375
aF1.8820468961525236
aa(lp911
S'CG'
p912
aF1.5098593295364582
aF-2.1456589821269727
aF2.193771532641799
aa(lp913
S'CD1'
p914
aF2.654345650808439
aF-1.1531530002739818
aF2.0390429431459944
aa(lp915
S'CD2'
p916
aF1.4659815678815082
aF-2.7150077139830664
aF3.604076380384309
aa(lp917
S'HA'
p918
aF-0.24749223835882384
aF-1.927870333205712
aF-0.16786890807246074
aa(lp919
S'1HB'
p920
aF0.11965532525949785
aF-0.5565302826003207
aF2.5047953304982356
aa(lp921
S'2HB'
p922
aF-0.6248837071952744
aF-2.1234232111603384
aF2.170995720582466
aa(lp923
S'HG'
p924
aF1.6722915485152696
aF-2.9554479642047626
aF1.4812467409727441
aa(lp925
S'1HD1'
p926
aF3.599244049402815
aF-1.6506007148478603
aF2.2605757569659497
aa(lp927
S'2HD1'
p928
aF2.6742253375074125
aF-0.7779406927442482
aF1.015944940833915
aa(lp929
S'3HD1'
p930
aF2.5103569271219883
aF-0.32243574512321327
aF2.7285711075061756
aa(lp931
S'1HD2'
p932
aF2.410879966475888
aF-3.212455428556946
aF3.82560919420427
aa(lp933
S'2HD2'
p934
aF1.3055814727865418
aF-1.9057037877436136
aF4.317398162237993
aa(lp935
S'3HD2'
p936
aF0.6504388417130647
aF-3.434403391049032
aF3.6810369002146417
aaa(lp937
(lp938
S'N'
p939
aF1.2081965266722732
aF-0.4155581025415423
aF-0.04831952347786088
aa(lp940
S'H'
p941
aF1.198178790953052
aF0.545538188463234
aF-0.3587105097965997
aa(lp942
S'CA'
p943
aF-0.04791952898628022
aF-1.053964267762673
aF0.3247636079076892
aa(lp944
S'C'
p945
aF-1.1817003903777583
aF-0.039992827186757764
aF0.3976462261290323
aa(lp946
S'O'
p947
aF-1.1767553982612835
aF0.9639770090277493
aF-0.3153798007622643
aa(lp948
S'CB'
p949
aF0.09859787573442103
aF-1.7638085869343674
aF1.676821185325747
aa(lp950
S'CG'
p951
aF-1.0228387617601544
aF-2.7452340376554876
aF2.038580708713465
aa(lp952
S'CD1'
p953
aF-2.0673123462529372
aF-2.754134334578688
aF0.9311491234624949
aa(lp954
S'CD2'
p955
aF-0.43542867479239195
aF-4.1324228122030835
aF2.2480149310785467
aa(lp956
S'HA'
p957
aF-0.298498443981122
aF-1.7952659187900026
aF-0.43409874426440603
aa(lp958
S'1HB'
p959
aF1.0370075153745728
aF-2.3164264630754428
aF1.6785038022657086
aa(lp960
S'2HB'
p961
aF0.14482141826237438
aF-1.0091484662445223
aF2.4619405943053954
aa(lp962
S'HG'
p963
aF-1.511938458944245
aF-2.416587331621896
aF2.956148596571197
aa(lp964
S'1HD1'
p965
aF-2.864458840376251
aF-3.4518122468532977
aF1.1882891585232627
aa(lp966
S'2HD1'
p967
aF-2.4847484206043644
aF-1.7537637216223354
aF0.8156858801189835
aa(lp968
S'3HD1'
p969
aF-1.6023533927199938
aF-3.063992760217561
aF-0.005052739166578835
aa(lp970
S'1HD2'
p971
aF-1.2321231934475088
aF-4.830906090628717
aF2.5062259953354307
aa(lp972
S'2HD2'
p973
aF0.05378195623938303
aF-4.463037107174013
aF1.3307880526856566
aa(lp974
S'3HD2'
p975
aF0.2948917937324177
aF-4.100421757016247
aF3.057223152564607
aaa.