(lp0
(lp1
(lp2
S'N'
p3
aF0.36889930916624925
aF1.0561212440367693
aF-0.3280797732120828
aa(lp4
S'H'
p5
aF1.0021974132551643
aF1.7974368734242032
aF-0.06278814314566467
aa(lp6
S'CA'
p7
aF0.6424722444490572
aF-0.30547139268246154
aF0.11617729281244615
aa(lp8
S'C'
p9
aF-0.511080699828247
aF-1.2393437388283235
aF-0.22594409771026425
aa(lp10
S'O'
p11
aF-1.5024882670422248
aF-1.3087429859501887
aF0.5006347212555625
aa(lp12
S'CB'
p13
aF0.8953750150793801
aF-0.32849731445533803
aF1.6282854223898298
aa(lp14
S'CG'
p15
aF2.3593225319740827
aF-0.17169753549763533
aF2.060974106199162
aa(lp16
S'CD1'
p17
aF2.4534694571309537
aF0.8640255660718483
aF3.172902167432798
aa(lp18
S'CD2'
p19
aF2.8993974902913737
aF-1.5177840981272248
aF2.521269669187372
aa(lp20
S'HA'
p21
aF1.5359708084746986
aF-0.6621706225261028
aF-0.39404322374198464
aa(lp22
S'1HB'
p23
aF0.3266563058930378
aF0.47822140914016176
aF2.088530933852862
aa(lp24
S'2HB'
p25
aF0.5314369771599619
aF-1.2749434214004105
aF2.0280664514593436
aa(lp26
S'HG'
p27
aF2.951305809426928
aF0.1879300599647586
aF1.219426845614159
aa(lp28
S'1HD1'
p29
aF3.4930657376756082
aF0.9751443561319706
aF3.479506453073584
aa(lp30
S'2HD1'
p31
aF2.0781559631506807
aF1.821902086468603
aF2.810517906034865
aa(lp32
S'3HD1'
p33
aF1.8563655527241525
aF0.5389583427061946
aF4.0238494205780775
aa(lp34
S'1HD2'
p35
aF3.9401819922414822
aF-1.4074305933101696
aF2.8278242719501714
aa(lp36
S'2HD2'
p37
aF2.3094713790245516
aF-1.878206922880392
aF3.3638826115532914
aa(lp38
S'3HD2'
p39
aF2.8367473887306023
aF-2.234807631338427
aF1.7017788409313455
aaa(lp40
(lp41
S'N'
p42
aF0.35354119484090507
aF1.0473116384966623
aF-0.31566969354039565
aa(lp43
S'H'
p44
aF0.982921118863685
aF1.7932495733175668
aF-0.055201828666046615
aa(lp45
S'CA'
p46
aF0.6636860141003377
aF-0.31792471241447834
aF0.09145792433557434
aa(lp47
S'C'
p48
aF-0.4948759592268801
aF-1.259617400910045
aF-0.2113589087403916
aa(lp49
S'O'
p50
aF-1.5052723685780962
aF-1.2630190984897365
aF0.49077250661129046
aa(lp51
S'CB'
p52
aF0.9890587157877436
aF-0.36353957415537674
aF1.5894385281435743
aa(lp53
S'CG'
p54
aF2.207047642031986
aF0.45778004265996197
aF2.0315958107712477
aa(lp55
S'CD1'
p56
aF3.38754375276591
aF0.14635374222225228
aF1.121841122991198
aa(lp57
S'CD2'
p58
aF1.8620258948346913
aF1.9394554761453104
aF1.9909644956691075
aa(lp59
S'HA'
p60
aF1.5361899866464002
aF-0.6548639444822622
aF-0.46718576513467264
aa(lp61
S'1HB'
p62
aF0.12521483545465495
aF0.0012487466617365772
aF2.144153978988877
aa(lp63
S'2HB'
p64
aF1.1669746209676792
aF-1.4000479146891847
aF1.8760696337268112
aa(lp65
S'HG'
p66
aF2.485415571213436
aF0.1784833808969012
aF3.047708831419657
aa(lp67
S'1HD1'
p68
aF4.252998722291955
aF0.7290070744791086
aF1.4357946070181393
aa(lp69
S'2HD1'
p70
aF3.6244953429459272
aF-0.916126269679514
aF1.1846994416164727
aa(lp71
S'3HD1'
p72
aF3.131893524405494
aF0.4005176128103582
aF0.09397017407449537
aa(lp73
S'1HD2'
p74
aF2.727990968039604
aF2.5232898114846543
aF2.305505368797054
aa(lp75
S'2HD2'
p76
aF1.584402604081748
aF2.221076068286393
aF0.9746396703728024
aa(lp77
S'3HD2'
p78
aF1.0267690219298453
aF2.137579280568117
aF2.663572787608977
aaa(lp79
(lp80
S'N'
p81
aF0.3179017424855973
aF1.0559135770515333
aF-0.2432436636849356
aa(lp82
S'H'
p83
aF1.0038567886334975
aF1.7856617163311101
aF-0.10912681954440137
aa(lp84
S'CA'
p85
aF0.6684461283736539
aF-0.31835835816074304
aF0.09331135649792868
aa(lp86
S'C'
p87
aF-0.48168273159929403
aF-1.2694989940467394
aF-0.20970200331269018
aa(lp88
S'O'
p89
aF-1.50852192789342
aF-1.2537179411751649
aF0.4687611300440828
aa(lp90
S'CB'
p91
aF1.047116426299498
aF-0.42056389893549895
aF1.5766261689715557
aa(lp92
S'CG'
p93
aF0.5473158371816341
aF0.7202400025846001
aF2.4714221397905916
aa(lp94
S'CD1'
p95
aF-0.9629351201536818
aF0.8534243279350027
aF2.3287722840293497
aa(lp96
S'CD2'
p97
aF0.9382173375897096
aF0.44244911901263645
aF3.915428109993978
aa(lp98
S'HA'
p99
aF1.5269459638068559
aF-0.6135492880857418
aF-0.508673151152535
aa(lp100
S'1HB'
p101
aF0.6473544464272982
aF-1.3523650494848733
aF1.9736374726941561
aa(lp102
S'2HB'
p103
aF2.13427620529117
aF-0.4521657855610797
aF1.655771198534352
aa(lp104
S'HG'
p105
aF0.995834118207642
aF1.6597357830759571
aF2.1478112159570286
aa(lp106
S'1HD1'
p107
aF-1.3183780253287578
aF1.663757814892798
aF2.9652657883760383
aa(lp108
S'2HD1'
p109
aF-1.2133417165108842
aF1.071071441268364
aF1.2912597440769655
aa(lp110
S'3HD1'
p111
aF-1.4399754472076927
aF-0.07934269185061082
aF2.6302423707120366
aa(lp112
S'1HD2'
p113
aF0.5833859527201088
aF1.2534650255158142
aF4.55084442054191
aa(lp114
S'2HD2'
p115
aF0.48899687315338325
aF-0.4963204880137268
aF4.240028786603224
aa(lp116
S'3HD2'
p117
aF2.0226912738394187
aF0.3699459947727608
aF3.9903452546973233
aaa(lp118
(lp119
S'N'
p120
aF0.29852872153062615
aF1.055050748649044
aF-0.19035650815346306
aa(lp121
S'H'
p122
aF1.000210315403645
aF1.779237570304607
aF-0.1407340519443839
aa(lp123
S'CA'
p124
aF0.6808719150563352
aF-0.32471010495340635
aF0.0826538748556542
aa(lp125
S'C'
p126
aF-0.46880763214925825
aF-1.282115414363944
aF-0.20265475145917805
aa(lp127
S'O'
p128
aF-1.5108033198413875
aF-1.227462799636288
aF0.4510914367013594
aa(lp129
S'CB'
p130
aF1.127908640182465
aF-0.47183761725158063
aF1.5418795810140424
aa(lp131
S'CG'
p132
aF2.6167807740857736
aF-0.21999595254506477
aF1.8108991803076138
aa(lp133
S'CD1'
p134
aF3.433126416728
aF-1.4001646467247313
aF1.301692301900304
aa(lp135
S'CD2'
p136
aF3.043616062663393
aF1.0728970454564788
aF1.132102942734477
aa(lp137
S'HA'
p138
aF1.5153041574907946
aF-0.5877261953636831
aF-0.567917696127188
aa(lp139
S'1HB'
p140
aF0.5577985712480589
aF0.22669813143764495
aF2.1521347056158633
aa(lp141
S'2HB'
p142
aF0.898198334918778
aF-1.4846743292578606
aF1.8758915126392135
aa(lp143
S'HG'
p144
aF2.7838004994799164
aF-0.1377407944283573
aF2.8850949261065173
aa(lp145
S'1HD1'
p146
aF4.4912486595105
aF-1.2205430775499766
aF1.492604352897931
aa(lp147
S'2HD1'
p148
aF3.1209549726782475
aF-2.3076525371512275
aF1.8180659246282311
aa(lp149
S'3HD1'
p150
aF3.273312180556893
aF-1.5173121104384224
aF0.23043048438672575
aa(lp151
S'1HD2'
p152
aF4.101724501309033
aF1.2533377865222346
aF1.323588375680548
aa(lp153
S'2HD2'
p154
aF2.8782805151723387
aF0.9923144724359331
aF0.057302214384695294
aa(lp155
S'3HD2'
p156
aF2.4569507901714327
aF1.9030160661057987
aF1.5278102456847038
aaa(lp157
(lp158
S'N'
p159
aF0.3323400804261584
aF1.0781511277819464
aF-0.24525948830748953
aa(lp160
S'H'
p161
aF1.0450887919435616
aF1.7857573550401973
aF-0.13871512489194399
aa(lp162
S'CA'
p163
aF0.6329038029480046
aF-0.2956462443414158
aF0.1398680607600304
aa(lp164
S'C'
p165
aF-0.5066901626259533
aF-1.234992053053796
aF-0.2354678491685388
aa(lp166
S'O'
p167
aF-1.503642512691761
aF-1.3332701854269344
aF0.47957440160795123
aa(lp168
S'CB'
p169
aF0.8948672835797209
aF-0.3779309334351016
aF1.6490142977947568
aa(lp170
S'CG'
p171
aF1.9743810793519816
aF-1.3783075874614505
aF2.083393757272752
aa(lp172
S'CD1'
p173
aF1.3254599287095095
aF-2.719726613141199
aF2.3984847564987524
aa(lp174
S'CD2'
p175
aF3.011085022684632
aF-1.5179717194621771
aF0.9793729856787496
aa(lp176
S'HA'
p177
aF1.5299882798869464
aF-0.6147413890642963
aF-0.3896399465915763
aa(lp178
S'1HB'
p179
aF1.1949384180305398
aF0.6071792123497142
aF2.0036610444895757
aa(lp180
S'2HB'
p181
aF-0.03356518951263854
aF-0.6544100229359437
aF2.1487626904648995
aa(lp182
S'HG'
p183
aF2.458110844660325
aF-1.0195939475618134
aF2.9924256811922003
aa(lp184
S'1HD1'
p185
aF2.0930214477103073
aF-3.4304413573809516
aF2.707254681960128
aa(lp186
S'2HD1'
p187
aF0.6028392296797467
aF-2.594765065653962
aF3.20389951734147
aa(lp188
S'3HD1'
p189
aF0.8194740990183522
aF-3.095979994317185
aF1.5108543529492842
aa(lp190
S'1HD2'
p191
aF3.778910107647894
aF-2.227723578892015
aF1.2880847232869332
aa(lp192
S'2HD2'
p193
aF2.528719363128163
aF-1.8770563419563238
aF0.070380904102191
aa(lp194
S'3HD2'
p195
aF3.470990669392009
aF-0.5483922945607068
aF0.7870437499021743
aaa(lp196
(lp197
S'N'
p198
aF0.4147968230775413
aF1.0347223642145222
aF-0.3920750241460025
aa(lp199
S'H'
p200
aF0.9456779834473923
aF1.8007879159690117
aF-0.0024562823233715836
aa(lp201
S'CA'
p202
aF0.6558451633462632
aF-0.3176234439930937
aF0.09619079759148927
aa(lp203
S'C'
p204
aF-0.5171215819093907
aF-1.2356497773497594
aF-0.22093640998943753
aa(lp205
S'O'
p206
aF-1.4991983879617874
aF-1.282237058840693
aF0.5192769188673193
aa(lp207
S'CB'
p208
aF0.9035627336896712
aF-0.29840548000787775
aF1.609750401704723
aa(lp209
S'CG'
p210
aF2.2884637667537033
aF-0.7782202046140558
aF2.063223618851317
aa(lp211
S'CD1'
p212
aF2.3254448453089056
aF-0.8572747842507353
aF3.5837573321465443
aa(lp213
S'CD2'
p214
aF2.587403936748141
aF-2.132164442452841
aF1.4372022329651468
aa(lp215
S'HA'
p216
aF1.5434703065623718
aF-0.7100662820679333
aF-0.3986892120819161
aa(lp217
S'1HB'
p218
aF0.7716323441865255
aF0.7202048734919355
aF1.9709267022402648
aa(lp219
S'2HB'
p220
aF0.159016910935379
aF-0.9316995757231252
aF2.0914755371827667
aa(lp221
S'HG'
p222
aF3.044315783522091
aF-0.05735996898383222
aF1.7492582554204137
aa(lp223
S'1HD1'
p224
aF3.309900538659459
aF-1.1983098327385544
aF3.906717211284167
aa(lp225
S'2HD1'
p226
aF2.128479972167235
aF0.12820975182119576
aF4.005085076202619
aa(lp227
S'3HD1'
p228
aF1.5678736975430767
aF-1.5599264759222056
aF3.9297147807785695
aa(lp229
S'1HD2'
p230
aF3.571803578962452
aF-2.4724094320375727
aF1.7589905041479676
aa(lp231
S'2HD2'
p232
aF1.833013637059159
aF-2.8529458024823273
aF1.7528579105146138
aa(lp233
S'3HD2'
p234
aF2.5711058584179476
aF-2.0422875540161254
aF0.3514478788096272
aaa(lp235
(lp236
S'N'
p237
aF0.2975538372493978
aF1.0277013982030037
aF-0.23837271251079234
aa(lp238
S'H'
p239
aF0.949479294448543
aF1.779375083567751
aF-0.06812328083520325
aa(lp240
S'CA'
p241
aF0.7117396675907461
aF-0.34532701799038384
aF0.021111518744071467
aa(lp242
S'C'
p243
aF-0.4491911142674642
aF-1.3146263283779818
aF-0.158712191083675
aa(lp244
S'O'
p245
aF-1.5095816850212287
aF-1.147123135402384
aF0.4440966656856053
aa(lp246
S'CB'
p247
aF1.2738775248186005
aF-0.46946157242320163
aF1.4437459207838375
aa(lp248
S'CG'
p249
aF2.628852295819216
aF0.20882425878885957
aF1.6845211294926874
aa(lp250
S'CD1'
p251
aF2.504083763776257
aF1.7031433771212117
aF1.4164816062908432
aa(lp252
S'CD2'
p253
aF3.080834328626475
aF-0.05414801829922666
aF3.1123305787899387
aa(lp254
S'HA'
p255
aF1.4938757376235026
aF-0.6110138561602199
aF-0.6889326150793346
aa(lp256
S'1HB'
p257
aF0.5571820160207543
aF-0.035443896895527405
aF2.1387813191618976
aa(lp258
S'2HB'
p259
aF1.3853575919243792
aF-1.5271934813110277
aF1.6816353983960306
aa(lp260
S'HG'
p261
aF3.3658656875699804
aF-0.19347693055040405
aF0.9899838637997325
aa(lp262
S'1HD1'
p263
aF3.4662282193253056
aF2.184528837055989
aF1.587934473340673
aa(lp264
S'2HD1'
p265
aF2.197565088510819
aF1.8624245616327542
aF0.3825624576268287
aa(lp266
S'3HD1'
p267
aF1.7588644583986917
aF2.131300560930214
aF2.086257399258403
aa(lp268
S'1HD2'
p269
aF4.044355435547981
aF0.4275524878441266
aF3.2838581243853677
aa(lp270
S'2HD2'
p271
aF2.345017743092297
aF0.3489410381543583
aF3.8082631653385075
aa(lp272
S'3HD2'
p273
aF3.178700455405158
aF-1.1288745604571104
aF3.2711577830425425
aaa(lp274
(lp275
S'N'
p276
aF0.3024498999921719
aF1.0255319108498235
aF-0.2556433410504634
aa(lp277
S'H'
p278
aF0.9431066856017857
aF1.7801928192874676
aF-0.053228429721209225
aa(lp279
S'CA'
p280
aF0.713388123692903
aF-0.34734163153935266
aF0.017570884255426633
aa(lp281
S'C'
p282
aF-0.44993746998284323
aF-1.3148641837545203
aF-0.15662634320249258
aa(lp283
S'O'
p284
aF-1.5090072393039777
aF-1.1435189148433995
aF0.44792722971876753
aa(lp285
S'CB'
p286
aF1.2719180841103823
aF-0.46000229206697013
aF1.4410064672325835
aa(lp287
S'CG'
p288
aF2.480751145054472
aF0.4298340364168072
aF1.7543687803448325
aa(lp289
S'CD1'
p290
aF3.355866550073523
aF-0.24897653504394734
aF2.7986356217084087
aa(lp291
S'CD2'
p292
aF3.261564584221856
aF0.6949529251474906
aF0.4754003100322089
aa(lp293
S'HA'
p294
aF1.496147645525816
aF-0.6209692601271454
aF-0.6888598992282218
aa(lp295
S'1HB'
p296
aF0.48131259456098535
aF-0.20470021653632264
aF2.1455359627997375
aa(lp297
S'2HB'
p298
aF1.567106290063173
aF-1.4938599560873107
aF1.6187682561884131
aa(lp299
S'HG'
p300
aF2.137849559490455
aF1.3774745425617627
aF2.172168940386724
aa(lp301
S'1HD1'
p302
aF4.215660525464064
aF0.3833803162741729
aF3.0204827142590402
aa(lp303
S'2HD1'
p304
aF2.7790998553673862
aF-0.40863226987282353
aF3.709109249121095
aa(lp305
S'3HD1'
p306
aF3.7019869718647764
aF-1.2081339832370503
aF2.4143913723113184
aa(lp307
S'1HD2'
p308
aF4.120400431004936
aF1.3286909728648033
aF0.6968299267411181
aa(lp309
S'2HD2'
p310
aF3.6065845037006072
aF-0.25077103908290704
aF0.05668389210333194
aa(lp311
S'3HD2'
p312
aF2.617371017798972
aF1.196978570985228
aF-0.24651859116138652
aaa(lp313
(lp314
S'N'
p315
aF0.2982654221450308
aF1.032351145078254
aF-0.23464085579512758
aa(lp316
S'H'
p317
aF0.958444202639233
aF1.7801291574448646
aF-0.07732899353980849
aa(lp318
S'CA'
p319
aF0.7063452603553035
aF-0.3416358376395866
aF0.031865461143517904
aa(lp320
S'C'
p321
aF-0.453202398671004
aF-1.3092764664529633
aF-0.1664848348387622
aa(lp322
S'O'
p323
aF-1.509852486468574
aF-1.1615679984305611
aF0.44658922303015497
aa(lp324
S'CB'
p325
aF1.2459281166900091
aF-0.46747990788453203
aF1.462585773131103
aa(lp326
S'CG'
p327
aF0.9657893048641752
aF0.7262471910883478
aF2.3852486906078045
aa(lp328
S'CD1'
p329
aF-0.31052518171948895
aF0.47028820777507485
aF3.174351554750313
aa(lp330
S'CD2'
p331
aF2.1506764081780245
aF0.9365835197759902
aF3.3162579178632123
aa(lp332
S'HA'
p333
aF1.4987404662239132
aF-0.608875640430957
aF-0.6662475136109074
aa(lp334
S'1HB'
p335
aF0.807615977099155
aF-1.3513586110991627
aF1.9229670350118477
aa(lp336
S'2HB'
p337
aF2.3259549791339955
aF-0.6045156710209812
aF1.4157330675419797
aa(lp338
S'HG'
p339
aF0.8122666786564255
aF1.6228047557620615
aF1.7841519126521908
aa(lp340
S'1HD1'
p341
aF-0.5093622910017004
aF1.3183792296018655
aF3.830018713199699
aa(lp342
S'2HD1'
p343
aF-1.145213972573019
aF0.34255797109385916
aF2.4849419456928104
aa(lp344
S'3HD1'
p345
aF-0.19319141728314726
aF-0.4321045985132471
aF3.773926413197766
aa(lp346
S'1HD2'
p347
aF1.953035742886384
aF1.7852611524043107
aF3.97145135746671
aa(lp348
S'2HD2'
p349
aF2.3041859247781042
aF0.041130226946259674
aF3.91868901655716
aa(lp350
S'3HD2'
p351
aF3.045815404971103
aF1.1354504345615049
aF2.726543472878207
aaa(lp352
(lp353
S'N'
p354
aF0.33712316484723687
aF1.0398982710712825
aF-0.29971305868501774
aa(lp355
S'H'
p356
aF0.9673058468237409
aF1.788324920997774
aF-0.0513316241599765
aa(lp357
S'CA'
p358
aF0.6816817639185465
aF-0.32860378214906594
aF0.06777231808214262
aa(lp359
S'C'
p360
aF-0.4790645156285619
aF-1.2788140613077883
aF-0.1959595531406331
aa(lp361
S'O'
p362
aF-1.5070462599609813
aF-1.2208053486122212
aF0.4792319179034604
aa(lp363
S'CB'
p364
aF1.0807111376020404
aF-0.39654243485871
aF1.546456496128886
aa(lp365
S'CG'
p366
aF2.285002828248636
aF-1.288959686410696
aF1.871324119895782
aa(lp367
S'CD1'
p368
aF2.274587003445508
aF-2.508754826280941
aF0.9590339646586483
aa(lp369
S'CD2'
p370
aF3.569203583964873
aF-0.4907315341565235
aF1.7010002050548563
aa(lp371
S'HA'
p372
aF1.5294091907960041
aF-0.6462991611037612
aF-0.5392193259382239
aa(lp373
S'1HB'
p374
aF1.3126480500099325
aF0.6100109841915835
aF1.8908581268753886
aa(lp375
S'2HB'
p376
aF0.23012533885257386
aF-0.7672327195047094
aF2.1193452391102756
aa(lp377
S'HG'
p378
aF2.211042368040537
aF-1.641864340009725
aF2.900031637022962
aa(lp379
S'1HD1'
p380
aF3.130644469103182
aF-3.142981490709281
aF1.189882732512951
aa(lp381
S'2HD1'
p382
aF1.3549397387921829
aF-3.0718717322031686
aF1.116302076112408
aa(lp383
S'3HD1'
p384
aF2.3306180846542244
aF-2.1863303887839125
aF-0.07989577312120685
aa(lp385
S'1HD2'
p386
aF4.426095264619343
aF-1.1244370356635291
aF1.9316687659488587
aa(lp387
S'2HD2'
p388
aF3.644868964233185
aF-0.13906801131385121
aF0.6710465571023297
aa(lp389
S'3HD2'
p390
aF3.5583752215031987
aF0.364635197381046
aF2.3766247318040894
aaa.