(lp0
(lp1
(lp2
S'N'
p3
aF-0.3343999999999995
aF-1.2697999999999994
aF0.14640000000000283
aa(lp4
S'H'
p5
aF-0.8113999999999997
aF-1.6748000000000005
aF0.9394000000000019
aa(lp6
S'CA'
p7
aF0.4825999999999989
aF-0.07779999999999916
aF0.3403999999999981
aa(lp8
S'C'
p9
aF-0.051399999999999973
aF1.095199999999999
aF-0.47060000000000185
aa(lp10
S'O'
p11
aF0.7146000000000001
aF1.9271999999999998
aF-0.9556000000000012
aa(lp12
S'CB'
p13
aF1.9365999999999997
aF-0.3618000000000016
aF-0.0556000000000025
aa(lp14
S'CG'
p15
aF2.9665999999999997
aF-0.260799999999999
aF1.0774000000000001
aa(lp16
S'CD1'
p17
aF3.0065999999999997
aF-1.5738000000000014
aF1.8463999999999985
aa(lp18
S'CD2'
p19
aF4.3316
aF0.07320000000000064
aF0.49440000000000156
aa(lp20
S'HA'
p21
aF0.45259999999999956
aF0.19320000000000165
aF1.395399999999998
aa(lp22
S'1HB'
p23
aF1.9945999999999995
aF-1.3677999999999984
aF-0.46659999999999696
aa(lp24
S'2HB'
p25
aF2.2295999999999996
aF0.3432000000000002
aF-0.8325999999999966
aa(lp26
S'HG'
p27
aF2.6675999999999993
aF0.5242000000000011
aF1.7724000000000004
aa(lp28
S'1HD1'
p29
aF3.7386
aF-1.5017999999999987
aF2.651399999999998
aa(lp30
S'2HD1'
p31
aF2.0225999999999997
aF-1.7777999999999985
aF2.2694
aa(lp32
S'3HD1'
p33
aF3.2875999999999994
aF-2.381800000000001
aF1.172399999999999
aa(lp34
S'1HD2'
p35
aF5.063599999999999
aF0.14620000000000105
aF1.2994000000000014
aa(lp36
S'2HD2'
p37
aF4.632599999999999
aF-0.7117999999999995
aF-0.20059999999999847
aa(lp38
S'3HD2'
p39
aF4.2786
aF1.0251999999999988
aF-0.034600000000001706
aaa(lp40
(lp41
S'N'
p42
aF-0.3255427020237151
aF-1.2887486137471005
aF0.1575459289350823
aa(lp43
S'H'
p44
aF-0.8316096928047614
aF-1.6375099000907751
aF0.9588091603326805
aa(lp45
S'CA'
p46
aF0.5044034798841786
aF-0.09920353435338411
aF0.30489530703590484
aa(lp47
S'C'
p48
aF-0.04387127457124923
aF1.0605255459546
aF-0.5181789629512127
aa(lp49
S'O'
p50
aF0.6966201895155162
aF1.9649365022366783
aF-0.9030714333524583
aa(lp51
S'CB'
p52
aF1.9454280509813757
aF-0.40241494283197204
aF-0.12456834365245817
aa(lp53
S'CG'
p54
aF2.6392093304736806
aF-1.541966809769338
aF0.6329183418975838
aa(lp55
S'CD1'
p56
aF4.1198073915391475
aF-1.5604494241876061
aF0.2781370366778009
aa(lp57
S'CD2'
p58
aF2.43735343516394
aF-1.354394205870525
aF2.128557240761652
aa(lp59
S'HA'
p60
aF0.504189580177913
aF0.19425178202793597
aF1.3535539414515354
aa(lp61
S'1HB'
p62
aF1.9456821485180897
aF-0.6586192652994857
aF-1.1826270757573465
aa(lp63
S'2HB'
p64
aF2.5441799982134494
aF0.49782108328524155
aF0.01019145364067886
aa(lp65
S'HG'
p66
aF2.2110690303246052
aF-2.4961589144972427
aF0.3252816882569751
aa(lp67
S'1HD1'
p68
aF4.612933516600876
aF-2.369915732534534
aF0.8154078440299342
aa(lp69
S'2HD1'
p70
aF4.234749327678653
aF-1.7148694016128778
aF-0.7954344895320189
aa(lp71
S'3HD1'
p72
aF4.57268066380881
aF-0.6096526668990929
aF0.5590201539942581
aa(lp73
S'1HD2'
p74
aF2.9299639821285863
aF-2.164969183870139
aF2.666538703323432
aa(lp75
S'2HD2'
p76
aF2.866207449988956
aF-0.400730475377218
aF2.43729454513231
aa(lp77
S'3HD2'
p78
aF1.3716082735996298
aF-1.3628211746167582
aF2.3567725706586975
aaa(lp79
(lp80
S'N'
p81
aF-0.3057387669540007
aF-1.2711030175008575
aF0.13984750724160067
aa(lp82
S'H'
p83
aF-0.8332140745391862
aF-1.6594029899757863
aF0.9084552949095888
aa(lp84
S'CA'
p85
aF0.49636107431083465
aF-0.0747314236685776
aF0.3628987437639607
aa(lp86
S'C'
p87
aF-0.05595858449439295
aF1.1134937279430657
aF-0.41445766328159456
aa(lp88
S'O'
p89
aF0.6985503516767206
aF1.8917437032021327
aF-0.9967438826335262
aa(lp90
S'CB'
p91
aF1.952926644480262
aF-0.33012102650515107
aF-0.04799405315515326
aa(lp92
S'CG'
p93
aF2.5346577937842345
aF-1.6852695674803084
aF0.37175146715729135
aa(lp94
S'CD1'
p95
aF3.8272784013840044
aF-1.4660876095374382
aF1.1461526772032848
aa(lp96
S'CD2'
p97
aF1.5148963440777259
aF-2.4376317451113514
aF1.213236309185221
aa(lp98
S'HA'
p99
aF0.4696316791999996
aF0.16694662271950222
aF1.424622936448226
aa(lp100
S'1HB'
p101
aF2.0245570536755526
aF-0.2604009145288949
aF-1.1319687717092963
aa(lp102
S'2HB'
p103
aF2.578478443203987
aF0.4484537496941835
aF0.3872613488557466
aa(lp104
S'HG'
p105
aF2.7738104934375203
aF-2.2700864821533226
aF-0.5163494069335282
aa(lp106
S'1HD1'
p107
aF4.241359639654726
aF-2.4290642070484756
aF1.444821056443966
aa(lp108
S'2HD1'
p109
aF4.546069963208298
aF-0.9437320780581238
aF0.5140337094581666
aa(lp110
S'3HD1'
p111
aF3.6231038894908334
aF-0.8688040550312033
aF2.0339229877057132
aa(lp112
S'1HD2'
p113
aF1.9284767693847589
aF-3.4019308375718245
aF1.511890778568763
aa(lp114
S'2HD2'
p115
aF1.2761188147414901
aF-1.853734122443149
aF2.1033407175140946
aa(lp116
S'3HD2'
p117
aF0.6075257565071008
aF-2.5960192908774533
aF0.6301737034918523
aaa(lp118
(lp119
S'N'
p120
aF-0.3265505175129941
aF-1.2842744462969982
aF0.1542759414184448
aa(lp121
S'H'
p122
aF-0.827480796287035
aF-1.6467062006301658
aF0.9536119654148263
aa(lp123
S'CA'
p124
aF0.4990775935861694
aF-0.09350106167179874
aF0.31404755539006585
aa(lp125
S'C'
p126
aF-0.04669516101280371
aF1.0691934348534646
aF-0.5040848349278544
aa(lp127
S'O'
p128
aF0.7016488812266396
aF1.9552882737454873
aF-0.9178506272955352
aa(lp129
S'CB'
p130
aF1.9438514780330052
aF-0.39088822865764994
aF-0.10758059325817208
aa(lp131
S'CG'
p132
aF2.894819690267982
aF-0.8045334796325132
aF1.0227870750978019
aa(lp133
S'CD1'
p134
aF2.1407608327097245
aF-1.6546371390262553
aF2.036515346195784
aa(lp135
S'CD2'
p136
aF4.075671914059607
aF-1.5671811199891525
aF0.43969051171843954
aa(lp137
S'HA'
p138
aF0.4928679188088771
aF0.19308582808006464
aF1.3651281396277852
aa(lp139
S'1HB'
p140
aF1.9332774561525288
aF-1.1935736906983299
aF-0.8419995738747019
aa(lp141
S'2HB'
p142
aF2.3583566172662924
aF0.5006178771128373
aF-0.5794093258753508
aa(lp143
S'HG'
p144
aF3.257250238499598
aF0.08589855007517744
aF1.5381751795192915
aa(lp145
S'1HD1'
p146
aF2.816841828404618
aF-1.9485067460185137
aF2.8391211905218814
aa(lp147
S'2HD1'
p148
aF1.313946061299823
aF-1.0773431170447934
aF2.4514586507120253
aa(lp149
S'3HD1'
p150
aF1.7516636574821498
aF-2.5456992418003925
aF1.5453242253174948
aa(lp151
S'1HD2'
p152
aF4.751752909754501
aF-1.8610507269814076
aF1.2422963560445348
aa(lp153
S'2HD2'
p154
aF3.7145573383216783
aF-2.4582963507654494
aF-0.07480235379877787
aa(lp155
S'3HD2'
p156
aF4.606439984463056
aF-0.9307028716173642
aF-0.2680910186917447
aaa(lp157
(lp158
S'N'
p159
aF-0.3596804152421202
aF-1.278839223721481
aF0.16184065855864682
aa(lp160
S'H'
p161
aF-0.8042475907261707
aF-1.6588600899816748
aF0.9841624737192229
aa(lp162
S'CA'
p163
aF0.48681784452360327
aF-0.09883750970687612
aF0.2915813658798094
aa(lp164
S'C'
p165
aF-0.02798597765930838
aF1.0467891394000102
aF-0.5694195664785665
aa(lp166
S'O'
p167
aF0.705096139103994
aF1.9897476840100212
aF-0.8681649316791121
aa(lp168
S'CB'
p169
aF1.9303391386641262
aF-0.4352709805233756
aF-0.10325378082984638
aa(lp170
S'CG'
p171
aF2.94643380233917
aF0.7015738109193141
aF0.05657911509813707
aa(lp172
S'CD1'
p173
aF3.1242744912142837
aF1.4157474112054933
aF-1.2762786260110563
aa(lp174
S'CD2'
p175
aF2.4663963894139678
aF1.66427236090585
aF1.1331949166011155
aa(lp176
S'HA'
p177
aF0.47418754603639934
aF0.221889416984401
aF1.3332683217620898
aa(lp178
S'1HB'
p179
aF2.2705862012104
aF-1.2720343794783897
aF0.5046178755236016
aa(lp180
S'2HB'
p181
aF1.9410154021776274
aF-0.7453808951444767
aF-1.1486096332796631
aa(lp182
S'HG'
p183
aF3.9130620663559847
aF0.28875083367232035
aF0.344466226064862
aa(lp184
S'1HD1'
p185
aF3.8465592320097137
aF2.224522613274598
aF-1.1627822572050146
aa(lp186
S'2HD1'
p187
aF3.487044067057517
aF0.7094761998364807
aF-2.0226486487436595
aa(lp188
S'3HD1'
p189
aF2.168352924480334
aF1.8271396684250858
aF-1.5988113669113855
aa(lp190
S'1HD2'
p191
aF3.1895846695734087
aF2.4733263189975854
aF1.2470167261813874
aa(lp192
S'2HD2'
p193
aF1.5001236605107315
aF2.0795188684126833
aF0.8453175965822073
aa(lp194
S'3HD2'
p195
aF2.3652397321523786
aF1.131868953084299
aF2.0790188653524995
aaa(lp196
(lp197
S'N'
p198
aF-0.3664625031008161
aF-1.2790703944382307
aF0.1641742972962434
aa(lp199
S'H'
p200
aF-0.8025187333690034
aF-1.655438909548478
aF0.994293990399596
aa(lp201
S'CA'
p202
aF0.4882321250928321
aF-0.10374316984121404
aF0.28215737938008184
aa(lp203
S'C'
p204
aF-0.018401719718581594
aF1.0357116385595995
aF-0.5929259805941953
aa(lp205
S'O'
p206
aF0.6991508310955742
aF2.002540835268327
aF-0.8476996864817226
aa(lp207
S'CB'
p208
aF1.929453549720184
aF-0.4544315783358087
aF-0.11010713002987899
aa(lp209
S'CG'
p210
aF2.948579994150993
aF-0.4564697027006839
aF1.0362484589174952
aa(lp211
S'CD1'
p212
aF4.339756568974164
aF-0.18290115155765063
aF0.48028984041358236
aa(lp213
S'CD2'
p214
aF2.5562628399716445
aF0.5916234117541241
aF2.0664130447818296
aa(lp215
S'HA'
p216
aF0.4782915525778324
aF0.22892112395574604
aF1.3195158770320004
aa(lp217
S'1HB'
p218
aF1.9355403561072504
aF-1.446876733640989
aF-0.5591422784306371
aa(lp219
S'2HB'
p220
aF2.2709267443099432
aF0.26203909277259313
aF-0.8566530662040304
aa(lp221
S'HG'
p222
aF2.9663222729183887
aF-1.4394759963373167
aF1.5070263664438648
aa(lp223
S'1HD1'
p224
aF5.06407409619237
aF-0.1836543763982439
aF1.2940419847529043
aa(lp225
S'2HD1'
p226
aF4.602518512166525
aF-0.9575980595053817
aF-0.2399732101630816
aa(lp227
S'3HD1'
p228
aF4.349340892312293
aF0.7891214252159668
aF-0.012884825388027377
aa(lp229
S'1HD2'
p230
aF3.279806538629768
aF0.5904046530696758
aF2.8819496967842966
aa(lp231
S'2HD2'
p232
aF2.5399215961354455
aF1.5757397764467262
aF1.5965322678882587
aa(lp233
S'3HD2'
p234
aF1.5656795616423094
aF0.3616574922169613
aF2.4600238227665407
aaa(lp235
(lp236
S'N'
p237
aF-0.3299618383155184
aF-1.232537389320026
aF0.12308618599834192
aa(lp238
S'H'
p239
aF-0.7933179573057045
aF-1.7151844808950072
aF0.879716803927967
aa(lp240
S'CA'
p241
aF0.460551678858376
aF-0.04396995547106445
aF0.4177569079220715
aa(lp242
S'C'
p243
aF-0.04860277518970246
aF1.1632553482442585
aF-0.35878852409877954
aa(lp244
S'O'
p245
aF0.7113308919525586
aF1.8284364774418354
aF-1.0617713737495733
aa(lp246
S'CB'
p247
aF1.9361751209610314
aF-0.290802911964369
aF0.0788543427121492
aa(lp248
S'CG'
p249
aF2.3034991422126967
aF-0.1907529137141457
aF-1.406996612552752
aa(lp250
S'CD1'
p251
aF1.1979429525305467
aF0.5417646089018338
aF-2.155568980808506
aa(lp252
S'CD2'
p253
aF3.6349758976220037
aF0.530698733467349
aF-1.5535748189267413
aa(lp254
S'HA'
p255
aF0.3769845698323143
aF0.17138734858883853
aF1.4821458264462581
aa(lp256
S'1HB'
p257
aF2.5431686600651076
aF0.43338223795318404
aF0.6195647200166798
aa(lp258
S'2HB'
p259
aF2.20893823457427
aF-1.2894563189946961
aF0.4207851200322765
aa(lp260
S'HG'
p261
aF2.385390585571523
aF-1.1923775623947501
aF-1.8299326061263277
aa(lp262
S'1HD1'
p263
aF1.4589665045252231
aF0.612852750308368
aF-3.2112276289781905
aa(lp264
S'2HD1'
p265
aF0.2623311263249409
aF-0.006628658137832422
aF-2.0502915600110088
aa(lp266
S'3HD1'
p267
aF1.0823659806672512
aF1.5433149543922724
aF-1.7429421893578052
aa(lp268
S'1HD2'
p269
aF3.89642254356103
aF0.6010339203755248
aF-2.6097375018548155
aa(lp270
S'2HD2'
p271
aF3.553724173109812
aF1.5324298564938958
aF-1.1322448835746926
aa(lp272
S'3HD2'
p273
aF4.409649833213007
aF-0.024631310756746183
aF-1.024051603667951
aaa(lp274
(lp275
S'N'
p276
aF-0.31512655209469576
aF-1.2642209874951909
aF0.13749862159887338
aa(lp277
S'H'
p278
aF-0.8225549201949689
aF-1.6731630512388638
aF0.9084395011403346
aa(lp279
S'CA'
p280
aF0.48792341525293337
aF-0.06916510790040681
aF0.37000925488025016
aa(lp281
S'C'
p282
aF-0.054999077249825
aF1.1196941812364458
aF-0.4125587982420402
aa(lp283
S'O'
p284
aF0.7047571342865551
aF1.8868549653980204
aF-1.003388579377423
aa(lp285
S'CB'
p286
aF1.946779269220241
aF-0.32602542436585474
aF-0.026672450231779554
aa(lp287
S'CG'
p288
aF2.995012781928204
aF0.007383090917768342
aF1.0432412214129443
aa(lp289
S'CD1'
p290
aF2.3477758175813053
aF0.8274162362536195
aF2.1507225768016482
aa(lp291
S'CD2'
p292
aF3.5879960521569014
aF-1.2807133581814942
aF1.592119513064884
aa(lp293
S'HA'
p294
aF0.4499187137397993
aF0.1722885589117823
aF1.431156638350541
aa(lp295
S'1HB'
p296
aF2.058260121682101
aF-1.3785452516276815
aF-0.28145084954206473
aa(lp297
S'2HB'
p298
aF2.1768571196213107
aF0.2668785171777728
aF-0.911966807412968
aa(lp299
S'HG'
p300
aF3.7877950156364175
aF0.6119036471976688
aF0.600527739630814
aa(lp301
S'1HD1'
p302
aF3.0930956130417187
aF1.0645741439374994
aF2.910945918536071
aa(lp303
S'2HD1'
p304
aF1.9492367371965642
aF1.7522283306402278
aF1.7338326734910297
aa(lp305
S'3HD1'
p306
aF1.538865910080311
aF0.25446500416932616
aF2.6023957409367604
aa(lp307
S'1HD2'
p308
aF4.333928678242443
aF-1.0443958652595626
aF2.3513846577147755
aa(lp309
S'2HD2'
p310
aF2.7967963774077815
aF-1.886016065458801
aF2.0365311547211853
aa(lp311
S'3HD2'
p312
aF4.05963397730195
aF-1.8389125424889392
aF0.7824249174281241
aaa(lp313
(lp314
S'N'
p315
aF-0.2852036200487693
aF-1.313007047300697
aF0.1696467767149904
aa(lp316
S'H'
p317
aF-0.8766137831416617
aF-1.577691767927052
aF0.9439755296729222
aa(lp318
S'CA'
p319
aF0.5439650276842507
aF-0.11897492229443146
aF0.28426195053419256
aa(lp320
S'C'
p321
aF-0.045850993524009814
aF1.0387039767234494
aF-0.5113294193880791
aa(lp322
S'O'
p323
aF0.6637033690302026
aF1.9709697607987247
aF-0.8865548375340184
aa(lp324
S'CB'
p325
aF1.9668700515798991
aF-0.4124219488603154
aF-0.20745355214208383
aa(lp326
S'CG'
p327
aF2.9725711223176017
aF-0.8238907150631549
aF0.8762958703521225
aa(lp328
S'CD1'
p329
aF3.7620707105238487
aF0.39782670253871283
aF1.3261913601610331
aa(lp330
S'CD2'
p331
aF2.2305853736618433
aF-1.4569075600684727
aF2.044385260224003
aa(lp332
S'HA'
p333
aF0.587536656767789
aF0.1715918615589675
aF1.3326981466186758
aa(lp334
S'1HB'
p335
aF1.9221861853996072
aF-1.2168795254134355
aF-0.9397331159901171
aa(lp336
S'2HB'
p337
aF2.3552802783256697
aF0.4789020823688086
aF-0.6989339353851585
aa(lp338
S'HG'
p339
aF3.6789266405784176
aF-1.5442843486590898
aF0.46219093860542104
aa(lp340
S'1HD1'
p341
aF4.477537666067498
aF0.10493969887214219
aF2.0955373412438747
aa(lp342
S'2HD1'
p343
aF4.29860765781789
aF0.8179236824610823
aF0.4752926401899127
aa(lp344
S'3HD1'
p345
aF3.0795213906143815
aF1.1438738538467064
aF1.731122309726946
aa(lp346
S'1HD2'
p347
aF2.946052329205494
aF-1.7497945637350434
aF2.813731241306843
aa(lp348
S'2HD2'
p349
aF1.5250992843114686
aF-0.7374607076660632
aF2.459079851822898
aa(lp350
S'3HD2'
p351
aF1.6897015701345315
aF-2.3377248788869425
aF1.6972677556938296
aaa(lp352
(lp353
S'N'
p354
aF-0.37217552226647566
aF-1.253704027225006
aF0.14790575629595526
aa(lp355
S'H'
p356
aF-0.7737326394926389
aF-1.7106735625838583
aF0.9548163618520613
aa(lp357
S'CA'
p358
aF0.4558903128297569
aF-0.06899265455768884
aF0.3416889759489976
aa(lp359
S'C'
p360
aF-0.04684720265116579
aF1.096452701565038
aF-0.5002962450733404
aa(lp361
S'O'
p362
aF0.7368650515805406
aF1.9369175428015117
aF-0.9441148490236492
aa(lp363
S'CB'
p364
aF1.913829637891692
aF-0.37790734316498553
aF-0.017924204566682755
aa(lp365
S'CG'
p366
aF2.1741453761166682
aF-0.7454876991251007
aF-1.4848517414084386
aa(lp367
S'CD1'
p368
aF2.4093625165029797
aF0.5228415512217821
aF-2.2936130223702555
aa(lp369
S'CD2'
p370
aF3.3737839597400754
aF-1.6788043589960246
aF-1.56935784230892
aa(lp371
S'HA'
p372
aF0.4066708770215029
aF0.21875061023652276
aF1.3912804491919395
aa(lp373
S'1HB'
p374
aF2.521443454718728
aF0.49540396197847597
aF0.21666226970135233
aa(lp375
S'2HB'
p376
aF2.2565955747989808
aF-1.2090434002651576
aF0.5980712232443092
aa(lp377
S'HG'
p378
aF1.2967120194084962
aF-1.2454025845593777
aF-1.8952720282572493
aa(lp379
S'1HD1'
p380
aF2.5933895580665096
aF0.2613598946299423
aF-3.3352523031384864
aa(lp381
S'2HD1'
p382
aF1.5285392620372418
aF1.162487806834886
aF-2.2312988019023434
aa(lp383
S'3HD1'
p384
aF3.2730404991314304
aF1.0539014987865476
aF-1.8945846093275847
aa(lp385
S'1HD2'
p386
aF3.55781100130361
aF-1.9402860155878652
aF-2.6109971230771576
aa(lp387
S'2HD2'
p388
aF4.2523530150525986
aF-1.1791034309825579
aF-1.1597526695025437
aa(lp389
S'3HD2'
p390
aF3.1708621689948604
aF-2.5842096584138696
aF-0.9973394941531679
aaa.