(lp0
(lp1
(lp2
S'N'
p3
aF-0.9935016001321012
aF0.021269490397898494
aF-0.7529274462477533
aa(lp4
S'H'
p5
aF-0.6471762476268289
aF0.9675869369434615
aF-0.8136072664154521
aa(lp6
S'CA'
p7
aF-0.08835204967847674
aF-1.0394645464378165
aF-0.32571602971981517
aa(lp8
S'C'
p9
aF0.8053475670665452
aF-0.5735006429160101
aF0.8161892358974858
aa(lp10
S'O'
p11
aF0.9236823303708667
aF0.6241087620124572
aF1.0760615064855392
aa(lp12
S'CB'
p13
aF0.7763631861456184
aF-1.5048300286743184
aF-1.5031859991357948
aa(lp14
S'CG'
p15
aF1.5973669142735307
aF-0.41142190586850025
aF-2.1987782326910077
aa(lp16
S'CD1'
p17
aF2.968047469715679
aF-0.3102210271088575
aF-1.5434766249781307
aa(lp18
S'CD2'
p19
aF1.7215455416330279
aF-0.7341399210580699
aF-3.6799540329183857
aa(lp20
S'HA'
p21
aF-0.6839468953542647
aF-1.8807996761015526
aF0.026366317747562984
aa(lp22
S'1HB'
p23
aF1.4711318326800362
aF-2.263244306575803
aF-1.1450878130640043
aa(lp24
S'2HB'
p25
aF0.12854806250034767
aF-1.9599006295533608
aF-2.2517388120969444
aa(lp26
S'HG'
p27
aF1.0984864944357928
aF0.5509277861928884
aF-2.0777270167042534
aa(lp28
S'1HD1'
p29
aF3.5513911196464867
aF0.467593660476789
aF-2.037573273278285
aa(lp30
S'2HD1'
p31
aF2.849823935323941
aF-0.05895196564897032
aF-0.48944434147397187
aa(lp32
S'3HD1'
p33
aF3.4861711892313436
aF-1.2645466328575408
aF-1.633977727113186
aa(lp34
S'1HD2'
p35
aF2.304889191563835
aF0.04367476652757585
aF-4.1740506812185405
aa(lp36
S'2HD2'
p37
aF2.2222265906664043
aF-1.6954469318304244
aF-3.801824120219393
aa(lp38
S'3HD2'
p39
aF0.7290482065473345
aF-0.7827444864171734
aF-4.1266649417554655
aaa(lp40
(lp41
S'N'
p42
aF-0.9922000242729786
aF0.028767485633838435
aF-0.7577465959032791
aa(lp43
S'H'
p44
aF-0.6024771597506541
aF0.9586810360221512
aF-0.8258999353131551
aa(lp45
S'CA'
p46
aF-0.155064285728198
aF-1.0574106463335733
aF-0.2632268077381554
aa(lp47
S'C'
p48
aF0.8975457644782961
aF-0.5425654051585576
aF0.7116303406911497
aa(lp49
S'O'
p50
aF0.8521957052735423
aF0.6125275298361402
aF1.135242998263441
aa(lp51
S'CB'
p52
aF0.5310258755730347
aF-1.773103666063722
aF-1.4333472255051425
aa(lp53
S'CG'
p54
aF1.521464280035139
aF-0.9276567084151499
aF-2.242448089902983
aa(lp55
S'CD1'
p56
aF0.9637837050963842
aF0.47874315189830496
aF-2.419263839332364
aa(lp57
S'CD2'
p58
aF2.8650167473798858
aF-0.8970643560955683
aF-1.5290955294734316
aa(lp59
S'HA'
p60
aF-0.7884816531448893
aF-1.7713059034814291
aF0.2615588632521174
aa(lp61
S'1HB'
p62
aF1.0719753343422154
aF-2.634967207178783
aF-1.0447266913668527
aa(lp63
S'2HB'
p64
aF-0.23671254483811155
aF-2.131245370456827
aF-2.1197998731065653
aa(lp65
S'HG'
p66
aF1.6479970163376605
aF-1.3628673739564088
aF-3.2344698352508
aa(lp67
S'1HD1'
p68
aF1.6690841325084413
aF1.0801682844986882
aF-2.994450867149387
aa(lp69
S'2HD1'
p70
aF0.012995746825808285
aF0.4288923330728082
aF-2.9492856825332807
aa(lp71
S'3HD1'
p72
aF0.8123296679565523
aF0.9344593974851854
aF-1.4416798899232894
aa(lp73
S'1HD2'
p74
aF3.5700554665359308
aF-0.2965951651731069
aF-2.1041495749715295
aa(lp75
S'2HD2'
p76
aF2.7408467824044793
aF-0.46051939359330546
aF-0.5378718839161328
aa(lp77
S'3HD2'
p78
aF3.2489914897915098
aF-1.9135043932830853
aF-1.4326017576942696
aaa(lp79
(lp80
S'N'
p81
aF-0.9567518309609792
aF0.013564085501972967
aF-0.8150990795831539
aa(lp82
S'H'
p83
aF-0.6411392336423719
aF0.969270031817171
aF-0.728036845568708
aa(lp84
S'CA'
p85
aF-0.11566788742832901
aF-1.060842820239941
aF-0.3028749091014873
aa(lp86
S'C'
p87
aF0.7993408228447832
aF-0.5635016450177097
aF0.8080638000777874
aa(lp88
S'O'
p89
aF0.9142181291868916
aF0.6415103479385142
aF1.037947034175548
aa(lp90
S'CB'
p91
aF0.7247810045561527
aF-1.6618523847144022
aF-1.4366712591451267
aa(lp92
S'CG'
p93
aF1.1451029623823288
aF-0.6859631207911047
aF-2.543018671275883
aa(lp94
S'CD1'
p95
aF0.7844460946425007
aF-1.2716814648798294
aF-3.901617451324674
aa(lp96
S'CD2'
p97
aF0.4577380308838782
aF0.6543961978422237
aF-2.325362180679006
aa(lp98
S'HA'
p99
aF-0.7593950615894228
aF-1.8393529858416178
aF0.10605325977590263
aa(lp100
S'1HB'
p101
aF1.631740064394136
aF-2.086138181393625
aF-1.0085780140290013
aa(lp102
S'2HB'
p103
aF0.15713717169976427
aF-2.4668420222477234
aF-1.9022356075268267
aa(lp104
S'HG'
p105
aF2.2256623396524415
aF-0.5475764725630042
aF-2.5161194559377127
aa(lp106
S'1HD1'
p107
aF1.0825952888888457
aF-0.5775780860675253
aF-4.687013884657299
aa(lp108
S'2HD1'
p109
aF1.3047066170820867
aF-2.21845822847325
aF-4.038503348006731
aa(lp110
S'3HD1'
p111
aF-0.291994627870416
aF-1.4359882621819864
aF-3.951693865694863
aa(lp112
S'1HD2'
p113
aF0.7558872251302311
aF1.3484995766545205
aF-3.11075861401162
aa(lp114
S'2HD2'
p115
aF-0.6237181787481341
aF0.5175407449268634
aF-2.3531839645126986
aa(lp116
S'3HD2'
p117
aF0.7471543605645147
aF1.0584975446498541
aF-1.355027553026019
aaa(lp118
(lp119
S'N'
p120
aF-1.0039014184201402
aF0.02577259486093586
aF-0.7286945282134121
aa(lp121
S'H'
p122
aF-0.6562228669399508
aF0.9662711571774676
aF-0.8519303960489056
aa(lp123
S'CA'
p124
aF-0.07806670724197087
aF-1.028430191098635
aF-0.3334470441572658
aa(lp125
S'C'
p126
aF0.8080160390451817
aF-0.5785516160726405
aF0.8204631059258272
aa(lp127
S'O'
p128
aF0.9301749535568498
aF0.6149380551328801
aF1.093608862493759
aa(lp129
S'CB'
p130
aF0.7945386276472791
aF-1.4409147202093688
aF-1.526240589900659
aa(lp131
S'CG'
p132
aF1.095421224598692
aF-0.33488576308179385
aF-2.5453507943668203
aa(lp133
S'CD1'
p134
aF0.81991488950502
aF1.0241528796653607
aF-1.9161813205020843
aa(lp135
S'CD2'
p136
aF2.543631868862657
aF-0.44392228924622423
aF-2.9998768836098284
aa(lp137
S'HA'
p138
aF-0.655917450636092
aF-1.8915518123079442
aF-0.006902123266004034
aa(lp139
S'1HB'
p140
aF1.7467604689050835
aF-1.8108428097991838
aF-1.1475417998787873
aa(lp141
S'2HB'
p142
aF0.2971668452287645
aF-2.2538527756486473
aF-2.0557177169537786
aa(lp143
S'HG'
p144
aF0.434881178195985
aF-0.4442601059101421
aF-3.406074385439574
aa(lp145
S'1HD1'
p146
aF1.0335021734447094
aF1.8103527453466666
aF-2.640973872438128
aa(lp147
S'2HD1'
p148
aF-0.22761148990208957
aF1.0817414653919468
aF-1.6177168515275604
aa(lp149
S'3HD1'
p150
aF1.4546622033840801
aF1.1550086683612155
aF-1.04134098644786
aa(lp151
S'1HD2'
p152
aF2.756905420295734
aF0.34269430905259
aF-3.725522609525668
aa(lp153
S'2HD2'
p154
aF3.203839298921812
aF-0.3332355899819779
aF-2.139562055247169
aa(lp155
S'3HD2'
p156
aF2.707203629870495
aF-1.4172302982186085
aF-3.4615962774747695
aaa(lp157
(lp158
S'N'
p159
aF-1.0158072454405862
aF0.027808402206627978
aF-0.7077439741016044
aa(lp160
S'H'
p161
aF-0.688000794956662
aF0.9642488806379882
aF-0.89837230719084
aa(lp162
S'CA'
p163
aF-0.04961702224581878
aF-1.0047344891374959
aF-0.35397479774847107
aa(lp164
S'C'
p165
aF0.7849899202194244
aF-0.5887560469812754
aF0.8505974031801831
aa(lp166
S'O'
p167
aF0.9684351424236567
aF0.6014332532741765
aF1.1094936758607068
aa(lp168
S'CB'
p169
aF0.8711060274761738
aF-1.2987631324777449
aF-1.5446234539884756
aa(lp170
S'CG'
p171
aF0.9652726688118486
aF-0.19294578689206965
aF-2.6030990757490384
aa(lp172
S'CD1'
p173
aF1.874194363363625
aF-0.648197205900545
aF-3.7358344811566266
aa(lp174
S'CD2'
p175
aF-0.4286882983648095
aF0.13629363629504088
aF-3.11907312956118
aa(lp176
S'HA'
p177
aF-0.5924359698212137
aF-1.9133748767581997
aF-0.09715144184478541
aa(lp178
S'1HB'
p179
aF1.8765126581096832
aF-1.484385466970281
aF-1.1684122685942584
aa(lp180
S'2HB'
p181
aF0.5188194091080716
aF-2.203311546696098
aF-2.0409220585138517
aa(lp182
S'HG'
p183
aF1.4066798675049923
aF0.6987618620998073
aF-2.1586621807107735
aa(lp184
S'1HD1'
p185
aF1.9407299032375165
aF0.13739366894623983
aF-4.487832486001824
aa(lp186
S'2HD1'
p187
aF2.869330034934915
aF-0.8582681207396126
aF-3.3418532558361305
aa(lp188
S'3HD1'
p189
aF1.4652390118790328
aF-1.550755419185253
aF-4.189498665465285
aa(lp190
S'1HD2'
p191
aF-0.36185584800054027
aF0.9230040314194202
aF-3.870259642872988
aa(lp192
S'2HD2'
p193
aF-0.8708462652056085
aF-0.7556653325992222
aF-3.5641209137016077
aa(lp194
S'3HD2'
p195
aF-1.0522214194649622
aF0.47599132481801465
aF-2.2911716092683094
aaa(lp196
(lp197
S'N'
p198
aF-1.0034348628966587
aF0.012762347978719779
aF-0.7516435048596134
aa(lp199
S'H'
p200
aF-0.6903083933781481
aF0.9697295720596394
aF-0.8382434247309875
aa(lp201
S'CA'
p202
aF-0.04651442262438077
aF-1.0131454295864728
aF-0.35411425697923027
aa(lp203
S'C'
p204
aF0.7507053211925061
aF-0.5791757002376382
aF0.8682588260348818
aa(lp205
S'O'
p206
aF0.9895523577066786
aF0.6098292097857778
aF1.0757423605349024
aa(lp207
S'CB'
p208
aF0.9088038349697692
aF-1.3238143030562122
aF-1.5129778718038265
aa(lp209
S'CG'
p210
aF0.3546123609364318
aF-2.2490520848719213
aF-2.6038824768035114
aa(lp211
S'CD1'
p212
aF1.4978983116513593
aF-3.033836801546584
aF-3.232614680028179
aa(lp213
S'CD2'
p214
aF-0.6825260571318152
aF-3.1824658734278417
aF-1.9986150969617054
aa(lp215
S'HA'
p216
aF-0.5974035891102581
aF-1.919031747549374
aF-0.1023760890822697
aa(lp217
S'1HB'
p218
aF1.195801009382636
aF-0.38608481285349316
aF-1.9870221999875604
aa(lp219
S'2HB'
p220
aF1.8065933915080747
aF-1.7902786305894813
aF-1.106989025516532
aa(lp221
S'HG'
p222
aF-0.1090069043788935
aF-1.649189843294833
aF-3.3882245373603768
aa(lp223
S'1HD1'
p224
aF1.1040669161130203
aF-3.6915593197276824
aF-4.0078339528573785
aa(lp225
S'2HD1'
p226
aF2.214805999712606
aF-2.3422759869779886
aF-3.6749267944359683
aa(lp227
S'3HD1'
p228
aF1.9922991627061892
aF-3.632098016321314
aF-2.468195739019697
aa(lp229
S'1HD2'
p230
aF-1.0772002633385898
aF-3.8397507879986397
aF-2.774147695910793
aa(lp231
S'2HD2'
p232
aF-0.21967335923994114
aF-3.7823697283323723
aF-1.215460741215088
aa(lp233
S'3HD2'
p234
aF-1.4956707248902759
aF-2.594883980418061
aF-1.5726852103570983
aaa(lp235
(lp236
S'N'
p237
aF-1.0259639354653403
aF0.06744279028718314
aF-0.6326044839888173
aa(lp238
S'H'
p239
aF-0.6970156576270365
aF0.9427576864702407
aF-1.014811055134917
aa(lp240
S'CA'
p241
aF-0.06186526364751582
aF-0.9880725664126708
aF-0.34389860810491873
aa(lp242
S'C'
p243
aF0.8531815921053033
aF-0.5964221477633773
aF0.8087020171546347
aa(lp244
S'O'
p245
aF0.9316632646345739
aF0.5742942374186315
aF1.182612130074012
aa(lp246
S'CB'
p247
aF0.7779585011463197
aF-1.2946184286343452
aF-1.5896191539908253
aa(lp248
S'CG'
p249
aF0.5342785734325286
aF-2.6654589847891947
aF-2.2355767860615874
aa(lp250
S'CD1'
p251
aF1.5286983065164017
aF-2.8774978528029904
aF-3.3690453180045026
aa(lp252
S'CD2'
p253
aF0.6657848721963449
aF-3.7535063763586862
aF-1.1805957591780407
aa(lp254
S'HA'
p255
aF-0.6081933961070205
aF-1.8868013377024173
aF-0.05891234994615491
aa(lp256
S'1HB'
p257
aF0.574013070644174
aF-0.5336486383077854
aF-2.341443760922285
aa(lp258
S'2HB'
p259
aF1.832125179126572
aF-1.2383341397015482
aF-1.3207703231296675
aa(lp260
S'HG'
p261
aF-0.4692770362802696
aF-2.693350398312563
aF-2.662423605501118
aa(lp262
S'1HD1'
p263
aF1.3554554302113708
aF-3.8506257951335856
aF-3.827620190478981
aa(lp264
S'2HD1'
p265
aF1.3985304336601563
aF-2.096013669111296
aF-4.117702646503866
aa(lp266
S'3HD1'
p267
aF2.543230334022242
aF-2.8371718423012426
aF-2.974055978854817
aa(lp268
S'1HD2'
p269
aF0.4920784137687717
aF-4.727447619994676
aF-1.639522245933092
aa(lp270
S'2HD2'
p271
aF1.6691951169584656
aF-3.7278037715430443
aF-0.7541825126529021
aa(lp272
S'3HD2'
p273
aF-0.0677611846816204
aF-3.5877927626259813
aF-0.39199371716797815
aaa(lp274
(lp275
S'N'
p276
aF-1.0113503619580522
aF0.02464148363621632
aF-0.7190403623243433
aa(lp277
S'H'
p278
aF-0.6805569283584403
aF0.9660954131940496
aF-0.877877394553895
aa(lp279
S'CA'
p280
aF-0.0556047663776372
aF-1.0121610408171546
aF-0.350136741014176
aa(lp281
S'C'
p282
aF0.7846831709676214
aF-0.5846835235407282
aF0.8471414867070317
aa(lp283
S'O'
p284
aF0.9628288857265008
aF0.6061076675276025
aF1.0999130111853903
aa(lp285
S'CB'
p286
aF0.8612504658752111
aF-1.3347015826951159
aF-1.5369215074885556
aa(lp287
S'CG'
p288
aF1.0760884609515236
aF-2.825793885119953
aF-1.8259014056146834
aa(lp289
S'CD1'
p290
aF2.518648517153642
aF-3.2007852137156974
aF-1.516003054976707
aa(lp291
S'CD2'
p292
aF0.10549799316592312
aF-3.6494807819723096
aF-0.991512982997576
aa(lp293
S'HA'
p294
aF-0.607800187306134
aF-1.9113009686141804
aF-0.07906920819852728
aa(lp295
S'1HB'
p296
aF0.4415888644483043
aF-0.8808618275168659
aF-2.433199152477848
aa(lp297
S'2HB'
p298
aF1.8387201189123719
aF-0.8886580657369197
aF-1.3524811150280809
aa(lp299
S'HG'
p300
aF0.9006083223643031
aF-3.0205751229539706
aF-2.883275979901988
aa(lp301
S'1HD1'
p302
aF2.6712236347542753
aF-4.26085305596696
aF-1.7215608408032528
aa(lp303
S'2HD1'
p304
aF3.1897546064195845
aF-2.611085431925448
aF-2.1406579871646336
aa(lp305
S'3HD1'
p306
aF2.729052941268893
aF-3.0019017684809164
aF-0.46600860093217844
aa(lp307
S'1HD2'
p308
aF0.25718784251812965
aF-4.709294827647279
aF-1.1974604961983075
aa(lp309
S'2HD2'
p310
aF0.2810289506304742
aF-3.456560588801898
aF0.0671001106483834
aa(lp311
S'3HD2'
p312
aF-0.9176642582111585
aF-3.3733164598397285
aF-1.2458892290152275
aaa(lp313
(lp314
S'N'
p315
aF-1.02574982533713
aF0.07137622751855105
aF-0.6271279693699432
aa(lp316
S'H'
p317
aF-0.6995925645241166
aF0.9404480490207212
aF-1.0255606616654578
aa(lp318
S'CA'
p319
aF-0.06352355192531454
aF-0.9863523741179082
aF-0.34231960566517206
aa(lp320
S'C'
p321
aF0.8593557964886347
aF-0.5964310065330422
aF0.8049192689253802
aa(lp322
S'O'
p323
aF0.929510145297923
aF0.5709591041116774
aF1.1900889677751934
aa(lp324
S'CB'
p325
aF0.7683499942920754
aF-1.2955935946713795
aF-1.5936833699696633
aa(lp326
S'CG'
p327
aF1.1678116629643176
aF-2.764765378958848
aF-1.7798490045942263
aa(lp328
S'CD1'
p329
aF0.05652921881334372
aF-3.5040840982490127
aF-2.513059179529755
aa(lp330
S'CD2'
p331
aF2.4766451272562313
aF-2.8411023855423614
aF-2.550678832880273
aa(lp332
S'HA'
p333
aF-0.6100148769836897
aF-1.8828065348747551
aF-0.05366900494229304
aa(lp334
S'1HB'
p335
aF0.2015427319960173
aF-0.9926565958691763
aF-2.4710594023327332
aa(lp336
S'2HB'
p337
aF1.6845852916261594
aF-0.7055910222944434
aF-1.5559495057662671
aa(lp338
S'HG'
p339
aF1.2930884813778243
aF-3.23437217107985
aF-0.8038776015490285
aa(lp340
S'1HD1'
p341
aF0.3402085854432333
aF-4.548927941662508
aF-2.645102202175341
aa(lp342
S'2HD1'
p343
aF-0.8630789090330562
aF-3.4496939237275632
aF-1.9294697689726708
aa(lp344
S'3HD1'
p345
aF-0.10293473771119377
aF-3.0455443659581998
aF-3.4877040176529612
aa(lp346
S'1HD2'
p347
aF2.761321653924544
aF-3.885945338838834
aF-2.68264654904894
aa(lp348
S'2HD2'
p349
aF2.35243577981704
aF-2.373537409212213
aF-3.527481797104952
aa(lp350
S'3HD2'
p351
aF3.257600411848486
aF-2.32093744132908
aF-1.9956191295338426
aaa(lp352
(lp353
S'N'
p354
aF-0.9779385712229731
aF0.01382984357882062
aF-0.7862473696877643
aa(lp355
S'H'
p356
aF-0.6533266821572432
aF0.970123530988421
aF-0.7690862246874267
aa(lp357
S'CA'
p358
aF-0.08859712269546989
aF-1.0455794024021208
aF-0.3244153250426493
aa(lp359
S'C'
p360
aF0.7827325813522008
aF-0.570207902016578
aF0.8300678855175618
aa(lp361
S'O'
p362
aF0.9371297947235815
aF0.631833929851435
aF1.0496810339002165
aa(lp363
S'CB'
p364
aF0.8001997931631365
aF-1.5320766004072963
aF-1.476777038522133
aa(lp365
S'CG'
p366
aF2.1520486229472304
aF-0.8219989795715077
aF-1.6191305203887991
aa(lp367
S'CD1'
p368
aF2.8462810863532972
aF-0.7737010229289312
aF-0.26380967492921314
aa(lp369
S'CD2'
p370
aF3.005426612313909
aF-1.5545809242608404
aF-2.64331346380256
aa(lp371
S'HA'
p372
aF-0.6964591341970697
aF-1.879838710388255
aF0.024579205017226546
aa(lp373
S'1HB'
p374
aF0.9966094000966127
aF-2.594204540799512
aF-1.3399358731425792
aa(lp375
S'2HB'
p376
aF0.25753416208734414
aF-1.401170500902848
aF-2.4130759256098178
aa(lp377
S'HG'
p378
aF1.9920737510769986
aF0.2054461521181064
aF-1.9476370526486624
aa(lp379
S'1HD1'
p380
aF3.8071473587399236
aF-0.2696053007658803
aF-0.36462886698494756
aa(lp381
S'2HD1'
p382
aF2.2235773181012375
aF-0.22813356934188658
aF0.4443210831876959
aa(lp383
S'3HD1'
p384
aF3.0056762614684844
aF-1.7890548316955326
aF0.09857109328725322
aa(lp385
S'1HD2'
p386
aF3.966860451983683
aF-1.0495851159478495
aF-2.7450641666213818
aa(lp387
S'2HD2'
p388
aF3.167546661049108
aF-2.581475044845491
aF-2.3151145075172503
aa(lp389
S'3HD2'
p390
aF2.4943592224481748
aF-1.5580553261957295
aF-3.60647183683735
aaa.