(lp0
(lp1
(lp2
S'N'
p3
aF0.23099999999999454
aF0.7295999999999936
aF1.1193999999999997
aa(lp4
S'H'
p5
aF0.5930000000000035
aF1.6696000000000055
aF1.0384000000000002
aa(lp6
S'CA'
p7
aF0.546999999999997
aF-0.24540000000000078
aF0.08340000000000014
aa(lp8
S'C'
p9
aF-0.7169999999999987
aF-0.7574000000000012
aF-0.5956000000000001
aa(lp10
S'O'
p11
aF-0.6539999999999964
aF-1.396399999999997
aF-1.6456
aa(lp12
S'CB'
p13
aF1.3250000000000028
aF-1.423399999999998
aF0.6833999999999998
aa(lp14
S'CG'
p15
aF2.8079999999999927
aF-1.1613999999999975
aF0.9733999999999998
aa(lp16
S'CD1'
p17
aF3.3009999999999877
aF-0.013400000000001456
aF0.10339999999999971
aa(lp18
S'CD2'
p19
aF2.9890000000000043
aF-0.845399999999995
aF2.4504
aa(lp20
S'HA'
p21
aF1.1680000000000064
aF0.23859999999999387
aF-0.6685999999999996
aa(lp22
S'1HB'
p23
aF0.8499999999999943
aF-1.7113999999999947
aF1.6204
aa(lp24
S'2HB'
p25
aF1.2650000000000006
aF-2.2664000000000017
aF-0.0045999999999999375
aa(lp26
S'HG'
p27
aF3.390999999999991
aF-2.0473999999999934
aF0.7183999999999999
aa(lp28
S'1HD1'
p29
aF4.3559999999999945
aF0.17260000000000558
aF0.3094000000000001
aa(lp30
S'2HD1'
p31
aF3.1779999999999973
aF-0.27439999999999715
aF-0.9476000000000004
aa(lp32
S'3HD1'
p33
aF2.7249999999999943
aF0.8836000000000042
aF0.32540000000000013
aa(lp34
S'1HD2'
p35
aF4.044000000000011
aF-0.6603999999999928
aF2.6563999999999997
aa(lp36
S'2HD2'
p37
aF2.409000000000006
aF0.040600000000000594
aF2.7064000000000004
aa(lp38
S'3HD2'
p39
aF2.646000000000001
aF-1.6894000000000033
aF3.048399999999999
aaa(lp40
(lp41
S'N'
p42
aF0.21025535457389122
aF0.7365637599464585
aF1.107454447553745
aa(lp43
S'H'
p44
aF0.6295758722888404
aF1.6554792397731464
aF1.108257166776701
aa(lp45
S'CA'
p46
aF0.5364597243877798
aF-0.19136258603284048
aF0.03073702615116533
aa(lp47
S'C'
p48
aF-0.7235919654849808
aF-0.7294811327425557
aF-0.6332691248262288
aa(lp49
S'O'
p50
aF-0.6526989857654899
aF-1.4711992809441652
aF-1.6131795156553488
aa(lp51
S'CB'
p52
aF1.3761902699198763
aF-1.3567292928889718
aF0.570476824064626
aa(lp53
S'CG'
p54
aF2.6961991058990633
aF-0.9671122592167867
aF1.24828302056135
aa(lp55
S'CD1'
p56
aF3.5717697383776805
aF-2.202849742714666
aF1.402224371144429
aa(lp57
S'CD2'
p58
aF3.3963971354161804
aF0.100172135137088
aF0.42165327210740605
aa(lp59
S'HA'
p60
aF1.119397738680598
aF0.34241722108846695
aF-0.719709100497427
aa(lp61
S'1HB'
p62
aF0.7796011040765582
aF-1.905782440521528
aF1.2973991089570096
aa(lp63
S'2HB'
p64
aF1.6120946782653247
aF-2.02623602579363
aF-0.2560362397876761
aa(lp65
S'HG'
p66
aF2.491863373071763
aF-0.5773231853672458
aF2.246080788747568
aa(lp67
S'1HD1'
p68
aF4.509411453235142
aF-1.9263448829642147
aF1.884329211499242
aa(lp69
S'2HD1'
p70
aF3.054011664875686
aF-2.9417346782550355
aF2.0143792774835116
aa(lp71
S'3HD1'
p72
aF3.779802613208053
aF-2.625567774425032
aF0.42017509098752853
aa(lp73
S'1HD2'
p74
aF4.3340388502736475
aF0.3766769948875527
aF0.9037581124622434
aa(lp75
S'2HD2'
p76
aF3.602876825607284
aF-0.28947492594709623
aF-0.5755254006122751
aa(lp77
S'3HD2'
p78
aF2.7551868676749374
aF0.9785360188117787
aF0.34248711520234787
aaa(lp79
(lp80
S'N'
p81
aF0.2579441154283098
aF0.6947521191469652
aF1.139092659205877
aa(lp82
S'H'
p83
aF0.5608226771303204
aF1.6567078920457807
aF1.0782595444741567
aa(lp84
S'CA'
p85
aF0.560528930975784
aF-0.21567255696878804
aF0.04105880794280242
aa(lp86
S'C'
p87
aF-0.7065150944097504
aF-0.6322150127120043
aF-0.6949037048920826
aa(lp88
S'O'
p89
aF-0.6727806291246714
aF-1.5035724415119418
aF-1.563507306730742
aa(lp90
S'CB'
p91
aF1.2856899927065315
aF-1.4598449991892415
aF0.5694860674296227
aa(lp92
S'CG'
p93
aF2.7585614912306555
aF-1.2611944826039236
aF0.9475237918642169
aa(lp94
S'CD1'
p95
aF2.855624772473411
aF-0.8384940230109812
aF2.407247409846162
aa(lp96
S'CD2'
p97
aF3.5260466991000503
aF-2.55136144869571
aF0.6988640739620997
aa(lp98
S'HA'
p99
aF1.213968053176486
aF0.29822559227621986
aF-0.664280830657022
aa(lp100
S'1HB'
p101
aF0.7619594805675245
aF-1.8183123642793655
aF1.4538646621615197
aa(lp102
S'2HB'
p103
aF1.2411397364327035
aF-2.237629809443782
aF-0.1937151272780664
aa(lp104
S'HG'
p105
aF3.185897103593212
aF-0.46203861759194
aF0.3411499980508059
aa(lp106
S'1HD1'
p107
aF3.9026416606519714
aF-0.6975481366545992
aF2.6767170611764857
aa(lp108
S'2HD1'
p109
aF2.314951324827848
aF0.0962113723291328
aF2.5524784221443175
aa(lp110
S'3HD1'
p111
aF2.4207097575864673
aF-1.611551573271694
aF3.039261613650787
aa(lp112
S'1HD2'
p113
aF4.573237663879499
aF-2.409822549715745
aF0.9675475743111879
aa(lp114
S'2HD2'
p115
aF3.100379493092722
aF-3.3503289758873525
aF1.3070213893198819
aa(lp116
S'3HD2'
p117
aF3.4544570693760472
aF-2.819190563529534
aF-0.35473522850697203
aaa(lp118
(lp119
S'N'
p120
aF0.30543362055774714
aF0.7018365311592327
aF1.1535888465841637
aa(lp121
S'H'
p122
aF0.4887748069109687
aF1.6676592594654995
aF0.9208261629906822
aa(lp123
S'CA'
p124
aF0.5677904864394456
aF-0.33000590076091507
aF0.15845917130869971
aa(lp125
S'C'
p126
aF-0.7068223876484476
aF-0.7213244391061637
aF-0.5783486888263127
aa(lp127
S'O'
p128
aF-0.6551765262597139
aF-1.318165450757662
aF-1.6545254920571937
aa(lp129
S'CB'
p130
aF1.1784527205516042
aF-1.568095989049335
aF0.8275612331132787
aa(lp131
S'CG'
p132
aF2.465866833392122
aF-2.102594064650691
aF0.1868384309300754
aa(lp133
S'CD1'
p134
aF3.618792354377765
aF-1.967107727465
aF1.1729394376712745
aa(lp135
S'CD2'
p136
aF2.26472812396485
aF-3.5540905366385855
aF-0.2227860451167158
aa(lp137
S'HA'
p138
aF1.2774248876811019
aF0.06232810811500089
aF-0.5683269334386085
aa(lp139
S'1HB'
p140
aF1.400392996874661
aF-1.3276518438916458
aF1.8660963200530656
aa(lp141
S'2HB'
p142
aF0.44231179827283995
aF-2.3713982011193058
aF0.8113409177631712
aa(lp143
S'HG'
p144
aF2.7092213918151025
aF-1.5072839996702585
aF-0.69373268228439
aa(lp145
S'1HD1'
p146
aF4.533465000175325
aF-2.347938842516408
aF0.7179860193542116
aa(lp147
S'2HD1'
p148
aF3.7532220795595554
aF-0.9178527747918324
aF1.4336590059402863
aa(lp149
S'3HD1'
p150
aF3.396319552445638
aF-2.5399624098458498
aF2.072291073726279
aa(lp151
S'1HD2'
p152
aF3.179398793660691
aF-3.9346118845718325
aF-0.6791193331477543
aa(lp153
S'2HD2'
p154
aF2.0230735320967996
aF-4.150481991436185
aF0.656815166156604
aa(lp155
S'3HD2'
p156
aF1.4474006581526488
aF-3.6192490178210384
aF-0.9413820275428813
aaa(lp157
(lp158
S'N'
p159
aF0.2834595981618003
aF0.689683470268186
aF1.151552416109998
aa(lp160
S'H'
p161
aF0.5251993753992277
aF1.662504133760896
aF1.0262893458027313
aa(lp162
S'CA'
p163
aF0.5668383533244469
aF-0.2561040743388693
aF0.07841290906134457
aa(lp164
S'C'
p165
aF-0.7030215129118385
aF-0.6375405696123249
aF-0.6700195329104689
aa(lp166
S'O'
p167
aF-0.6724758139736207
aF-1.4585429600778725
aF-1.586235138063652
aa(lp168
S'CB'
p169
aF1.2330831787650731
aF-1.5165551413479008
aF0.645715244901212
aa(lp170
S'CG'
p171
aF2.7664184689498366
aF-1.5318437046857754
aF0.6116836756590776
aa(lp172
S'CD1'
p173
aF3.295789650880135
aF-0.1411594544075084
aF0.93546982077604
aa(lp174
S'CD2'
p175
aF3.2862721006215496
aF-2.55931854459608
aF1.60601141588814
aa(lp176
S'HA'
p177
aF1.2520303791698768
aF0.21575282724948958
aF-0.6256069430317988
aa(lp178
S'1HB'
p179
aF0.9232214599932143
aF-1.6358820322871102
aF1.6829118551629905
aa(lp180
S'2HB'
p181
aF0.879937898745268
aF-2.3795650544223
aF0.08044778507793415
aa(lp182
S'HG'
p183
aF3.1052816114069266
aF-1.7924759564603645
aF-0.3909880552773392
aa(lp184
S'1HD1'
p185
aF4.3853712305352435
aF-0.15182593309942383
aF0.9107269933587679
aa(lp186
S'2HD1'
p187
aF2.924056512001775
aF0.5707218037316645
aF0.19712061628684205
aa(lp188
S'3HD1'
p189
aF2.958041852484937
aF0.15535017296113904
aF1.927818280520348
aa(lp190
S'1HD2'
p191
aF4.376098086668478
aF-2.5712309815478593
aF1.5806458095933102
aa(lp192
S'2HD2'
p193
aF2.9483077892689105
aF-2.298728058868963
aF2.6091194474582338
aa(lp194
S'3HD2'
p195
aF2.9066831538997513
aF-3.5466107013925843
aF1.3400275279273162
aaa(lp196
(lp197
S'N'
p198
aF0.22404457127575506
aF0.7177520972299106
aF1.1176000702415543
aa(lp199
S'H'
p200
aF0.6125968202694576
aF1.649976802596973
aF1.1217532022185637
aa(lp201
S'CA'
p202
aF0.5434940478236508
aF-0.17915776318464646
aF0.013786800605600072
aa(lp203
S'C'
p204
aF-0.7201572442133883
aF-0.6723583201415291
aF-0.6788722950183188
aa(lp205
S'O'
p206
aF-0.6599781951554753
aF-1.5162128165007078
aF-1.5742677780473993
aa(lp207
S'CB'
p208
aF1.356158864922213
aF-1.3766802071579833
aF0.5231048655024508
aa(lp209
S'CG'
p210
aF1.8011590691676596
aF-2.3819574276877082
aF-0.5473088526951193
aa(lp211
S'CD1'
p212
aF2.7289134010453155
aF-1.6919699555972305
aF-1.5382236765020858
aa(lp213
S'CD2'
p214
aF2.4935669852563658
aF-3.5609324351128047
aF0.12013343664882825
aa(lp215
S'HA'
p216
aF1.142567977112145
aF0.36723926138562596
aF-0.7136949646556484
aa(lp217
S'1HB'
p218
aF2.2505436317186307
aF-1.0039226072699419
aF1.019102507279343
aa(lp219
S'2HB'
p220
aF0.7578543995977938
aF-1.9166584337768793
aF1.255705903960886
aa(lp221
S'HG'
p222
aF0.9305448172016785
aF-2.7366350600744087
aF-1.098849967534525
aa(lp223
S'1HD1'
p224
aF3.045687948587072
aF-2.4059742249166454
aF-2.298624090378461
aa(lp225
S'2HD1'
p226
aF2.2028584936013615
aF-0.8647022781868234
aF-2.0151046095095944
aa(lp227
S'3HD1'
p228
aF3.6044067738296164
aF-1.3112412437169882
aF-1.0122664518528066
aa(lp229
S'1HD2'
p230
aF2.808997122486411
aF-4.275783886952269
aF-0.6409560655321194
aa(lp231
S'2HD2'
p232
aF3.3656852460312394
aF-3.2073400999454744
aF0.6700745241608581
aa(lp233
S'3HD2'
p234
aF1.8012807830391324
aF-4.046122346540257
aF0.8091033663762912
aaa(lp235
(lp236
S'N'
p237
aF0.2693208114271802
aF0.7191708898351595
aF1.135232034319815
aa(lp238
S'H'
p239
aF0.5245657906727089
aF1.6730630441920353
aF0.9212840069244768
aa(lp240
S'CA'
p241
aF0.562009656386321
aF-0.32852541885163405
aF0.16453399435035454
aa(lp242
S'C'
p243
aF-0.7037391109906753
aF-0.791456449263725
aF-0.5439431887439307
aa(lp244
S'O'
p245
aF-0.6521571474955524
aF-1.272252065911829
aF-1.6771068468507235
aa(lp246
S'CB'
p247
aF1.2336182875387518
aF-1.5207177325913008
aF0.8580708236691817
aa(lp248
S'CG'
p249
aF2.7676358093160136
aF-1.5088330453621386
aF0.8664372500157644
aa(lp250
S'CD1'
p251
aF3.2796887479899146
aF-2.660503977707094
aF1.7210516961767879
aa(lp252
S'CD2'
p253
aF3.28343698427643
aF-1.6163573892503402
aF-0.5607129394810718
aa(lp254
S'HA'
p255
aF1.246752163107204
aF0.07321945654064332
aF-0.5818558197452324
aa(lp256
S'1HB'
p257
aF0.8962626787730034
aF-1.554841012802394
aF1.893035941430125
aa(lp258
S'2HB'
p259
aF0.911521422317555
aF-2.4365587294729285
aF0.36320227764352286
aa(lp260
S'HG'
p261
aF3.1216578406029845
aF-0.5793405804764116
aF1.3115823489263467
aa(lp262
S'1HD1'
p263
aF4.369604844224608
aF-2.651052401093553
aF1.7271812041545873
aa(lp264
S'2HD1'
p265
aF2.910805764188566
aF-2.5478570626775685
aF2.74182053229795
aa(lp266
S'3HD1'
p267
aF2.9262177703701253
aF-3.6044427934596994
aF1.3091781960628834
aa(lp268
S'1HD2'
p269
aF4.373784235341743
aF-1.6064091199903658
aF-0.5553366923657984
aa(lp270
S'2HD2'
p271
aF2.9304501840302457
aF-2.546132195326477
aF-1.0067792224907266
aa(lp272
S'3HD2'
p273
aF2.9162436748239493
aF-0.7714634431284222
aF-1.1443946106853853
aaa(lp274
(lp275
S'N'
p276
aF0.2804404635175952
aF0.6885224070498726
aF1.149955895420464
aa(lp277
S'H'
p278
aF0.5290697427953328
aF1.6612261364176009
aF1.0367484029124592
aa(lp279
S'CA'
p280
aF0.5671345516227676
aF-0.24824593497015313
aF0.07116232237945555
aa(lp281
S'C'
p282
aF-0.7021045318019263
aF-0.6305297697227463
aF-0.679440914220349
aa(lp283
S'O'
p284
aF-0.6745402261337634
aF-1.4709728387745753
aF-1.5784257064920333
aa(lp285
S'CB'
p286
aF1.2382771694148333
aF-1.510179053678999
aF0.6284103735101827
aa(lp287
S'CG'
p288
aF2.757253649938631
aF-1.5973494186257662
aF0.43402472823105254
aa(lp289
S'CD1'
p290
aF3.0606047385825708
aF-2.1713870850449233
aF-0.9440078818876533
aa(lp291
S'CD2'
p292
aF3.3710527041491547
aF-0.21429089593321898
aF0.5969874351850495
aa(lp293
S'HA'
p294
aF1.2493449160306325
aF0.23061144613911788
aF-0.631089503714042
aa(lp295
S'1HB'
p296
aF1.038444882195424
aF-1.5653508825671947
aF1.6972177117530478
aa(lp297
S'2HB'
p298
aF0.7921218095418425
aF-2.381274197893775
aF0.15079374421213532
aa(lp299
S'HG'
p300
aF3.1813052281122904
aF-2.2717644035051197
aF1.1769673149890145
aa(lp301
S'1HD1'
p302
aF4.140334993217468
aF-2.233138605519704
aF-1.0820851318063909
aa(lp303
S'2HD1'
p304
aF2.627241765206035
aF-3.1678789227394817
aF-1.0257608678537296
aa(lp305
S'3HD1'
p306
aF2.633666644554575
aF-1.5242589038450955
aF-1.7090660371704702
aa(lp307
S'1HD2'
p308
aF4.450782958784045
aF-0.2760424164079987
aF0.45891018526631533
aa(lp309
S'2HD2'
p310
aF2.9478965669353987
aF0.4620148308816403
aF-0.1472292317982712
aa(lp311
S'3HD2'
p312
aF3.1533619191043782
aF0.16495399192789545
aF1.5962376726820455
aaa(lp313
(lp314
S'N'
p315
aF0.21908717595945448
aF0.7270507758206958
aF1.113687397211903
aa(lp316
S'H'
p317
aF0.6189591226165336
aF1.6544016447120318
aF1.1102534136420803
aa(lp318
S'CA'
p319
aF0.5404396301506743
aF-0.1892250996046371
aF0.025913468355901775
aa(lp320
S'C'
p321
aF-0.7230281448045938
aF-0.703485601162599
aF-0.6520867662951886
aa(lp322
S'O'
p323
aF-0.6554577839220053
aF-1.4887417197655002
aF-1.5977675129147282
aa(lp324
S'CB'
p325
aF1.3611547448564054
aF-1.3717029418964923
aF0.5550645365607666
aa(lp326
S'CG'
p327
aF0.5867113038074198
aF-2.3987086756682974
aF1.390285213637199
aa(lp328
S'CD1'
p329
aF-0.7193514915840771
aF-2.7432749862858334
aF0.6894257183875584
aa(lp330
S'CD2'
p331
aF1.4436703553789694
aF-3.6396713427264245
aF1.5921139600970777
aa(lp332
S'HA'
p333
aF1.1336396802450879
aF0.34749130021680585
aF-0.7130305124238892
aa(lp334
S'1HB'
p335
aF1.8001650787280563
aF-1.8962389680018223
aF-0.2923544177183687
aa(lp336
S'2HB'
p337
aF2.1712507075966743
aF-0.9840441576101613
aF1.1736930180563732
aa(lp338
S'HG'
p339
aF0.3404828247241172
aF-1.9662503845667036
aF2.3610850707374227
aa(lp340
S'1HD1'
p341
aF-1.269500694588082
aF-3.4725008750953883
aF1.2827615908274241
aa(lp342
S'2HD1'
p343
aF-1.32101377705459
aF-1.841299375298001
aF0.5758541927945923
aa(lp344
S'3HD1'
p345
aF-0.5050673250401719
aF-3.163167788035765
aF-0.29331856727742467
aa(lp346
S'1HD2'
p347
aF0.8937735330791545
aF-4.369355519195328
aF2.186302051054373
aa(lp348
S'2HD2'
p349
aF1.6898225147879788
aF-4.073456883131871
aF0.6217963732455187
aa(lp350
S'3HD2'
p351
aF2.3630995693987367
aF-3.3669938118922174
aF2.1106647142042774
aaa(lp352
(lp353
S'N'
p354
aF0.2381672903900341
aF0.7062217851318677
aF1.1266786995383598
aa(lp355
S'H'
p356
aF0.5909045151397417
aF1.6531662711168469
aF1.105664639042558
aa(lp357
S'CA'
p358
aF0.5511516979062246
aF-0.19275200501399142
aF0.02355908440926395
aa(lp359
S'C'
p360
aF-0.7141303752428827
aF-0.6522815142036582
aF-0.6897738711952083
aa(lp361
S'O'
p362
aF-0.6660931281930746
aF-1.5143545370311164
aF-1.5661285517949057
aa(lp363
S'CB'
p364
aF1.3275335732045197
aF-1.4117878810310596
aF0.536762471665781
aa(lp365
S'CG'
p366
aF2.79791238470775
aF-1.1625255521120652
aF0.8947575024472669
aa(lp367
S'CD1'
p368
aF3.5543591123492853
aF-0.7141137418008647
aF-0.34940896415350686
aa(lp369
S'CD2'
p370
aF2.8828962241951124
aF-0.11397788086514227
aF1.993088749452769
aa(lp371
S'HA'
p372
aF1.1737610040591409
aF0.3430602713203682
aF-0.6929155183654533
aa(lp373
S'1HB'
p374
aF0.8296820743567515
aF-1.7898437826715485
aF1.4288457751357155
aa(lp375
S'2HB'
p376
aF1.2988366476295723
aF-2.189700122254276
aF-0.22692531232555557
aa(lp377
S'HG'
p378
aF3.2508216326640316
aF-2.090963154858892
aF1.2425761777960285
aa(lp379
S'1HD1'
p380
aF4.59870286517713
aF-0.5368581529128268
aF-0.09557322565830789
aa(lp381
S'2HD1'
p382
aF3.4935883559513994
aF-1.4911994963216797
aF-1.1109551842134882
aa(lp383
S'3HD1'
p384
aF3.1128832541217184
aF0.20522426034477853
aF-0.7316728839956708
aa(lp385
S'1HD2'
p386
aF3.92856364074929
aF0.06336166538719512
aF2.248038429373969
aa(lp387
S'2HD2'
p388
aF2.4316776507319013
aF0.8154877866919927
aF1.6449790371574071
aa(lp389
S'3HD2'
p390
aF2.349618347282193
aF-0.46748495308820437
aF2.876043706335354
aaa(lp391
(lp392
S'N'
p393
aF0.2343979943514344
aF0.7138985924270148
aF1.1240295636569142
aa(lp394
S'H'
p395
aF0.597144952675489
aF1.65656448996745
aF1.0968882696396527
aa(lp396
S'CA'
p397
aF0.5475324781092973
aF-0.19956634217960315
aF0.03242129677459414
aa(lp398
S'C'
p399
aF-0.7181153590627278
aF-0.6770433718619435
aF-0.6664479602309674
aa(lp400
S'O'
p401
aF-0.6609600660734886
aF-1.4938533683529145
aF-1.5868911698401926
aa(lp402
S'CB'
p403
aF1.334876890625119
aF-1.4052479081895457
aF0.5596951700737831
aa(lp404
S'CG'
p405
aF0.48935981259009564
aF-2.561440521256831
aF1.1111391946490419
aa(lp406
S'CD1'
p407
aF0.8426522936204857
aF-3.8458005659515533
aF0.37305200573491337
aa(lp408
S'CD2'
p409
aF0.7370023715986891
aF-2.7025796814845275
aF2.6057441258659484
aa(lp410
S'HA'
p411
aF1.1630086153826757
aF0.32989962886887203
aF-0.6952296566012226
aa(lp412
S'1HB'
p413
aF1.948003901746356
aF-1.8007828848946932
aF-0.24857047341008787
aa(lp414
S'2HB'
p415
aF1.995350234006259
aF-1.0675170269654388
aF1.3582230747524657
aa(lp416
S'HG'
p417
aF-0.5663146415134751
aF-2.3559251285322307
aF0.9356374274032941
aa(lp418
S'1HD1'
p419
aF0.24204687533293634
aF-4.666485491499024
aF0.7652042523213349
aa(lp420
S'2HD1'
p421
aF0.6382221675084931
aF-3.7227281747059684
aF-0.6896556257663053
aa(lp422
S'3HD1'
p423
aF1.8996013863367391
aF-4.068542101968568
aF0.5169367635762869
aa(lp424
S'1HD2'
p425
aF0.1359341307995321
aF-3.5248094415151248
aF2.9972644850078876
aa(lp426
S'2HD2'
p427
aF1.7922316844819288
aF-2.9101798037560984
aF2.7819209871865826
aa(lp428
S'3HD2'
p429
aF0.45959802810119155
aF-1.7769459346180798
aF3.1096915406531513
aaa(lp430
(lp431
S'N'
p432
aF0.30087044137215163
aF0.7010762889731237
aF1.1536641168677306
aa(lp433
S'H'
p434
aF0.49725691776694825
aF1.6686030102920617
aF0.9404965878604699
aa(lp435
S'CA'
p436
aF0.5667223835337474
aF-0.3174845488788043
aF0.14376780315860205
aa(lp437
S'C'
p438
aF-0.7072990589487252
aF-0.7090810577427347
aF-0.5918445528689874
aa(lp439
S'O'
p440
aF-0.6575506837241176
aF-1.3431136926436444
aF-1.6460839550178177
aa(lp441
S'CB'
p442
aF1.1921905357147207
aF-1.5581576662454353
aF0.7937968843935002
aa(lp443
S'CG'
p444
aF2.474442530976351
aF-2.079882054071381
aF0.1343937574709717
aa(lp445
S'CD1'
p446
aF2.4225648999817095
aF-1.8082635609145759
aF-1.363226055958862
aa(lp447
S'CD2'
p448
aF3.6823516969631043
aF-1.4073037647996332
aF0.770656196662126
aa(lp449
S'HA'
p450
aF1.2703606126130593
aF0.090919368271132
aF-0.5812359782347909
aa(lp451
S'1HB'
p452
aF1.4234206762911037
aF-1.3270847796951852
aF1.8322086250774943
aa(lp453
S'2HB'
p454
aF0.45902461481845636
aF-2.365166737621866
aF0.7775152643118363
aa(lp455
S'HG'
p456
aF2.5434783322585686
aF-3.158260937671429
aF0.27534070332946303
aa(lp457
S'1HD1'
p458
aF3.3341720987559995
aF-2.1797248128759112
aF-1.8317747230514185
aa(lp459
S'2HD1'
p460
aF1.5612286791172894
aF-2.3169876099388778
aF-1.7951065447185617
aa(lp461
S'3HD1'
p462
aF2.3372125937884096
aF-0.7367481186822519
aF-1.5361990043789975
aa(lp463
S'1HD2'
p464
aF4.5939588957373925
aF-1.7787650167609699
aF0.3021075295695712
aa(lp465
S'2HD2'
p466
aF3.6152089887808505
aF-0.3287005009091145
aF0.628540554093568
aa(lp467
S'3HD2'
p468
aF3.704468674124973
aF-1.6325399672180316
aF1.8362285745142168
aaa(lp469
(lp470
S'N'
p471
aF0.2539852748299748
aF0.711084939880589
aF1.1353758357674193
aa(lp472
S'H'
p473
aF0.5668041913881711
aF1.6667104572343066
aF1.0383439027463968
aa(lp474
S'CA'
p475
aF0.5546103176306237
aF-0.24428285089044058
aF0.07581084578408226
aa(lp476
S'C'
p477
aF-0.7162649630306558
aF-0.7006841469020503
aF-0.6308488162902678
aa(lp478
S'O'
p479
aF-0.6591348208181066
aF-1.4328283993223951
aF-1.6186817680076255
aa(lp480
S'CB'
p481
aF1.2903686071919784
aF-1.46112490088146
aF0.6525570332143946
aa(lp482
S'CG'
p483
aF0.8800770667028813
aF-2.8216426168343185
aF0.07599012783263392
aa(lp484
S'CD1'
p485
aF1.3789616514680407
aF-2.93809930509919
aF-1.3582124418352888
aa(lp486
S'CD2'
p487
aF1.4479101438978423
aF-3.933919366854315
aF0.9454037393020273
aa(lp488
S'HA'
p489
aF1.1994135845348919
aF0.24096836112914044
aF-0.655287648417014
aa(lp490
S'1HB'
p491
aF2.357696199996696
aF-1.3358500611732
aF0.4779144720394038
aa(lp492
S'2HB'
p493
aF1.1204933961239485
aF-1.4917530372903252
aF1.7291076961767615
aa(lp494
S'HG'
p495
aF-0.20818413857691204
aF-2.896289614506414
aF0.057405865094627195
aa(lp496
S'1HD1'
p497
aF1.0869032583816116
aF-3.904528077168125
aF-1.767277624349157
aa(lp498
S'2HD1'
p499
aF0.9415115273428436
aF-2.142207930176346
aF-1.9612980976307783
aa(lp500
S'3HD1'
p501
aF2.464685757923517
aF-2.8511193887669743
aF-1.372483349875693
aa(lp502
S'1HD2'
p503
aF1.1558256759812129
aF-4.901294279379698
aF0.5360158520625962
aa(lp504
S'2HD2'
p505
aF2.536119199517233
aF-3.8611646500951173
aF0.9633425925889076
aa(lp506
S'3HD2'
p507
aF1.0603464593438046
aF-3.8368135196665047
aF1.9594263449952312
aaa(lp508
(lp509
S'N'
p510
aF0.23239916150255938
aF0.7151131014100454
aF1.1229401951682922
aa(lp511
S'H'
p512
aF0.5998506489639857
aF1.655141905922954
aF1.1020057487124078
aa(lp513
S'CA'
p514
aF0.5473409795389734
aF-0.19593814719892488
aF0.028591862296188104
aa(lp515
S'C'
p516
aF-0.7184850771924083
aF-0.675950373865978
aF-0.669586951726414
aa(lp517
S'O'
p518
aF-0.6611057128131284
aF-1.4983664862681063
aF-1.5839508544504872
aa(lp519
S'CB'
p520
aF1.338411750295921
aF-1.4009581175564367
aF0.5525440611593947
aa(lp521
S'CG'
p522
aF0.7585866577947561
aF-2.0877793296699028
aF1.7949310719965963
aa(lp523
S'CD1'
p524
aF1.8492140912329007
aF-2.8970557256454716
aF2.4844907259417224
aa(lp525
S'CD2'
p526
aF0.18159031230294886
aF-1.0379193950731669
aF2.733595194575935
aa(lp527
S'HA'
p528
aF1.1595254413659748
aF0.3360602639977252
aF-0.698204446982982
aa(lp529
S'1HB'
p530
aF1.401143512079304
aF-2.1454163107439355
aF-0.23860492901853453
aa(lp531
S'2HB'
p532
aF2.3492293214938087
aF-1.074019103026356
aF0.7962338609781562
aa(lp533
S'HG'
p534
aF-0.02895169179053858
aF-2.77898432909199
aF1.4944814144724607
aa(lp535
S'1HD1'
p536
aF1.4377701531647011
aF-3.3854469021108438
aF3.3671287857248364
aa(lp537
S'2HD1'
p538
aF2.2303624166059577
aF-3.6531026291474555
aF1.7971858199717625
aa(lp539
S'3HD1'
p540
aF2.661275584033937
aF-2.234120906564243
aF2.782039978267273
aa(lp541
S'1HD2'
p542
aF-0.2311603250148273
aF-1.5268485060734847
aF3.616289499423434
aa(lp543
S'2HD2'
p544
aF0.9696446353844979
aF-0.3478412392683527
aF3.0352548086337476
aa(lp545
S'3HD2'
p546
aF-0.6066467226286947
aF-0.48734386834694926
aF2.2212808710085494
aaa(lp547
(lp548
S'N'
p549
aF0.2538428481282035
aF0.7180401878673347
aF1.1326060996929042
aa(lp550
S'H'
p551
aF0.562012984049052
aF1.671440957690415
aF1.0065777718165814
aa(lp552
S'CA'
p553
aF0.5540778123917343
aF-0.2683216623729886
aF0.10253849675407416
aa(lp554
S'C'
p555
aF-0.7142963814826778
aF-0.7398691193314861
aF-0.5968261435798605
aa(lp556
S'O'
p557
aF-0.6556372630863185
aF-1.3812903638532705
aF-1.6448962246837444
aa(lp558
S'CB'
p559
aF1.284625890518191
aF-1.47025645046244
aF0.7158494054505473
aa(lp560
S'CG'
p561
aF1.7824885927395684
aF-2.5244713770091964
aF-0.2799656468472376
aa(lp562
S'CD1'
p563
aF0.6941027361571368
aF-3.564879169885238
aF-0.5063322780324476
aa(lp564
S'CD2'
p565
aF2.171030287379141
aF-1.8474733651110395
aF-1.5856850054433118
aa(lp566
S'HA'
p567
aF1.2036797242375517
aF0.19440393271296988
aF-0.6407638507321995
aa(lp568
S'1HB'
p569
aF2.146509041038588
aF-1.106108748094401
aF1.2715605585769842
aa(lp570
S'2HB'
p571
aF0.6113288988432559
aF-1.9654774422466816
aF1.414334430556823
aa(lp572
S'HG'
p573
aF2.6512771206713746
aF-3.035998254586731
aF0.13543746730798714
aa(lp574
S'1HD1'
p575
aF1.0483372766826096
aF-4.315062279510114
aF-1.214186212352422
aa(lp576
S'2HD1'
p577
aF0.4497140627622396
aF-4.0470783597479905
aF0.43999964978779715
aa(lp578
S'3HD1'
p579
aF-0.19467118390443594
aF-3.0795290035973553
aF-0.9070942212140802
aa(lp580
S'1HD2'
p581
aF2.5259660386102087
aF-2.596436324936098
aF-2.2936787182036213
aa(lp582
S'2HD2'
p583
aF1.3026926644752668
aF-1.3363903280914804
aF-2.0027004750850517
aa(lp584
S'3HD2'
p585
aF2.962701813345622
aF-1.1220391471408602
aF-1.3977664316623188
aaa(lp586
(lp587
S'N'
p588
aF0.26631273098678937
aF0.7092536223336315
aF1.1403582895392925
aa(lp589
S'H'
p590
aF0.5476723843124488
aF1.6702045928413858
aF1.0053361515001118
aa(lp591
S'CA'
p592
aF0.5577703866801802
aF-0.26962655542556924
aF0.10001458069695532
aa(lp593
S'C'
p594
aF-0.7134309287526472
aF-0.7117882222771637
aF-0.6127162773475607
aa(lp595
S'O'
p596
aF-0.65832457322677
aF-1.3980434374722972
aF-1.6329927443887924
aa(lp597
S'CB'
p598
aF1.2656129944771237
aF-1.4896526972288715
aF0.7026198046236675
aa(lp599
S'CG'
p600
aF0.7919970736935713
aF-2.854171908461744
aF0.18743412765199252
aa(lp601
S'CD1'
p602
aF1.8875680364394216
aF-3.8886518810115884
aF0.4086047676144542
aa(lp603
S'CD2'
p604
aF-0.4891874903246314
aF-3.252563451905878
aF0.9047062454940938
aa(lp605
S'HA'
p606
aF1.2192652775557786
aF0.1926905005297881
aF-0.6336355055964025
aa(lp607
S'1HB'
p608
aF2.3317107990403154
aF-1.4096516104804948
aF0.4974240511963023
aa(lp609
S'2HB'
p610
aF1.122464534448088
aF-1.4751578132199628
aF1.7832920105810923
aa(lp611
S'HG'
p612
aF0.6036054465158831
aF-2.793383674513784
aF-0.8845996336740356
aa(lp613
S'1HD1'
p614
aF1.5505573919813127
aF-4.859277456033199
aF0.04270338932257256
aa(lp615
S'2HD1'
p616
aF2.7854436987406914
aF-3.5895623869412696
aF-0.13137835210672177
aa(lp617
S'3HD1'
p618
aF2.10958053816993
aF-3.9613148939066476
aF1.472724843373
aa(lp619
S'1HD2'
p620
aF-0.8264269220376307
aF-4.222303759323939
aF0.5383999503439557
aa(lp621
S'2HD2'
p622
aF-0.30125319869247513
aF-3.315459857203502
aF1.9773286134453494
aa(lp623
S'3HD2'
p624
aF-1.2592404318462542
aF-2.504745367912165
aF0.7150313117103521
aaa(lp625
(lp626
S'N'
p627
aF0.24551663635630316
aF0.7228300688115561
aF1.1283152364894165
aa(lp628
S'H'
p629
aF0.5715801089257191
aF1.6715556109745242
aF1.0114415546634632
aa(lp630
S'CA'
p631
aF0.5521196367289465
aF-0.2649272146523537
aF0.10013230085663649
aa(lp632
S'C'
p633
aF-0.714563634118937
aF-0.7517404689968596
aF-0.590667486888461
aa(lp634
S'O'
p635
aF-0.6546527478920208
aF-1.3777179961368562
aF-1.6492216051210602
aa(lp636
S'CB'
p637
aF1.2956029144197259
aF-1.456740988178076
aF0.7165206078746773
aa(lp638
S'CG'
p639
aF2.5553707844966635
aF-1.1108842681402158
aF1.5215982704181217
aa(lp640
S'CD1'
p641
aF2.4440244529139012
aF-1.7031089455673376
aF2.9193496524204523
aa(lp642
S'CD2'
p643
aF3.7827576903739017
aF-1.6443108463823135
aF0.7972403002776016
aa(lp644
S'HA'
p645
aF1.1930363683515677
aF0.20062041915807735
aF-0.6463448547078944
aa(lp646
S'1HB'
p647
aF0.614676140559717
aF-1.9866887701711526
aF1.3803369055061907
aa(lp648
S'2HB'
p649
aF1.5904400473040172
aF-2.134221043850394
aF-0.08465218200201408
aa(lp650
S'HG'
p651
aF2.636104897049453
aF-0.02820264757791857
aF1.6239921743719803
aa(lp652
S'1HD1'
p653
aF3.339903923427667
aF-1.4573740737967185
aF3.4911252614734045
aa(lp654
S'2HD1'
p655
aF1.5692107728432125
aF-1.2901705255319138
aF3.421220040488715
aa(lp656
S'3HD1'
p657
aF2.345387050261284
aF-2.786462825126921
aF2.8486104522472706
aa(lp658
S'1HD2'
p659
aF4.678279086874046
aF-1.3969617261521112
aF1.3685001720800867
aa(lp660
S'2HD2'
p661
aF3.703920269521773
aF-2.7268170271980967
aF0.6960176270814953
aa(lp662
S'3HD2'
p663
aF3.84773189253952
aF-1.1905852372507204
aF-0.19132453051049292
aaa(lp664
(lp665
S'N'
p666
aF0.3123716347538013
aF0.6908135523341912
aF1.1603536175290063
aa(lp667
S'H'
p668
aF0.4851624278304427
aF1.6646624575367501
aF0.9565899022514204
aa(lp669
S'CA'
p670
aF0.5713627877372202
aF-0.3075472833256122
aF0.1297318515561694
aa(lp671
S'C'
p672
aF-0.7036352458226378
aF-0.6632691226905771
aF-0.6248296021487673
aa(lp673
S'O'
p674
aF-0.6652616044988092
aF-1.384659603854754
aF-1.6218457691878303
aa(lp675
S'CB'
p676
aF1.1715865245701123
aF-1.5720900500482533
aF0.756077648118897
aa(lp677
S'CG'
p678
aF2.4238990755048855
aF-2.1265900447210586
aF0.06411375406148137
aa(lp679
S'CD1'
p680
aF3.179382059941152
aF-0.9883305569043328
aF-0.6079575208956192
aa(lp681
S'CD2'
p682
aF3.298301418861775
aF-2.83476023160891
aF1.088098386922351
aa(lp683
S'HA'
p684
aF1.2865146149884488
aF0.10625193397091898
aF-0.5804801391508415
aa(lp685
S'1HB'
p686
aF1.4336399207737611
aF-1.3569901557729858
aF1.7905562863811406
aa(lp687
S'2HB'
p688
aF0.414439870090748
aF-2.356462928548915
aF0.749984120134446
aa(lp689
S'HG'
p690
aF2.127807659825579
aF-2.8345592751996267
aF-0.7105625927160653
aa(lp691
S'1HD1'
p692
aF4.068370126688615
aF-1.383052214262662
aF-1.1001810782279555
aa(lp693
S'2HD1'
p694
aF2.5364480917733143
aF-0.5132129433375145
aF-1.3494109353826862
aa(lp695
S'3HD1'
p696
aF3.474587156025731
aF-0.2551257324362085
aF0.14127517768497977
aa(lp697
S'1HD2'
p698
aF4.187839979420418
aF-3.229007613292208
aF0.5965618660868051
aa(lp699
S'2HD2'
p700
aF3.5963920278419788
aF-2.12767772321867
aF1.86324051270728
aa(lp701
S'3HD2'
p702
aF2.739548959668979
aF-3.6542969495474686
aF1.5397135519650038
aaa(lp703
(lp704
S'N'
p705
aF0.31375784192615647
aF0.6931096636599887
aF1.1594838380809513
aa(lp706
S'H'
p707
aF0.48272206121483086
aF1.6657083727485975
aF0.944219248147178
aa(lp708
S'CA'
p709
aF0.5702072600182339
aF-0.31646758665569946
aF0.139089565456276
aa(lp710
S'C'
p711
aF-0.7046686115989008
aF-0.6767857699342127
aF-0.6114537835698297
aa(lp712
S'O'
p713
aF-0.6620185515603247
aF-1.36556467981872
aF-1.6313388681146863
aa(lp714
S'CB'
p715
aF1.1676204716925467
aF-1.575635659173846
aF0.7785176064959946
aa(lp716
S'CG'
p717
aF2.171681283045628
aF-2.3487808615004413
aF-0.08706681066061894
aa(lp718
S'CD1'
p719
aF3.5410628870266856
aF-1.691259165356669
aF0.013169119915632743
aa(lp720
S'CD2'
p721
aF2.225582530794815
aF-3.7981803278974278
aF0.37051579641618637
aa(lp722
S'HA'
p723
aF1.2868770031638956
aF0.08879243261837444
aF-0.574223686935357
aa(lp724
S'1HB'
p725
aF1.6756154198092013
aF-1.2908755163772327
aF1.6984381431525382
aa(lp726
S'2HB'
p727
aF0.3556035730056776
aF-2.2566485049589513
aF1.032056676705355
aa(lp728
S'HG'
p729
aF1.8579292373916005
aF-2.3095527101806463
aF-1.130515806056143
aa(lp730
S'1HD1'
p731
aF4.253890851454788
aF-2.241278942668557
aF-0.6023343631736533
aa(lp732
S'2HD1'
p733
aF3.4772010494931056
aF-0.6623516885720897
aF-0.3392171311266349
aa(lp734
S'3HD1'
p735
aF3.8747089708050417
aF-1.7017036949888147
aF1.049930038633236
aa(lp736
S'1HD2'
p737
aF2.9376166855826455
aF-4.348807016412532
aF-0.24502673851580992
aa(lp738
S'2HD2'
p739
aF2.5397265322845497
aF-3.8395885279239534
aF1.4142709915163412
aa(lp740
S'3HD2'
p741
aF1.2374185704413156
aF-4.249245279019909
aF0.2724525651449614
aaa(lp742
(lp743
S'N'
p744
aF0.22703378320183354
aF0.732317393442004
aF1.1177286864652765
aa(lp745
S'H'
p746
aF0.5975957294592118
aF1.668749343149957
aF1.0416691863872778
aa(lp747
S'CA'
p748
aF0.5460738451989054
aF-0.242832865333964
aF0.0812802257832872
aa(lp749
S'C'
p750
aF-0.7168511905214483
aF-0.7615295532018478
aF-0.5935613112797665
aa(lp751
S'O'
p752
aF-0.6538521673384886
aF-1.396704318056146
aF-1.6471167873560357
aa(lp753
S'CB'
p754
aF1.3303140618587663
aF-1.416152279297155
aF0.682464752688592
aa(lp755
S'CG'
p756
aF2.1649345868628256
aF-2.2360843326847233
aF-0.31109903845397446
aa(lp757
S'CD1'
p758
aF3.214598446861559
aF-3.03755369983492
aF0.44771426831682004
aa(lp759
S'CD2'
p760
aF1.2500074907667726
aF-3.1508724450759376
aF-1.1098155828281098
aa(lp761
S'HA'
p762
aF1.1633851118470049
aF0.24300587890721242
aF-0.6723141708675058
aa(lp763
S'1HB'
p764
aF2.0063616992424045
aF-1.02883078818327
aF1.4423796522065069
aa(lp765
S'2HB'
p766
aF0.6267251034676151
aF-2.094827053144326
aF1.162785613128329
aa(lp767
S'HG'
p768
aF2.687562177119789
aF-1.5614352754111354
aF-0.9896490008163898
aa(lp769
S'1HD1'
p770
aF3.8074327887097157
aF-3.6189483908359454
aF-0.25742731775032457
aa(lp771
S'2HD1'
p772
aF3.8672908627741096
aF-2.356304827973482
aF0.9951433365966889
aa(lp773
S'3HD1'
p774
aF2.7211960330365645
aF-3.7100910883935705
aF1.1486568615599222
aa(lp775
S'1HD2'
p776
aF1.8434181497362472
aF-3.732663245400384
aF-1.8156719807443336
aa(lp777
S'2HD2'
p778
aF0.7277434620112265
aF-3.826571419019235
aF-0.43039069302791
aa(lp779
S'3HD2'
p780
aF0.5219979311254441
aF-2.551046084806183
aF-1.655639197740806
aaa(lp781
(lp782
S'N'
p783
aF0.2057291642010171
aF0.7362661697056875
aF1.103569263047868
aa(lp784
S'H'
p785
aF0.6392093451149199
aF1.6480531854380707
aF1.134054844831178
aa(lp786
S'CA'
p787
aF0.5337248601015211
aF-0.17004296403125257
aF0.010471107539501173
aa(lp788
S'C'
p789
aF-0.7263832469389087
aF-0.7120347899547964
aF-0.6537445345550051
aa(lp790
S'O'
p791
aF-0.6522801224784721
aF-1.5022416011578168
aF-1.594350680863645
aa(lp792
S'CB'
p793
aF1.3880665245936918
aF-1.3353976262595824
aF0.5257989949426567
aa(lp794
S'CG'
p795
aF1.1033387497180798
aF-1.7834066604111187
aF1.9654850716736063
aa(lp796
S'CD1'
p797
aF1.6905253384025665
aF-3.16950870732713
aF2.1913656277300038
aa(lp798
S'CD2'
p799
aF1.6949327491861088
aF-0.7737509127126954
aF2.937706142692413
aa(lp800
S'HA'
p801
aF1.1055135107793639
aF0.37964058346184043
aF-0.7352377743785286
aa(lp802
S'1HB'
p803
aF1.2332281166235535
aF-2.194057333644007
aF-0.1247658168415118
aa(lp804
S'2HB'
p805
aF2.43821768316802
aF-1.047844992423826
aF0.4697898267726892
aa(lp806
S'HG'
p807
aF0.026226666307468616
aF-1.848328668447334
aF2.120174090816619
aa(lp808
S'1HD1'
p809
aF1.487686469086198
aF-3.48784996436089
aF3.214834844250281
aa(lp810
S'2HD1'
p811
aF1.2355255779440248
aF-3.8757427204097925
aF1.4962298591582557
aa(lp812
S'3HD1'
p813
aF2.7669676623665094
aF-3.139707281105906
aF2.0280108048007492
aa(lp814
S'1HD2'
p815
aF1.4915194073063467
aF-1.0912794061152935
aF3.9612722950356756
aa(lp816
S'2HD2'
p817
aF2.7726536147664147
aF-0.7086245123065356
aF2.7849112217593395
aa(lp818
S'3HD2'
p819
aF1.2449976866734185
aF0.20465409043079758
aF2.7655576912166664
aaa(lp820
(lp821
S'N'
p822
aF0.288844245939915
aF0.709831678659125
aF1.14604720215154
aa(lp823
S'H'
p824
aF0.5071307052233007
aF1.6702581222752708
aF0.9264997856412059
aa(lp825
S'CA'
p826
aF0.5646047517463617
aF-0.3256813810355005
aF0.15689713940107683
aa(lp827
S'C'
p828
aF-0.7069333711337471
aF-0.749296487643452
aF-0.5664167921086525
aa(lp829
S'O'
p830
aF-0.653646331775825
aF-1.3051119322554454
aF-1.6630273350851645
aa(lp831
S'CB'
p832
aF1.20721115779778
aF-1.545152032823022
aF0.8305211712842865
aa(lp833
S'CG'
p834
aF0.6479596155171938
aF-2.9097312615768356
aF0.4084983746127927
aa(lp835
S'CD1'
p836
aF-0.7792557883942488
aF-3.053995472493055
aF0.9180285781205109
aa(lp837
S'CD2'
p838
aF0.7022344576200352
aF-3.0334136924161994
aF-1.107490377923444
aa(lp839
S'HA'
p840
aF1.2603820214515178
aF0.07617655657455524
aF-0.5792775606134171
aa(lp841
S'1HB'
p842
aF2.2740994152698057
aF-1.5412297031338085
aF0.6100420081007509
aa(lp843
S'2HB'
p844
aF1.0795706860662453
aF-1.4533050207832363
aF1.9091633901666714
aa(lp845
S'HG'
p846
aF1.245340599932694
aF-3.703041929662258
aF0.8587229223227404
aa(lp847
S'1HD1'
p848
aF-1.1762383271713062
aF-4.0236284870970564
aF0.6184527431536673
aa(lp849
S'2HD1'
p850
aF-0.786255133338164
aF-2.9808431770085417
aF2.0061695390422574
aa(lp851
S'3HD1'
p852
aF-1.3977916404727628
aF-2.262921347868093
aF0.4970011098451531
aa(lp853
S'1HD2'
p854
aF0.3055415022022956
aF-4.0044240018270285
aF-1.4069276470464187
aa(lp855
S'2HD2'
p856
aF0.10424007981362315
aF-2.2425703874594163
aF-1.5593073664452979
aa(lp857
S'3HD2'
p858
aF1.735857086808458
aF-2.9449027078704675
aF-1.4424516682904958
aaa(lp859
(lp860
S'N'
p861
aF0.2652743858193501
aF0.6968504628360334
aF1.1423468705578685
aa(lp862
S'H'
p863
aF0.5518530000775771
aF1.6613763722039196
aF1.0533386237046074
aa(lp864
S'CA'
p865
aF0.5609320792493201
aF-0.23397613374839668
aF0.06079318469354021
aa(lp866
S'C'
p867
aF-0.7092229261436193
aF-0.6500056632326509
aF-0.6717740087244861
aa(lp868
S'O'
p869
aF-0.6688365390026341
aF-1.4742450380588883
aF-1.5847046702315692
aa(lp870
S'CB'
p871
aF1.271685145307205
aF-1.4772597419690034
aF0.6100835893241572
aa(lp872
S'CG'
p873
aF0.7278928786577725
aF-2.0225954753371456
aF1.9371103067055766
aa(lp874
S'CD1'
p875
aF-0.4593822698968359
aF-2.93566205578234
aF1.6638318016987776
aa(lp876
S'CD2'
p877
aF1.8336167814234214
aF-2.768005583327229
aF2.6702947458195747
aa(lp878
S'HA'
p879
aF1.2212480877084244
aF0.26065149955059325
aF-0.6510328287041691
aa(lp880
S'1HB'
p881
aF1.2002510678641118
aF-2.27361511850013
aF-0.1297902423862377
aa(lp882
S'2HB'
p883
aF2.325721961284585
aF-1.2397927055248537
aF0.7559972527237935
aa(lp884
S'HG'
p885
aF0.37702818248424486
aF-1.1948247883271992
aF2.553749305396175
aa(lp886
S'1HD1'
p887
aF-0.845826045516908
aF-3.3225996410246355
aF2.6066899635722183
aa(lp888
S'2HD1'
p889
aF-1.2421851571169378
aF-2.372111901924774
aF1.1556784155573636
aa(lp890
S'3HD1'
p891
aF-0.14224968519220743
aF-3.7663340271560273
aF1.0337865654714804
aa(lp892
S'1HD2'
p893
aF1.4477418915345983
aF-3.154275770721548
aF3.6142623891652845
aa(lp894
S'2HD2'
p895
aF2.184761392782034
aF-3.596224710494977
aF2.055584619575262
aa(lp896
S'3HD2'
p897
aF2.661445895403724
aF-2.08713687866195
aF2.8691710014510896
aaa.