(lp0
(lp1
(lp2
S'N'
p3
aF-0.9508000000000025
aF0.3116000000000099
aF-0.493000000000012
aa(lp4
S'H'
p5
aF-1.6618000000000008
aF-0.37339999999999235
aF-0.7039999999999964
aa(lp6
S'CA'
p7
aF-0.30480000000000174
aF0.28660000000000424
aF0.8140000000000043
aa(lp8
S'C'
p9
aF1.1352000000000033
aF-0.19740000000000463
aF0.7080000000000097
aa(lp10
S'O'
p11
aF1.7822000000000018
aF-0.02740000000001718
aF-0.3250000000000056
aa(lp12
S'CB'
p13
aF-1.086799999999998
aF-0.6204000000000065
aF1.7739999999999838
aa(lp14
S'CG'
p15
aF-2.6087999999999965
aF-0.4314000000000135
aF1.7769999999999981
aa(lp16
S'CD1'
p17
aF-3.2708000000000026
aF-1.6444000000000074
aF2.4169999999999847
aa(lp18
S'CD2'
p19
aF-2.9608000000000003
aF0.8435999999999921
aF2.528000000000003
aa(lp20
S'HA'
p21
aF-0.2988000000000015
aF1.2985999999999904
aF1.2169999999999959
aa(lp22
S'1HB'
p23
aF-0.8817999999999999
aF-1.6584000000000174
aF1.513999999999993
aa(lp24
S'2HB'
p25
aF-0.7288000000000012
aF-0.4443999999999903
aF2.787999999999994
aa(lp26
S'HG'
p27
aF-2.968800000000003
aF-0.358400000000006
aF0.7499999999999829
aa(lp28
S'1HD1'
p29
aF-4.351799999999999
aF-1.5094000000000165
aF2.4189999999999943
aa(lp30
S'2HD1'
p31
aF-3.0178000000000025
aF-2.5394000000000174
aF1.847999999999996
aa(lp32
S'3HD1'
p33
aF-2.9167999999999963
aF-1.7534000000000163
aF3.4409999999999856
aa(lp34
S'1HD2'
p35
aF-4.0428000000000015
aF0.9785999999999972
aF2.5299999999999843
aa(lp36
S'2HD2'
p37
aF-2.6028000000000033
aF0.7715999999999894
aF3.55499999999999
aa(lp38
S'3HD2'
p39
aF-2.488799999999999
aF1.6966000000000008
aF2.038999999999999
aaa(lp40
(lp41
S'N'
p42
aF-0.9486213109478441
aF0.332075311117968
aF-0.4705202186532391
aa(lp43
S'H'
p44
aF-1.6182704435941018
aF-0.37608994399038964
aF-0.7365597093373013
aa(lp45
S'CA'
p46
aF-0.3172575269555965
aF0.25530870663659555
aF0.8410866815647301
aa(lp47
S'C'
p48
aF1.149676200489119
aF-0.1366498616043857
aF0.7238692764252463
aa(lp49
S'O'
p50
aF1.7344730810084386
aF-0.07464421215977934
aF-0.3578760299994359
aa(lp51
S'CB'
p52
aF-1.0545343356223942
aF-0.7566216232010231
aF1.7264803312803991
aa(lp53
S'CG'
p54
aF-0.8507557342293645
aF-2.2322986263403055
aF1.3601776367500793
aa(lp55
S'CD1'
p56
aF-0.18243356538694733
aF-2.9562763642989855
aF2.5208381011297343
aa(lp57
S'CD2'
p58
aF-2.1942700148962153
aF-2.861999743690299
aF1.0246245404264025
aa(lp59
S'HA'
p60
aF-0.37447604170281934
aF1.2377406264958115
aF1.3094012813925084
aa(lp61
S'1HB'
p62
aF-0.7256305131464196
aF-0.6227336899196223
aF2.754805327029474
aa(lp63
S'2HB'
p64
aF-2.1232623313133385
aF-0.5480560762477041
aF1.677288016326899
aa(lp65
S'HG'
p66
aF-0.19025878113850725
aF-2.305287670812977
aF0.4959453911443808
aa(lp67
S'1HD1'
p68
aF-0.036801478657238595
aF-4.005231236219898
aF2.260087315918798
aa(lp69
S'2HD1'
p70
aF0.7854631902095897
aF-2.49720424946365
aF2.726363437490763
aa(lp71
S'3HD1'
p72
aF-0.8127928916456617
aF-2.885852056692213
aF3.4059304899213076
aa(lp73
S'1HD2'
p74
aF-2.049879358772805
aF-3.911600735305323
aF0.7636703359670567
aa(lp75
S'2HD2'
p76
aF-2.855654909952507
aF-2.7918638710247476
aF1.888590384633692
aa(lp77
S'3HD2'
p78
aF-2.642346638384951
aF-2.337424022065016
aF0.18064014971514397
aaa(lp79
(lp80
S'N'
p81
aF-0.9440912765711381
aF0.2878006733090544
aF-0.5098847653589286
aa(lp82
S'H'
p83
aF-1.7011399367001112
aF-0.3567490163159973
aF-0.6866898099735581
aa(lp84
S'CA'
p85
aF-0.29998996381300114
aF0.2859329954277811
aF0.7986682563725451
aa(lp86
S'C'
p87
aF1.136828447819571
aF-0.2098107882428166
aF0.7042651158229245
aa(lp88
S'O'
p89
aF1.8083927292646982
aF-0.007173864178026679
aF-0.30635879686300826
aa(lp90
S'CB'
p91
aF-1.0892571687344563
aF-0.5943847283001408
aF1.7759491701972074
aa(lp92
S'CG'
p93
aF-1.3979625229927013
aF0.03663189814448886
aF3.139673857002687
aa(lp94
S'CD1'
p95
aF-0.28021397245263624
aF-0.2952840312523358
aF4.118793356133513
aa(lp96
S'CD2'
p97
aF-1.5545742571083703
aF1.5417344714118861
aF2.978186988554652
aa(lp98
S'HA'
p99
aF-0.28759776527292535
aF1.3068384498912364
aF1.178579412384204
aa(lp100
S'1HB'
p101
aF-2.0372035001913575
aF-0.8645998143069005
aF1.313652122865317
aa(lp102
S'2HB'
p103
aF-0.5229687049440734
aF-1.508129444928075
aF1.9550105245215483
aa(lp104
S'HG'
p105
aF-2.3235776341934913
aF-0.38354086555327627
aF3.533508231535104
aa(lp106
S'1HD1'
p107
aF-0.5003261088310749
aF0.15312075557097587
aF5.087648244428387
aa(lp108
S'2HD1'
p109
aF-0.20370614895541755
aF-1.3769044860292423
aF4.230277636424147
aa(lp110
S'3HD1'
p111
aF0.6627426314033633
aF0.09953753849792096
aF3.7424401027872496
aa(lp112
S'1HD2'
p113
aF-1.775558477182721
aF1.9903275269032386
aF3.9474935680448873
aa(lp114
S'2HD2'
p115
aF-0.6294771116433131
aF1.9640592817253544
aF2.5846694844381277
aa(lp116
S'3HD2'
p117
aF-2.371898026086015
aF1.7506537782454141
aF2.2872111713972196
aaa(lp118
(lp119
S'N'
p120
aF-0.9651443518290344
aF0.35665599164268913
aF-0.4487056092338089
aa(lp121
S'H'
p122
aF-1.566368361753765
aF-0.3952670958685749
aF-0.7546441003681473
aa(lp123
S'CA'
p124
aF-0.32052671950667344
aF0.2644199560635049
aF0.8562390722909481
aa(lp125
S'C'
p126
aF1.144088444608974
aF-0.13125886813091725
aF0.7198987293010095
aa(lp127
S'O'
p128
aF1.7079509884804995
aF-0.09454998370670023
aF-0.3727880919900046
aa(lp129
S'CB'
p130
aF-1.0526821793383896
aF-0.7559361702737935
aF1.7376900114160654
aa(lp131
S'CG'
p132
aF-2.095856856806586
aF-0.17548320851132881
aF2.7003955486756714
aa(lp133
S'CD1'
p134
aF-2.5656254608017104
aF-1.2632735100446688
aF3.6568649515268428
aa(lp135
S'CD2'
p136
aF-1.4908008926693184
aF0.9955578431733907
aF3.460067935649864
aa(lp137
S'HA'
p138
aF-0.3696091735670564
aF1.2407183727527724
aF1.3359538982797234
aa(lp139
S'1HB'
p140
aF-1.55895788480238
aF-1.4720055280499773
aF1.0924694406722752
aa(lp141
S'2HB'
p142
aF-0.3140415707748867
aF-1.2934415610039773
aF2.3332124764137596
aa(lp143
S'HG'
p144
aF-2.9625810563280566
aF0.16825267327528132
aF2.1348225599852215
aa(lp145
S'1HD1'
p146
aF-3.307723561082528
aF-0.8509737825219474
aF4.341134886745608
aa(lp147
S'2HD1'
p148
aF-3.0119718312657975
aF-2.0797452117039397
aF3.0886758298753016
aa(lp149
S'3HD1'
p150
aF-1.7164638517834936
aF-1.6386809145233399
aF4.22649627302539
aa(lp151
S'1HD2'
p152
aF-2.2318418999847185
aF1.4087489238686366
aF4.144041148802888
aa(lp153
S'2HD2'
p154
aF-0.6250326803574333
aF0.6524710831416239
aF4.027555272637384
aa(lp155
S'3HD2'
p156
aF-1.1794547465094636
aF1.7655070006041924
aF2.753745153741334
aaa(lp157
(lp158
S'N'
p159
aF-0.9192166469870474
aF0.28581785124016196
aF-0.4936850330062174
aa(lp160
S'H'
p161
aF-1.6908226240973014
aF-0.32098345320694965
aF-0.7303670834642373
aa(lp162
S'CA'
p163
aF-0.3197903162743318
aF0.18918640820266927
aF0.831650561575314
aa(lp164
S'C'
p165
aF1.1792023078345832
aF-0.06651752933624444
aF0.7416471772268797
aa(lp166
S'O'
p167
aF1.7506272795240965
aF-0.08750327689963411
aF-0.34924562233174156
aa(lp168
S'CB'
p169
aF-0.9883254393026618
aF-0.9341545379059168
aF1.63523684074723
aa(lp170
S'CG'
p171
aF-2.350490909210233
aF-0.5907494280365955
aF2.2500800427972525
aa(lp172
S'CD1'
p173
aF-3.3546222927627127
aF-1.6818879063718175
aF1.9027027469627678
aa(lp174
S'CD2'
p175
aF-2.2041614632322304
aF-0.4434465143274775
aF3.7578991781223667
aa(lp176
S'HA'
p177
aF-0.47654365458308046
aF1.1338091592878008
aF1.351810391878866
aa(lp178
S'1HB'
p179
aF-1.1270643317640139
aF-1.7936294249181177
aF0.9808451856094509
aa(lp180
S'2HB'
p181
aF-0.321134059285882
aF-1.225223217067482
aF2.4464770557528994
aa(lp182
S'HG'
p183
aF-2.7160140228142176
aF0.3456043277020793
aF1.8278982128527086
aa(lp184
S'1HD1'
p185
aF-4.322971428285108
aF-1.4382418525490488
aF2.340092221218408
aa(lp186
S'2HD1'
p187
aF-3.4540796928865887
aF-1.7526619359793596
aF0.8193578054535031
aa(lp188
S'3HD1'
p189
aF-3.006999197265454
aF-2.635397979070576
aF2.2989182498635397
aa(lp190
S'1HD2'
p191
aF-3.17266684735083
aF-0.1980754893635619
aF4.19529645868255
aa(lp192
S'2HD2'
p193
aF-1.8404829374389193
aF-1.3788136812372662
aF4.181355424910581
aa(lp194
S'3HD2'
p195
aF-1.4944676096908807
aF0.3549303745588661
aF3.9771546855510063
aaa(lp196
(lp197
S'N'
p198
aF-0.9577414751987781
aF0.31754685300822616
aF-0.4909986383164706
aa(lp199
S'H'
p200
aF-1.6566441412751716
aF-0.38173312433551637
aF-0.7006258708923483
aa(lp201
S'CA'
p202
aF-0.3022002459081421
aF0.29828659784449274
aF0.810672879106872
aa(lp203
S'C'
p204
aF1.1278395196983242
aF-0.2126610757130416
aF0.7007104142820001
aa(lp205
S'O'
p206
aF1.788746342683801
aF-0.021439250804174748
aF-0.3197587841800503
aa(lp207
S'CB'
p208
aF-1.0921214013651943
aF-0.5803853418999283
aF1.7893133598081223
aa(lp209
S'CG'
p210
aF-0.6953836073216764
aF-0.4549224351381711
aF3.2655156433060055
aa(lp211
S'CD1'
p212
aF-0.2410168972702541
aF0.9690219119500731
aF3.5503074781475976
aa(lp213
S'CD2'
p214
aF-1.8787195130203898
aF-0.8371988705050617
aF4.143268376851961
aa(lp215
S'HA'
p216
aF-0.27479732244889865
aF1.316059610569361
aF1.198264383599415
aa(lp217
S'1HB'
p218
aF-2.1486883652650297
aF-0.3284133096578954
aF1.706764309157593
aa(lp219
S'2HB'
p220
aF-0.9652615316602748
aF-1.6237542337532678
aF1.499137673419348
aa(lp221
S'HG'
p222
aF0.14217930827727604
aF-1.1204612214211034
aF3.4754215421426577
aa(lp223
S'1HD1'
p224
aF0.04126356577259327
aF1.0584216434053844
aF4.599417304714898
aa(lp225
S'2HD1'
p226
aF0.6181282038215534
aF1.2102653337868217
aF2.9233016514677876
aa(lp227
S'3HD1'
p228
aF-1.0541714193328209
aF1.6616210852528153
aF3.333404024072834
aa(lp229
S'1HD2'
p230
aF-1.5961323805069414
aF-0.7489504016572146
aF5.193140140584953
aa(lp231
S'2HD2'
p232
aF-2.715643282955349
aF-0.171662074932855
aF3.935727110937603
aa(lp233
S'3HD2'
p234
aF-2.1706395222187633
aF-1.866036984338041
aF3.932043748188022
aaa(lp235
(lp236
S'N'
p237
aF-0.9337952596254763
aF0.2694037830281339
aF-0.5188622310316287
aa(lp238
S'H'
p239
aF-1.7235021187077422
aF-0.33920193830584533
aF-0.6826644064688605
aa(lp240
S'CA'
p241
aF-0.3011097983276718
aF0.2730617413881274
aF0.7950684088436363
aa(lp242
S'C'
p243
aF1.1449833765904596
aF-0.19865287037420082
aF0.710896831068756
aa(lp244
S'O'
p245
aF1.8134238000704328
aF-0.00461071573621652
aF-0.3044386024119051
aa(lp246
S'CB'
p247
aF-1.0826474869728688
aF-0.6247156571967041
aF1.7624068107575561
aa(lp248
S'CG'
p249
aF-1.01834527568514
aF-0.22310485196639496
aF3.241413229521778
aa(lp250
S'CD1'
p251
aF-0.5773128302915371
aF-1.4200016723011661
aF4.073733710816487
aa(lp252
S'CD2'
p253
aF-0.05659152811730034
aF0.9437873968924868
aF3.4098003091694755
aa(lp254
S'HA'
p255
aF-0.3075797472257416
aF1.2922635962208993
aF1.1790393958552765
aa(lp256
S'1HB'
p257
aF-2.129644476294613
aF-0.6263502205605551
aF1.465155010840692
aa(lp258
S'2HB'
p259
aF-0.7008553913994265
aF-1.6419540621637312
aF1.678294842419048
aa(lp260
S'HG'
p261
aF-2.0101209609919137
aF0.07197349981847934
aF3.5824568577311324
aa(lp262
S'1HD1'
p263
aF-0.5307850114417105
aF-1.1346775877656663
aF5.125324091552758
aa(lp264
S'2HD1'
p265
aF-1.2930951473108974
aF-2.232491373710895
aF3.9503231774511116
aa(lp266
S'3HD1'
p267
aF0.40801987505921433
aF-1.748779804872748
aF3.744386782321759
aa(lp268
S'1HD2'
p269
aF-0.011368158301683695
aF1.2293723278036155
aF4.460910719192611
aa(lp270
S'2HD2'
p271
aF0.9363414635836849
aF0.6490928063460635
aF3.0699868716858965
aa(lp272
S'3HD2'
p273
aF-0.4052194296767992
aF1.7908718918475781
aF2.817527192557808
aaa(lp274
(lp275
S'N'
p276
aF-0.9829113844481879
aF0.3401005900605174
aF-0.47857626243121765
aa(lp277
S'H'
p278
aF-1.6248334776950837
aF-0.40870226610599175
aF-0.6979556342928442
aa(lp279
S'CA'
p280
aF-0.2962742384750569
aF0.33135911003272417
aF0.8079671749609271
aa(lp281
S'C'
p282
aF1.1059867523762663
aF-0.24947192577129623
aF0.6793070747608623
aa(lp283
S'O'
p284
aF1.7980323482420664
aF-0.013285508215955644
aF-0.3107423529977353
aa(lp285
S'CB'
p286
aF-1.0995586449326469
aF-0.4771022754050322
aF1.8328775859716364
aa(lp287
S'CG'
p288
aF-1.2062697666523463
aF0.14089791208895763
aF3.2334008827285023
aa(lp289
S'CD1'
p290
aF-1.8649994931777232
aF-0.8527222071944355
aF4.179322764253111
aa(lp291
S'CD2'
p292
aF0.18158135899178895
aF0.527399855146107
aF3.7240438293417744
aa(lp293
S'HA'
p294
aF-0.21085305676751814
aF1.3586831070368874
aF1.1609680629131773
aa(lp295
S'1HB'
p296
aF-2.111823440530985
aF-0.6119933081913036
aF1.4536027609883428
aa(lp297
S'2HB'
p298
aF-0.6394580879598051
aF-1.4591772989736045
aF1.9385569385248602
aa(lp299
S'HG'
p300
aF-1.836330925467869
aF1.0298578720793674
aF3.191470873357058
aa(lp301
S'1HD1'
p302
aF-1.9403029156251699
aF-0.413484578331055
aF5.174705956776562
aa(lp303
S'2HD1'
p304
aF-2.8625880086926596
aF-1.096631151546605
aF3.81520385431061
aa(lp305
S'3HD1'
p306
aF-1.2641178884785926
aF-1.7602612869246876
aF4.22876076478472
aa(lp307
S'1HD2'
p308
aF0.1059185416481655
aF0.967440227255455
aF4.718951166225713
aa(lp309
S'2HD2'
p310
aF0.8121608162497097
aF-0.3607251937193643
aF3.766990839272737
aa(lp311
S'3HD2'
p312
aF0.6212354370019166
aF1.2514011162948804
aF3.0393355224372574
aaa(lp313
(lp314
S'N'
p315
aF-0.9668653634524835
aF0.36108281169591017
aF-0.44157859102731256
aa(lp316
S'H'
p317
aF-1.5538230767332672
aF-0.39473806256951544
aF-0.7632763511140763
aa(lp318
S'CA'
p319
aF-0.3237964643237996
aF0.2553761535831239
aF0.8627421108723607
aa(lp320
S'C'
p321
aF1.1476517581883154
aF-0.1134683262025877
aF0.7217354507546818
aa(lp322
S'O'
p323
aF1.6968331463212496
aF-0.10825257650693432
aF-0.37962261948564413
aa(lp324
S'CB'
p325
aF-1.0393039015812913
aF-0.7931142193905292
aF1.7232315326613705
aa(lp326
S'CG'
p327
aF-1.3753911923118998
aF-2.113695374218355
aF1.0201797945062314
aa(lp328
S'CD1'
p329
aF-2.5265382700880523
aF-1.8943456706861748
aF0.04818848133117326
aa(lp330
S'CD2'
p331
aF-0.14105183364114982
aF-2.6340008986843757
aF0.29876901773171105
aa(lp332
S'HA'
p333
aF-0.3889685510877633
aF1.2221010689073732
aF1.3601760634712485
aa(lp334
S'1HB'
p335
aF-0.4109923655604413
aF-1.024724704226164
aF2.5820430352725814
aa(lp336
S'2HB'
p337
aF-1.9733906466258835
aF-0.3641186756044329
aF2.0881723170958733
aa(lp338
S'HG'
p339
aF-1.6989803567765167
aF-2.8480457198545626
aF1.760211295528366
aa(lp340
S'1HD1'
p341
aF-2.765235112608182
aF-2.833496979084399
aF-0.4513359297888673
aa(lp342
S'2HD1'
p343
aF-3.401868671713392
aF-1.5417218720141594
aF0.5939165680195346
aa(lp344
S'3HD1'
p345
aF-2.2374883698042423
aF-1.1520830670279025
aF-0.6949147297750371
aa(lp346
S'1HD2'
p347
aF-0.3797486761612783
aF-3.5731522070825994
aF-0.20075539338833048
aa(lp348
S'2HD2'
p349
aF0.18272218007723312
aF-1.9014498822352746
aF-0.44211585614551735
aa(lp350
S'3HD2'
p351
aF0.6599325463862358
aF-2.7991784875005714
aF1.0197554164279778
aaa(lp352
(lp353
S'N'
p354
aF-0.9174091269174289
aF0.2829840274642652
aF-0.49336722028193347
aa(lp355
S'H'
p356
aF-1.6958568128584361
aF-0.3140912532402177
aF-0.7327462281851872
aa(lp357
S'CA'
p358
aF-0.3203587843670187
aF0.1750713016138113
aF0.8322944002155303
aa(lp359
S'C'
p360
aF1.1835118898016048
aF-0.04793502478349854
aF0.7425326390787258
aa(lp361
S'O'
p362
aF1.7501128343412657
aF-0.09602905105431803
aF-0.3487135908271737
aa(lp363
S'CB'
p364
aF-0.9686821090159455
aF-0.9757821278998305
aF1.6124836403956726
aa(lp365
S'CG'
p366
aF0.0030587069959127078
aF-1.9291634455383968
aF2.321322020898835
aa(lp367
S'CD1'
p368
aF-0.7701050892152383
aF-2.816370641945218
aF3.287818857351135
aa(lp369
S'CD2'
p370
aF0.7424807628696275
aF-2.762429421572538
aF1.285922660037853
aa(lp371
S'HA'
p372
aF-0.4988504567221333
aF1.1058263894853742
aF1.3688852026908078
aa(lp373
S'1HB'
p374
aF-1.6292503517102175
aF-0.5549292151094617
aF2.367370004386747
aa(lp375
S'2HB'
p376
aF-1.569029062127277
aF-1.5685015127790543
aF0.923170020424084
aa(lp377
S'HG'
p378
aF0.7211033354475196
aF-1.3498868063021625
aF2.902258753071079
aa(lp379
S'1HD1'
p380
aF-0.08039258928197102
aF-3.4927451662655007
aF3.7915322384383536
aa(lp381
S'2HD1'
p382
aF-1.273502657826014
aF-2.1943807567243194
aF4.029019552574548
aa(lp383
S'3HD1'
p384
aF-1.5094787865644268
aF-3.3962462718750785
aF2.73671016618247
aa(lp385
S'1HD2'
p386
aF1.4338277864995108
aF-3.4393709006465825
aF1.789553007442735
aa(lp387
S'2HD2'
p388
aF0.02449855303507409
aF-3.343487614929017
aF0.7063358052055457
aa(lp389
S'3HD2'
p390
aF1.3005356493646612
aF-2.105450678765057
aF0.6196474352560084
aaa.