(lp0
(lp1
(lp2
S'N'
p3
aF0.06017315793204758
aF1.1982265325267878
aF-0.17791606957583475
aa(lp4
S'H'
p5
aF0.6532988854362775
aF1.2143079768150735
aF0.638836805241386
aa(lp6
S'CA'
p7
aF0.09147558778542672
aF0.03501328472659296
aF-1.0560863822301458
aa(lp8
S'C'
p9
aF-0.20497170236752904
aF-1.2453390056555953
aF-0.2850545951590428
aa(lp10
S'O'
p11
aF-0.5999759287862121
aF-1.202208788412848
aF0.8802202417236433
aa(lp12
S'CB'
p13
aF1.4607439357687415
aF-0.07677857466376636
aF-1.7382101036950222
aa(lp14
S'CG'
p15
aF1.6947556494738876
aF0.8728728796773167
aF-2.919452514513669
aa(lp16
S'CD1'
p17
aF1.5090622680161274
aF2.312228865046435
aF-2.45911425250965
aa(lp18
S'CD2'
p19
aF3.093100760757615
aF0.65390088570303
aF-3.4786780643625925
aa(lp20
S'HA'
p21
aF-0.6723328198906328
aF0.1588610810033
aF-1.8216217763960734
aa(lp22
S'1HB'
p23
aF2.235172777296653
aF0.11906990011516527
aF-0.9978640060241353
aa(lp24
S'2HB'
p25
aF1.5857612866345847
aF-1.096164619411475
aF-2.1023004135854433
aa(lp26
S'HG'
p27
aF0.9580914744001232
aF0.6742137229525372
aF-3.6978896877089578
aa(lp28
S'1HD1'
p29
aF1.675596005689301
aF2.9877486825829296
aF-3.2985649600154945
aa(lp30
S'2HD1'
p31
aF0.49569658356382207
aF2.4463104251157297
aF-2.082287866989877
aa(lp32
S'3HD1'
p33
aF2.2241598580715625
aF2.536338207869435
aF-1.667366540699661
aa(lp34
S'1HD2'
p35
aF3.2593550559310187
aF1.3287647839815868
aF-4.318829972136812
aa(lp36
S'2HD2'
p37
aF3.8315992624379835
aF0.8530439478821212
aF-2.7014245640155083
aa(lp38
S'3HD2'
p39
aF3.1922357206132794
aF-0.37821178922790444
aF-3.816270549440859
aaa(lp40
(lp41
S'N'
p42
aF0.07478917628445027
aF1.2157806334846588
aF-0.18557044579979137
aa(lp43
S'H'
p44
aF0.6755791257680304
aF1.2021571229040602
aF0.6263303095631907
aa(lp45
S'CA'
p46
aF0.028467760287635875
aF0.04589589661381288
aF-1.054065137123057
aa(lp47
S'C'
p48
aF-0.1149408676962007
aF-1.236381280332354
aF-0.24399525933301774
aa(lp49
S'O'
p50
aF-0.6638951946438889
aF-1.2274523726701914
aF0.8573005326926251
aa(lp51
S'CB'
p52
aF1.2958068396155265
aF-0.024966145937747708
aF-1.9146087030938308
aa(lp53
S'CG'
p54
aF1.379823665031823
aF-1.2153399723801894
aF-2.8792186379212588
aa(lp55
S'CD1'
p56
aF0.6119268579191225
aF-0.8927147100815611
aF-4.15347663132482
aa(lp57
S'CD2'
p58
aF2.8392254793667804
aF-1.5209513224876618
aF-3.182785841356221
aa(lp59
S'HA'
p60
aF-0.8366119517154733
aF0.13614244325558467
aF-1.710319396309136
aa(lp61
S'1HB'
p62
aF1.3644885050884767
aF0.8863112721541397
aF-2.50734919952009
aa(lp63
S'2HB'
p64
aF2.1623827640803763
aF-0.07067299155533535
aF-1.255041381737167
aa(lp65
S'HG'
p66
aF0.9133622621683262
aF-2.0885288293546056
aF-2.4208825388691206
aa(lp67
S'1HD1'
p68
aF0.6704105134677468
aF-1.738043648330999
aF-4.838282916482685
aa(lp69
S'2HD1'
p70
aF-0.4328886648073686
aF-0.6969222232001391
aF-3.9096758406153134
aa(lp71
S'3HD1'
p72
aF1.044974998181798
aF-0.0117303867863221
aF-4.626365550969874
aa(lp73
S'1HD2'
p74
aF2.898114197487839
aF-2.368466734044639
aF-3.8673570546360665
aa(lp75
S'2HD2'
p76
aF3.3057021652138894
aF-0.6497438865191114
aF-3.642561988056121
aa(lp77
S'3HD2'
p78
aF3.359679765612231
aF-1.7663487592013343
aF-2.256990273218688
aaa(lp79
(lp80
S'N'
p81
aF0.042199796933767075
aF1.1884370550948349
aF-0.16420713509547613
aa(lp82
S'H'
p83
aF0.6664567599473982
aF1.253617269055765
aF0.6271573724716789
aa(lp84
S'CA'
p85
aF0.12676171102485886
aF0.02705190761308386
aF-1.0415980524715585
aa(lp86
S'C'
p87
aF-0.24837014500377974
aF-1.2509591767067285
aF-0.3020517327942811
aa(lp88
S'O'
p89
aF-0.5870481229022451
aF-1.2181470550569593
aF0.8806995478896361
aa(lp90
S'CB'
p91
aF1.5434989289694865
aF-0.10325068456904274
aF-1.614312544833271
aa(lp92
S'CG'
p93
aF2.675401289925604
aF0.40170794177048164
aF-0.7097574989973252
aa(lp94
S'CD1'
p95
aF2.586155321157754
aF1.9168191348237589
aF-0.5822105282635521
aa(lp96
S'CD2'
p97
aF2.57339290985621
aF-0.267926183227313
aF0.6528097210083728
aa(lp98
S'HA'
p99
aF-0.5725992007267968
aF0.16439608194399408
aF-1.8663282464691193
aa(lp100
S'1HB'
p101
aF1.7361422402579598
aF-1.1529612499220023
aF-1.8305006194400395
aa(lp102
S'2HB'
p103
aF1.5934788658244192
aF0.45351793495981685
aF-2.5497785838854137
aa(lp104
S'HG'
p105
aF3.6373887607184763
aF0.1610116896845868
aF-1.162405729159925
aa(lp106
S'1HD1'
p107
aF3.3902094751223313
aF2.27615463595276
aF0.05978317507058273
aa(lp108
S'2HD1'
p109
aF2.680715743671003
aF2.3707178965553446
aF-1.568591915249666
aa(lp110
S'3HD1'
p111
aF1.625634417861459
aF2.189122814250826
aF-0.14775074819024134
aa(lp112
S'1HD2'
p113
aF3.3780999718610376
aF0.09068626368291932
aF1.295029042798534
aa(lp114
S'2HD2'
p115
aF1.6121145302168265
aF-0.026541728895961514
aF1.1056114679628615
aa(lp116
S'3HD2'
p117
aF2.658253395308985
aF-1.3487879208457918
aF0.5334589683459637
aaa(lp118
(lp119
S'N'
p120
aF0.1188419148431436
aF1.2173696999561143
aF-0.21583885865433555
aa(lp121
S'H'
p122
aF0.6007703094308376
aF1.142956776951899
aF0.6690270856446245
aa(lp123
S'CA'
p124
aF0.03249757708090484
aF0.04553377276045689
aF-1.0780982251270388
aa(lp125
S'C'
p126
aF-0.15502923921684386
aF-1.226491563748735
aF-0.26123395460965615
aa(lp127
S'O'
p128
aF-0.5970805621379891
aF-1.179368685919688
aF0.8861439527464083
aa(lp129
S'CB'
p130
aF1.296011413144241
aF-0.07470371471654763
aF-1.9395625207781888
aa(lp131
S'CG'
p132
aF1.3887057781840761
aF0.8966178597901736
aF-3.1237319147365246
aa(lp133
S'CD1'
p134
aF1.7087202084089685
aF0.11973299390078748
aF-4.39302962197461
aa(lp135
S'CD2'
p136
aF0.07636143598601208
aF1.6537802698479585
aF-3.2621747271039645
aa(lp137
S'HA'
p138
aF-0.8293012887903994
aF0.16152038247536707
aF-1.7347623867422315
aa(lp139
S'1HB'
p140
aF2.165427225117042
aF0.09362252521867717
aF-1.3052184321000184
aa(lp141
S'2HB'
p142
aF1.3515416259893456
aF-1.0875920214460675
aF-2.335940715879779
aa(lp143
S'HG'
p144
aF2.1995653792131042
aF1.6038318224174697
aF-2.9521244601080565
aa(lp145
S'1HD1'
p146
aF1.7748774453131213
aF0.8092294673881972
aF-5.234844823223456
aa(lp147
S'2HD1'
p148
aF2.6613704774153013
aF-0.3969544386197569
aF-4.273612026799152
aa(lp149
S'3HD1'
p150
aF0.9213660590671744
aF-0.6091993008461754
aF-4.582323449632027
aa(lp151
S'1HD2'
p152
aF0.14213101128534134
aF2.3446071596423583
aF-4.10370759711079
aa(lp153
S'2HD2'
p154
aF-0.7357355141256375
aF0.9475022987634882
aF-3.436349843524698
aa(lp155
S'3HD2'
p156
aF-0.11912996096412104
aF2.2137797626224285
aF-2.34770620287209
aaa(lp157
(lp158
S'N'
p159
aF0.10142003789996756
aF1.2169371603142491
aF-0.20544907826189884
aa(lp160
S'H'
p161
aF0.6282780989205548
aF1.1634139149122165
aF0.6548844882919468
aa(lp162
S'CA'
p163
aF0.03189731637449092
aF0.045238977110732756
aF-1.0700061664112417
aa(lp164
S'C'
p165
aF-0.14102044782776402
aF-1.2302387223967461
aF-0.25618180889765596
aa(lp166
S'O'
p167
aF-0.6205750053672565
aF-1.1953513299404455
aF0.8767525652788462
aa(lp168
S'CB'
p169
aF1.2998846304191871
aF-0.05642010195296521
aF-1.9279890351595854
aa(lp170
S'CG'
p171
aF1.0821654682600008
aF-0.0005328254693505174
aF-3.4454326020693884
aa(lp172
S'CD1'
p173
aF2.0208820964939216
aF1.0317214222758637
aF-4.055287715919477
aa(lp174
S'CD2'
p175
aF1.3219742356540904
aF-1.378522495085555
aF-4.044104653790488
aa(lp176
S'HA'
p177
aF-0.8291022884594696
aF0.15259420762660064
aF-1.7290475421659426
aa(lp178
S'1HB'
p179
aF1.9678088163243472
aF0.760373809395326
aF-1.6585618868109249
aa(lp180
S'2HB'
p181
aF1.799510765651119
aF-0.9975512885972309
aF-1.69979434959754
aa(lp182
S'HG'
p183
aF0.05998982315105661
aF0.31408273510371865
aF-3.655156228757956
aa(lp184
S'1HD1'
p185
aF1.8668903231837377
aF1.0713875225286251
aF-5.134158947458962
aa(lp186
S'2HD1'
p187
aF1.815758832689622
aF2.0109424705135313
aF-3.6233564883674596
aa(lp188
S'3HD1'
p189
aF3.0531939190489634
aF0.7520569082839856
aF-3.8477279398867026
aa(lp190
S'1HD2'
p191
aF1.1664007303844137
aF-1.3386141379635912
aF-5.122312985927617
aa(lp192
S'2HD2'
p193
aF2.344344558248085
aF-1.693452319487646
aF-3.835310187433931
aa(lp194
S'3HD2'
p195
aF0.6248293288505072
aF-2.0923411322866334
aF-3.603266892134098
aaa(lp196
(lp197
S'N'
p198
aF0.07651197607288329
aF1.202026726081022
aF-0.1915719898741471
aa(lp199
S'H'
p200
aF0.6275169739834903
aF1.1891212218183307
aF0.6546034885210001
aa(lp201
S'CA'
p202
aF0.08874490684996411
aF0.03512533750509028
aF-1.065073852919761
aa(lp203
S'C'
p204
aF-0.21340555731026795
aF-1.2389965710786823
aF-0.2860023163619081
aa(lp205
S'O'
p206
aF-0.5793682995960758
aF-1.1872767143257883
aF0.8880446706348248
aa(lp207
S'CB'
p208
aF1.4501159652053184
aF-0.0936558191372372
aF-1.759761016444668
aa(lp209
S'CG'
p210
aF2.59777339217357
aF-0.6120107697925762
aF-0.8837235883311674
aa(lp211
S'CD1'
p212
aF3.9302450885146833
aF-0.25829676568618254
aF-1.5294592786479357
aa(lp213
S'CD2'
p214
aF2.48703509898401
aF-0.007515564093203531
aF0.5075465424155305
aa(lp215
S'HA'
p216
aF-0.6817120310781491
aF0.162906239431435
aF-1.8246093345803116
aa(lp217
S'1HB'
p218
aF1.3456376009001028
aF-0.7725980451319623
aF-2.604638951505963
aa(lp219
S'2HB'
p220
aF1.739758335375647
aF0.8853605127719906
aF-2.141101178579619
aa(lp221
S'HG'
p222
aF2.5397224262582614
aF-1.6983299421365345
aF-0.8129369995291057
aa(lp223
S'1HD1'
p224
aF4.745622660117126
aF-0.6270914830513252
aF-0.9071989857067355
aa(lp225
S'2HD1'
p226
aF3.990577753966768
aF-0.718632711140549
aF-2.5155697120184013
aa(lp227
S'3HD1'
p228
aF4.010272797770737
aF0.8242649493768486
aF-1.628599073034503
aa(lp229
S'1HD2'
p230
aF3.301639652080219
aF-0.3765468475442295
aF1.1309672141207736
aa(lp231
S'2HD2'
p232
aF2.5459864749109142
aF1.0782701536707244
aF0.43897460663868004
aa(lp233
S'3HD2'
p234
aF1.5330569686184572
aF-0.291926734151397
aF0.9533278936746189
aaa(lp235
(lp236
S'N'
p237
aF0.042771902741204765
aF1.1899427250793793
aF-0.16308290948642928
aa(lp238
S'H'
p239
aF0.6726527123588716
aF1.2472680236867502
aF0.6249887724150232
aa(lp240
S'CA'
p241
aF0.1108062548402009
aF0.03055070625370837
aF-1.0443606600383142
aa(lp242
S'C'
p243
aF-0.2229291093005739
aF-1.251511447890109
aF-0.29411913917057686
aa(lp244
S'O'
p245
aF-0.6033017606396904
aF-1.216250007129715
aF0.8765739362803453
aa(lp246
S'CB'
p247
aF1.509243313630606
aF-0.08183668507729228
aF-1.6651697022336376
aa(lp248
S'CG'
p249
aF2.2117108158674563
aF1.2475935846325377
aF-1.967898237856467
aa(lp250
S'CD1'
p251
aF1.9104402794369826
aF2.2460608480081525
aF-0.8590307129256882
aa(lp252
S'CD2'
p253
aF3.708784120174633
aF1.0124193283231837
aF-2.101088292665995
aa(lp254
S'HA'
p255
aF-0.6179670790136991
aF0.16134460324462685
aF-1.8438532393493405
aa(lp256
S'1HB'
p257
aF2.1463308434695683
aF-0.6460834307247277
aF-0.9857868283326561
aa(lp258
S'2HB'
p259
aF1.4302996413646938
aF-0.6361728115739709
aF-2.600501384296121
aa(lp260
S'HG'
p261
aF1.8251793936131
aF1.6591332451836749
aF-2.901574609734577
aa(lp262
S'1HD1'
p263
aF2.4094375445888647
aF3.1906313109125657
aF-1.074273296954713
aa(lp264
S'2HD1'
p265
aF0.8341555707676466
aF2.4106828853026183
aF-0.7994840025080865
aa(lp266
S'3HD1'
p267
aF2.271573523045487
aF1.854299345437593
aF0.09131170192511129
aa(lp268
S'1HD2'
p269
aF4.208452287259295
aF1.9568464659234168
aF-2.3170584400625396
aa(lp270
S'2HD2'
p271
aF4.0965145563861505
aF0.602027456408938
aF-1.1679068417670042
aa(lp272
S'3HD2'
p273
aF3.8964385668656316
aF0.3088704236392711
aF-2.9123796998404976
aaa(lp274
(lp275
S'N'
p276
aF0.0858440776327609
aF1.2150359074165542
aF-0.19464546751415274
aa(lp277
S'H'
p278
aF0.6506055473853799
aF1.1826121204320177
aF0.6418485135284051
aa(lp279
S'CA'
p280
aF0.03539771334573217
aF0.04482364778763076
aF-1.0629751466938973
aa(lp281
S'C'
p282
aF-0.13444318472922748
aF-1.2342798253148777
aF-0.25359428798880057
aa(lp283
S'O'
p284
aF-0.6374041536346279
aF-1.2081918503213531
aF0.8693663886684351
aa(lp285
S'CB'
p286
aF1.3119880335788514
aF-0.043226614304467614
aF-1.9087205608893338
aa(lp287
S'CG'
p288
aF1.371473189465853
aF-1.2106793868448973
aF-2.9024194791320705
aa(lp289
S'CD1'
p290
aF0.012166168020937701
aF-1.38248809687532
aF-3.567389545081076
aa(lp291
S'CD2'
p292
aF2.4557567764442343
aF-0.9423936227536016
aF-3.9351187827995284
aa(lp293
S'HA'
p294
aF-0.820439302972867
aF0.14606749993103652
aF-1.7290642427629135
aa(lp295
S'1HB'
p296
aF1.4166996861594876
aF0.8798713680523608
aF-2.476671777793192
aa(lp297
S'2HB'
p298
aF2.1666682984105634
aF-0.13395024022450358
aF-1.2388915762916846
aa(lp299
S'HG'
p300
aF1.6001565326973168
aF-2.132677785984968
aF-2.3678683772609546
aa(lp301
S'1HD1'
p302
aF0.055303172042609094
aF-2.2119482317127863
aF-4.272488888152284
aa(lp303
S'2HD1'
p304
aF-0.7403213517595384
aF-1.5925621613895689
aF-2.8070498709925196
aa(lp305
S'3HD1'
p306
aF-0.251150306545301
aF-0.46829100764461806
aF-4.0973924849447165
aa(lp307
S'1HD2'
p308
aF2.499583363339363
aF-1.7725580875468816
aF-4.64123222388077
aa(lp309
S'2HD2'
p310
aF2.227819068713892
aF-0.021440587016615664
aF-4.472381202257157
aa(lp311
S'3HD2'
p312
aF3.418586483715707
aF-0.8409584170424685
aF-3.4346671329492393
aaa(lp313
(lp314
S'N'
p315
aF0.04882145923665468
aF1.190644183234666
aF-0.17056545385115163
aa(lp316
S'H'
p317
aF0.656247651551314
aF1.240848407604144
aF0.6343525275268065
aa(lp318
S'CA'
p319
aF0.12343456837642847
aF0.02725682966560078
aF-1.046206218948399
aa(lp320
S'C'
p321
aF-0.24827986656774598
aF-1.2476697368687282
aF-0.30145483170621346
aa(lp322
S'O'
p323
aF-0.5802238125966889
aF-1.211079683635684
aF0.883873976979002
aa(lp324
S'CB'
p325
aF1.5356873692566633
aF-0.10590753297367345
aF-1.6301165536135567
aa(lp326
S'CG'
p327
aF2.4463504926102884
aF-1.1291498031596559
aF-0.9386269063530522
aa(lp328
S'CD1'
p329
aF3.461826685245784
aF-1.6636493876765952
aF-1.9389185120069636
aa(lp330
S'CD2'
p331
aF3.1399374964287556
aF-0.471476193157431
aF0.24600446704576198
aa(lp332
S'HA'
p333
aF-0.5826323206605657
aF0.16493104049307417
aF-1.8652912938207606
aa(lp334
S'1HB'
p335
aF1.4532872005861799
aF-0.39132276184112935
aF-2.6777101577051465
aa(lp336
S'2HB'
p337
aF2.027238206913848
aF0.864952598698953
aF-1.5772641295713936
aa(lp338
S'HG'
p339
aF1.8486292073624275
aF-1.9702770627745596
aF-0.5873219130860077
aa(lp340
S'1HD1'
p341
aF4.1089969212872575
aF-2.3905243459133136
aF-1.448518185059282
aa(lp342
S'2HD1'
p343
aF2.9387121683917625
aF-2.145649589039124
aF-2.765556890104099
aa(lp344
S'3HD1'
p345
aF4.065353161108372
aF-0.8405063313029996
aF-2.320750021545974
aa(lp346
S'1HD2'
p347
aF3.7869309107289166
aF-1.1989497484222378
aF0.737673815533758
aa(lp348
S'2HD2'
p349
aF3.7388553720594513
aF0.36871684053231546
aF-0.10399845349810083
aa(lp350
S'3HD2'
p351
aF2.3917846987831686
aF-0.11437917853641422
aF0.9532166795561492
aaa(lp352
(lp353
S'N'
p354
aF0.10069560873958044
aF1.210124133651416
aF-0.20594449624837446
aa(lp355
S'H'
p356
aF0.607430595589484
aF1.1594395032841225
aF0.6663385549149287
aa(lp357
S'CA'
p358
aF0.06129601147173913
aF0.03984070642474841
aF-1.0748163922685785
aa(lp359
S'C'
p360
aF-0.1878452099189244
aF-1.2323576743664433
aF-0.2751096136826733
aa(lp361
S'O'
p362
aF-0.5815770058818294
aF-1.1770466689938042
aF0.8895319472846988
aa(lp363
S'CB'
p364
aF1.3777084870868863
aF-0.08595378393484698
aF-1.8520286800252486
aa(lp365
S'CG'
p366
aF2.6299162886631153
aF-0.3370962575488843
aF-1.0027442284905033
aa(lp367
S'CD1'
p368
aF3.61087768858067
aF0.8119879963248147
aF-1.1923599171117982
aa(lp369
S'CD2'
p370
aF2.232111063346958
aF-0.481566519489394
aF0.45831064594988313
aa(lp371
S'HA'
p372
aF-0.754726834697155
aF0.1644861408955579
aF-1.7852945623737546
aa(lp373
S'1HB'
p374
aF1.2857161150179512
aF-0.9104856237872784
aF-2.558460310510954
aa(lp375
S'2HB'
p376
aF1.538271029511324
aF0.8319795374329351
aF-2.4161466530529663
aa(lp377
S'HG'
p378
aF3.1196633961166835
aF-1.2517218612345884
aF-1.337763296341021
aa(lp379
S'1HD1'
p380
aF4.501926602202763
aF0.6332878505484751
aF-0.5892976554568354
aa(lp381
S'2HD1'
p382
aF3.893448411851453
aF0.8793519256067008
aF-2.2427645474242945
aa(lp383
S'3HD1'
p384
aF3.143045513714535
aF1.7443690718807636
aF-0.8813091397375139
aa(lp385
S'1HD2'
p386
aF3.1231599769690517
aF-0.6602666652657336
aF1.061372907604846
aa(lp387
S'2HD2'
p388
aF1.7440281994079199
aF0.43378667565458295
aF0.7949731565874164
aa(lp389
S'3HD2'
p390
aF1.5460020947405337
aF-1.3208746772814792
aF0.566939829236268
aaa.